	.file	"main.cpp"
	.intel_syntax noprefix
# GNU C++17 (Debian 8.3.0-6) version 8.3.0 (x86_64-linux-gnu)
#	compiled by GNU C version 8.3.0, GMP version 6.1.2, MPFR version 4.0.2, MPC version 1.1.0, isl version isl-0.20-GMP

# GGC heuristics: --param ggc-min-expand=100 --param ggc-min-heapsize=131072
# options passed:  -imultiarch x86_64-linux-gnu -D_GNU_SOURCE -D_REENTRANT
# src/main.cpp -mbmi2 -masm=intel -mtune=generic -march=x86-64 -Ofast
# -Winline -std=c++2a -fopenmp -finline-functions -fno-exceptions
# -fverbose-asm
# options enabled:  -fPIC -fPIE -faggressive-loop-optimizations
# -falign-labels -fassociative-math -fasynchronous-unwind-tables
# -fauto-inc-dec -fbranch-count-reg -fcaller-saves
# -fchkp-check-incomplete-type -fchkp-check-read -fchkp-check-write
# -fchkp-instrument-calls -fchkp-narrow-bounds -fchkp-optimize
# -fchkp-store-bounds -fchkp-use-static-bounds
# -fchkp-use-static-const-bounds -fchkp-use-wrappers -fcode-hoisting
# -fcombine-stack-adjustments -fcommon -fcompare-elim -fcprop-registers
# -fcrossjumping -fcse-follow-jumps -fcx-limited-range -fdefer-pop
# -fdelete-null-pointer-checks -fdevirtualize -fdevirtualize-speculatively
# -fdwarf2-cfi-asm -fearly-inlining -feliminate-unused-debug-types
# -fexpensive-optimizations -ffinite-math-only -fforward-propagate
# -ffp-int-builtin-inexact -ffunction-cse -fgcse -fgcse-after-reload
# -fgcse-lm -fgnu-runtime -fgnu-unique -fguess-branch-probability
# -fhoist-adjacent-loads -fident -fif-conversion -fif-conversion2
# -findirect-inlining -finline -finline-atomics -finline-functions
# -finline-functions-called-once -finline-small-functions -fipa-bit-cp
# -fipa-cp -fipa-cp-clone -fipa-icf -fipa-icf-functions -fipa-icf-variables
# -fipa-profile -fipa-pure-const -fipa-ra -fipa-reference -fipa-sra
# -fipa-vrp -fira-hoist-pressure -fira-share-save-slots
# -fira-share-spill-slots -fisolate-erroneous-paths-dereference -fivopts
# -fkeep-static-consts -fleading-underscore -flifetime-dse
# -floop-interchange -floop-unroll-and-jam -flra-remat
# -flto-odr-type-merging -fmerge-constants -fmerge-debug-strings
# -fmove-loop-invariants -fomit-frame-pointer -foptimize-sibling-calls
# -foptimize-strlen -fpartial-inlining -fpeel-loops -fpeephole -fpeephole2
# -fplt -fpredictive-commoning -fprefetch-loop-arrays -freciprocal-math
# -free -freg-struct-return -freorder-blocks -freorder-blocks-and-partition
# -freorder-functions -frerun-cse-after-loop
# -fsched-critical-path-heuristic -fsched-dep-count-heuristic
# -fsched-group-heuristic -fsched-interblock -fsched-last-insn-heuristic
# -fsched-rank-heuristic -fsched-spec -fsched-spec-insn-heuristic
# -fsched-stalled-insns-dep -fschedule-fusion -fschedule-insns2
# -fsemantic-interposition -fshow-column -fshrink-wrap
# -fshrink-wrap-separate -fsplit-ivs-in-unroller -fsplit-loops
# -fsplit-paths -fsplit-wide-types -fssa-backprop -fssa-phiopt -fstdarg-opt
# -fstore-merging -fstrict-aliasing -fstrict-volatile-bitfields
# -fsync-libcalls -fthread-jumps -ftoplevel-reorder -ftree-bit-ccp
# -ftree-builtin-call-dce -ftree-ccp -ftree-ch -ftree-coalesce-vars
# -ftree-copy-prop -ftree-cselim -ftree-dce -ftree-dominator-opts
# -ftree-dse -ftree-forwprop -ftree-fre -ftree-loop-distribute-patterns
# -ftree-loop-distribution -ftree-loop-if-convert -ftree-loop-im
# -ftree-loop-ivcanon -ftree-loop-optimize -ftree-loop-vectorize
# -ftree-parallelize-loops= -ftree-partial-pre -ftree-phiprop -ftree-pre
# -ftree-pta -ftree-reassoc -ftree-scev-cprop -ftree-sink
# -ftree-slp-vectorize -ftree-slsr -ftree-sra -ftree-switch-conversion
# -ftree-tail-merge -ftree-ter -ftree-vrp -funit-at-a-time
# -funsafe-math-optimizations -funswitch-loops -funwind-tables
# -fverbose-asm -fzero-initialized-in-bss -m128bit-long-double -m64 -m80387
# -malign-stringops -mavx256-split-unaligned-load
# -mavx256-split-unaligned-store -mbmi2 -mfancy-math-387 -mfp-ret-in-387
# -mfxsr -mglibc -mlong-double-80 -mmmx -mno-sse4 -mpush-args -mred-zone
# -msse -msse2 -mstv -mtls-direct-seg-refs -mvzeroupper

	.text
	.section	.text._ZNSt6vectorIdSaIdEED2Ev,"axG",@progbits,_ZNSt6vectorIdSaIdEED5Ev,comdat
	.align 2
	.p2align 4,,15
	.weak	_ZNSt6vectorIdSaIdEED2Ev
	.type	_ZNSt6vectorIdSaIdEED2Ev, @function
_ZNSt6vectorIdSaIdEED2Ev:
.LFB12111:
	.cfi_startproc
# /usr/include/c++/8/bits/stl_vector.h:567: 	std::_Destroy(this->_M_impl._M_start, this->_M_impl._M_finish,
	mov	rdi, QWORD PTR [rdi]	# _1, this_2(D)->D.63468._M_impl._M_start
# /usr/include/c++/8/bits/stl_vector.h:303: 	if (__p)
	test	rdi, rdi	# _1
	je	.L1	#,
# /usr/include/c++/8/ext/new_allocator.h:125: 	::operator delete(__p);
	jmp	_ZdlPv@PLT	#
	.p2align 4,,10
	.p2align 3
.L1:
# /usr/include/c++/8/bits/stl_vector.h:570:       }
	ret	
	.cfi_endproc
.LFE12111:
	.size	_ZNSt6vectorIdSaIdEED2Ev, .-_ZNSt6vectorIdSaIdEED2Ev
	.weak	_ZNSt6vectorIdSaIdEED1Ev
	.set	_ZNSt6vectorIdSaIdEED1Ev,_ZNSt6vectorIdSaIdEED2Ev
	.section	.text._ZNSt13random_deviceD2Ev,"axG",@progbits,_ZNSt13random_deviceD5Ev,comdat
	.align 2
	.p2align 4,,15
	.weak	_ZNSt13random_deviceD2Ev
	.type	_ZNSt13random_deviceD2Ev, @function
_ZNSt13random_deviceD2Ev:
.LFB3096:
	.cfi_startproc
# /usr/include/c++/8/bits/random.h:1577:     { _M_fini(); }
	jmp	_ZNSt13random_device7_M_finiEv@PLT	#
	.cfi_endproc
.LFE3096:
	.size	_ZNSt13random_deviceD2Ev, .-_ZNSt13random_deviceD2Ev
	.weak	_ZNSt13random_deviceD1Ev
	.set	_ZNSt13random_deviceD1Ev,_ZNSt13random_deviceD2Ev
	.section	.text._ZNSt11char_traitsIcE6lengthEPKc,"axG",@progbits,_ZNSt11char_traitsIcE6lengthEPKc,comdat
	.p2align 4,,15
	.weak	_ZNSt11char_traitsIcE6lengthEPKc
	.type	_ZNSt11char_traitsIcE6lengthEPKc, @function
_ZNSt11char_traitsIcE6lengthEPKc:
.LFB406:
	.cfi_startproc
# /usr/include/c++/8/bits/char_traits.h:322: 	return __builtin_strlen(__s);
	jmp	strlen@PLT	#
	.cfi_endproc
.LFE406:
	.size	_ZNSt11char_traitsIcE6lengthEPKc, .-_ZNSt11char_traitsIcE6lengthEPKc
	.text
	.p2align 4,,15
	.globl	_Z5resetRSt5arrayItLm10EE
	.type	_Z5resetRSt5arrayItLm10EE, @function
_Z5resetRSt5arrayItLm10EE:
.LFB10152:
	.cfi_startproc
	pxor	xmm0, xmm0	# tmp88
	mov	DWORD PTR 16[rdi], 0	# MEM[(void *)board_5(D)],
	movups	XMMWORD PTR [rdi], xmm0	# MEM[(void *)board_5(D)], tmp88
# src/../include/Board.hpp:18: }
	ret	
	.cfi_endproc
.LFE10152:
	.size	_Z5resetRSt5arrayItLm10EE, .-_Z5resetRSt5arrayItLm10EE
	.p2align 4,,15
	.globl	_Z10col_heightt
	.type	_Z10col_heightt, @function
_Z10col_heightt:
.LFB10154:
	.cfi_startproc
# src/../include/Board.hpp:22:     return static_cast<height_t>(63 - __builtin_clzll(static_cast<unsigned long long>((col << 1) | 1)));
	movzx	edx, di	# col, col
# src/../include/Board.hpp:22:     return static_cast<height_t>(63 - __builtin_clzll(static_cast<unsigned long long>((col << 1) | 1)));
	mov	eax, 63	# tmp102,
# src/../include/Board.hpp:22:     return static_cast<height_t>(63 - __builtin_clzll(static_cast<unsigned long long>((col << 1) | 1)));
	lea	edx, 1[rdx+rdx]	# tmp98,
# src/../include/Board.hpp:22:     return static_cast<height_t>(63 - __builtin_clzll(static_cast<unsigned long long>((col << 1) | 1)));
	movsx	rdx, edx	# tmp99, tmp98
	bsr	rdx, rdx	# tmp100, tmp99
	xor	rdx, 63	# tmp100,
# src/../include/Board.hpp:22:     return static_cast<height_t>(63 - __builtin_clzll(static_cast<unsigned long long>((col << 1) | 1)));
	sub	eax, edx	# tmp101, tmp100
# src/../include/Board.hpp:23: }
	ret	
	.cfi_endproc
.LFE10154:
	.size	_Z10col_heightt, .-_Z10col_heightt
	.globl	__popcountdi2
	.p2align 4,,15
	.globl	_Z17getRowTransitionsRKSt5arrayItLm10EE
	.type	_Z17getRowTransitionsRKSt5arrayItLm10EE, @function
_Z17getRowTransitionsRKSt5arrayItLm10EE:
.LFB10156:
	.cfi_startproc
	push	r13	#
	.cfi_def_cfa_offset 16
	.cfi_offset 13, -16
	push	r12	#
	.cfi_def_cfa_offset 24
	.cfi_offset 12, -24
	push	rbp	#
	.cfi_def_cfa_offset 32
	.cfi_offset 6, -32
	mov	rbp, rdi	# board, board
	push	rbx	#
	.cfi_def_cfa_offset 40
	.cfi_offset 3, -40
	sub	rsp, 8	#,
	.cfi_def_cfa_offset 48
# src/../include/Board.hpp:40:     transitions += __builtin_popcount(FULL_COLUMN ^ board[0]);
	movzx	r12d, WORD PTR [rdi]	# _1, MEM[(const value_type &)board_23(D)]
	mov	edi, r12d	# tmp153, _1
	not	edi	# tmp153
# src/../include/Board.hpp:40:     transitions += __builtin_popcount(FULL_COLUMN ^ board[0]);
	movzx	edi, di	# tmp155, tmp153
	call	__popcountdi2@PLT	#
# src/../include/Board.hpp:44:         transitions += __builtin_popcount(board[col] ^ board[col + 1]);
	movzx	r13d, WORD PTR 2[rbp]	# _34, MEM[(const value_type &)board_23(D)]
# src/../include/Board.hpp:40:     transitions += __builtin_popcount(FULL_COLUMN ^ board[0]);
	mov	ebx, eax	# tmp156,
# src/../include/Board.hpp:44:         transitions += __builtin_popcount(board[col] ^ board[col + 1]);
	xor	r12d, r13d	# tmp157, _34
# src/../include/Board.hpp:44:         transitions += __builtin_popcount(board[col] ^ board[col + 1]);
	movzx	edi, r12w	# tmp159, tmp157
	call	__popcountdi2@PLT	#
# src/../include/Board.hpp:44:         transitions += __builtin_popcount(board[col] ^ board[col + 1]);
	movzx	r12d, WORD PTR 4[rbp]	# _61, MEM[(const value_type &)board_23(D)]
# src/../include/Board.hpp:44:         transitions += __builtin_popcount(board[col] ^ board[col + 1]);
	add	ebx, eax	# transitions, tmp160
# src/../include/Board.hpp:44:         transitions += __builtin_popcount(board[col] ^ board[col + 1]);
	xor	r13d, r12d	# tmp161, _61
# src/../include/Board.hpp:44:         transitions += __builtin_popcount(board[col] ^ board[col + 1]);
	movzx	edi, r13w	# tmp163, tmp161
	call	__popcountdi2@PLT	#
# src/../include/Board.hpp:44:         transitions += __builtin_popcount(board[col] ^ board[col + 1]);
	movzx	r13d, WORD PTR 6[rbp]	# _79, MEM[(const value_type &)board_23(D)]
# src/../include/Board.hpp:44:         transitions += __builtin_popcount(board[col] ^ board[col + 1]);
	add	ebx, eax	# transitions, tmp164
# src/../include/Board.hpp:44:         transitions += __builtin_popcount(board[col] ^ board[col + 1]);
	xor	r12d, r13d	# tmp165, _79
# src/../include/Board.hpp:44:         transitions += __builtin_popcount(board[col] ^ board[col + 1]);
	movzx	edi, r12w	# tmp167, tmp165
	call	__popcountdi2@PLT	#
# src/../include/Board.hpp:44:         transitions += __builtin_popcount(board[col] ^ board[col + 1]);
	movzx	r12d, WORD PTR 8[rbp]	# _97, MEM[(const value_type &)board_23(D)]
# src/../include/Board.hpp:44:         transitions += __builtin_popcount(board[col] ^ board[col + 1]);
	add	ebx, eax	# transitions, tmp168
# src/../include/Board.hpp:44:         transitions += __builtin_popcount(board[col] ^ board[col + 1]);
	xor	r13d, r12d	# tmp169, _97
# src/../include/Board.hpp:44:         transitions += __builtin_popcount(board[col] ^ board[col + 1]);
	movzx	edi, r13w	# tmp171, tmp169
	call	__popcountdi2@PLT	#
# src/../include/Board.hpp:44:         transitions += __builtin_popcount(board[col] ^ board[col + 1]);
	movzx	r13d, WORD PTR 10[rbp]	# _115, MEM[(const value_type &)board_23(D)]
# src/../include/Board.hpp:44:         transitions += __builtin_popcount(board[col] ^ board[col + 1]);
	add	ebx, eax	# transitions, tmp172
# src/../include/Board.hpp:44:         transitions += __builtin_popcount(board[col] ^ board[col + 1]);
	xor	r12d, r13d	# tmp173, _115
# src/../include/Board.hpp:44:         transitions += __builtin_popcount(board[col] ^ board[col + 1]);
	movzx	edi, r12w	# tmp175, tmp173
	call	__popcountdi2@PLT	#
# src/../include/Board.hpp:44:         transitions += __builtin_popcount(board[col] ^ board[col + 1]);
	movzx	r12d, WORD PTR 12[rbp]	# _133, MEM[(const value_type &)board_23(D)]
# src/../include/Board.hpp:44:         transitions += __builtin_popcount(board[col] ^ board[col + 1]);
	add	ebx, eax	# transitions, tmp176
# src/../include/Board.hpp:44:         transitions += __builtin_popcount(board[col] ^ board[col + 1]);
	xor	r13d, r12d	# tmp177, _133
# src/../include/Board.hpp:44:         transitions += __builtin_popcount(board[col] ^ board[col + 1]);
	movzx	edi, r13w	# tmp179, tmp177
	call	__popcountdi2@PLT	#
# src/../include/Board.hpp:44:         transitions += __builtin_popcount(board[col] ^ board[col + 1]);
	movzx	r13d, WORD PTR 14[rbp]	# _151, MEM[(const value_type &)board_23(D)]
# src/../include/Board.hpp:44:         transitions += __builtin_popcount(board[col] ^ board[col + 1]);
	add	ebx, eax	# transitions, tmp180
# src/../include/Board.hpp:44:         transitions += __builtin_popcount(board[col] ^ board[col + 1]);
	xor	r12d, r13d	# tmp181, _151
# src/../include/Board.hpp:44:         transitions += __builtin_popcount(board[col] ^ board[col + 1]);
	movzx	edi, r12w	# tmp183, tmp181
	call	__popcountdi2@PLT	#
# src/../include/Board.hpp:44:         transitions += __builtin_popcount(board[col] ^ board[col + 1]);
	movzx	r12d, WORD PTR 16[rbp]	# _169, MEM[(const value_type &)board_23(D)]
# src/../include/Board.hpp:44:         transitions += __builtin_popcount(board[col] ^ board[col + 1]);
	add	ebx, eax	# transitions, tmp184
# src/../include/Board.hpp:44:         transitions += __builtin_popcount(board[col] ^ board[col + 1]);
	xor	r13d, r12d	# tmp185, _169
# src/../include/Board.hpp:44:         transitions += __builtin_popcount(board[col] ^ board[col + 1]);
	movzx	edi, r13w	# tmp187, tmp185
	call	__popcountdi2@PLT	#
# src/../include/Board.hpp:44:         transitions += __builtin_popcount(board[col] ^ board[col + 1]);
	xor	r12w, WORD PTR 18[rbp]	# tmp189, MEM[(const value_type &)board_23(D)]
# src/../include/Board.hpp:44:         transitions += __builtin_popcount(board[col] ^ board[col + 1]);
	movzx	edi, r12w	# tmp191, tmp189
# src/../include/Board.hpp:44:         transitions += __builtin_popcount(board[col] ^ board[col + 1]);
	add	ebx, eax	# transitions, tmp188
# src/../include/Board.hpp:44:         transitions += __builtin_popcount(board[col] ^ board[col + 1]);
	call	__popcountdi2@PLT	#
# src/../include/Board.hpp:47:     transitions += __builtin_popcount(FULL_COLUMN ^ board[board.size() - 1]);
	movzx	edi, WORD PTR 18[rbp]	# MEM[(const value_type &)board_23(D) + 18], MEM[(const value_type &)board_23(D) + 18]
# src/../include/Board.hpp:44:         transitions += __builtin_popcount(board[col] ^ board[col + 1]);
	add	ebx, eax	# transitions, tmp192
# src/../include/Board.hpp:47:     transitions += __builtin_popcount(FULL_COLUMN ^ board[board.size() - 1]);
	not	edi	# tmp193
# src/../include/Board.hpp:47:     transitions += __builtin_popcount(FULL_COLUMN ^ board[board.size() - 1]);
	movzx	edi, di	# tmp196, tmp193
	call	__popcountdi2@PLT	#
# src/../include/Board.hpp:50: }
	add	rsp, 8	#,
	.cfi_def_cfa_offset 40
# src/../include/Board.hpp:47:     transitions += __builtin_popcount(FULL_COLUMN ^ board[board.size() - 1]);
	add	eax, ebx	# transitions, transitions
# src/../include/Board.hpp:50: }
	pop	rbx	#
	.cfi_def_cfa_offset 32
	pop	rbp	#
	.cfi_def_cfa_offset 24
	pop	r12	#
	.cfi_def_cfa_offset 16
	pop	r13	#
	.cfi_def_cfa_offset 8
	ret	
	.cfi_endproc
.LFE10156:
	.size	_Z17getRowTransitionsRKSt5arrayItLm10EE, .-_Z17getRowTransitionsRKSt5arrayItLm10EE
	.p2align 4,,15
	.globl	_Z20getColumnTransitionsRKSt5arrayItLm10EE
	.type	_Z20getColumnTransitionsRKSt5arrayItLm10EE, @function
_Z20getColumnTransitionsRKSt5arrayItLm10EE:
.LFB10159:
	.cfi_startproc
	push	r15	#
	.cfi_def_cfa_offset 16
	.cfi_offset 15, -16
	push	r14	#
	.cfi_def_cfa_offset 24
	.cfi_offset 14, -24
	push	r13	#
	.cfi_def_cfa_offset 32
	.cfi_offset 13, -32
	push	r12	#
	.cfi_def_cfa_offset 40
	.cfi_offset 12, -40
	push	rbp	#
	.cfi_def_cfa_offset 48
	.cfi_offset 6, -48
	mov	rbp, rdi	# board, board
	push	rbx	#
	.cfi_def_cfa_offset 56
	.cfi_offset 3, -56
	sub	rsp, 24	#,
	.cfi_def_cfa_offset 80
# src/../include/Board.hpp:58:         transitions += __builtin_popcount(col ^ ((col << 1) + 1));
	movzx	eax, WORD PTR [rdi]	# _36, MEM[(const value_type &)board_14(D)]
# src/../include/Board.hpp:58:         transitions += __builtin_popcount(col ^ ((col << 1) + 1));
	lea	edi, 1[rax+rax]	# tmp178,
# src/../include/Board.hpp:58:         transitions += __builtin_popcount(col ^ ((col << 1) + 1));
	xor	edi, eax	#, _36
# src/../include/Board.hpp:58:         transitions += __builtin_popcount(col ^ ((col << 1) + 1));
	call	__popcountdi2@PLT	#
	mov	DWORD PTR [rsp], eax	# %sfp,
# src/../include/Board.hpp:58:         transitions += __builtin_popcount(col ^ ((col << 1) + 1));
	movzx	eax, WORD PTR 2[rbp]	# _10, MEM[(const value_type &)board_14(D) + 2]
# src/../include/Board.hpp:58:         transitions += __builtin_popcount(col ^ ((col << 1) + 1));
	lea	edi, 1[rax+rax]	# tmp183,
# src/../include/Board.hpp:58:         transitions += __builtin_popcount(col ^ ((col << 1) + 1));
	xor	edi, eax	#, _10
# src/../include/Board.hpp:58:         transitions += __builtin_popcount(col ^ ((col << 1) + 1));
	call	__popcountdi2@PLT	#
	mov	ebx, eax	# tmp186,
# src/../include/Board.hpp:58:         transitions += __builtin_popcount(col ^ ((col << 1) + 1));
	movzx	eax, WORD PTR 4[rbp]	# _57, MEM[(const value_type &)board_14(D) + 4]
# src/../include/Board.hpp:58:         transitions += __builtin_popcount(col ^ ((col << 1) + 1));
	lea	edi, 1[rax+rax]	# tmp188,
# src/../include/Board.hpp:58:         transitions += __builtin_popcount(col ^ ((col << 1) + 1));
	xor	edi, eax	#, _57
# src/../include/Board.hpp:58:         transitions += __builtin_popcount(col ^ ((col << 1) + 1));
	call	__popcountdi2@PLT	#
	mov	r15d, eax	# tmp191,
# src/../include/Board.hpp:58:         transitions += __builtin_popcount(col ^ ((col << 1) + 1));
	movzx	eax, WORD PTR 6[rbp]	# _73, MEM[(const value_type &)board_14(D) + 6]
# src/../include/Board.hpp:58:         transitions += __builtin_popcount(col ^ ((col << 1) + 1));
	lea	edi, 1[rax+rax]	# tmp193,
# src/../include/Board.hpp:58:         transitions += __builtin_popcount(col ^ ((col << 1) + 1));
	xor	edi, eax	#, _73
# src/../include/Board.hpp:58:         transitions += __builtin_popcount(col ^ ((col << 1) + 1));
	call	__popcountdi2@PLT	#
	mov	r14d, eax	# tmp196,
# src/../include/Board.hpp:58:         transitions += __builtin_popcount(col ^ ((col << 1) + 1));
	movzx	eax, WORD PTR 8[rbp]	# _89, MEM[(const value_type &)board_14(D) + 8]
# src/../include/Board.hpp:58:         transitions += __builtin_popcount(col ^ ((col << 1) + 1));
	lea	edi, 1[rax+rax]	# tmp198,
# src/../include/Board.hpp:58:         transitions += __builtin_popcount(col ^ ((col << 1) + 1));
	xor	edi, eax	#, _89
# src/../include/Board.hpp:58:         transitions += __builtin_popcount(col ^ ((col << 1) + 1));
	call	__popcountdi2@PLT	#
	mov	r13d, eax	# tmp201,
# src/../include/Board.hpp:58:         transitions += __builtin_popcount(col ^ ((col << 1) + 1));
	movzx	eax, WORD PTR 10[rbp]	# _105, MEM[(const value_type &)board_14(D) + 10]
# src/../include/Board.hpp:58:         transitions += __builtin_popcount(col ^ ((col << 1) + 1));
	lea	edi, 1[rax+rax]	# tmp203,
# src/../include/Board.hpp:58:         transitions += __builtin_popcount(col ^ ((col << 1) + 1));
	xor	edi, eax	#, _105
# src/../include/Board.hpp:58:         transitions += __builtin_popcount(col ^ ((col << 1) + 1));
	call	__popcountdi2@PLT	#
	mov	r12d, eax	# tmp206,
# src/../include/Board.hpp:58:         transitions += __builtin_popcount(col ^ ((col << 1) + 1));
	movzx	eax, WORD PTR 12[rbp]	# _121, MEM[(const value_type &)board_14(D) + 12]
# src/../include/Board.hpp:58:         transitions += __builtin_popcount(col ^ ((col << 1) + 1));
	lea	edi, 1[rax+rax]	# tmp208,
# src/../include/Board.hpp:58:         transitions += __builtin_popcount(col ^ ((col << 1) + 1));
	xor	edi, eax	#, _121
# src/../include/Board.hpp:58:         transitions += __builtin_popcount(col ^ ((col << 1) + 1));
	call	__popcountdi2@PLT	#
	mov	DWORD PTR 4[rsp], eax	# %sfp,
# src/../include/Board.hpp:58:         transitions += __builtin_popcount(col ^ ((col << 1) + 1));
	movzx	eax, WORD PTR 14[rbp]	# _137, MEM[(const value_type &)board_14(D) + 14]
# src/../include/Board.hpp:58:         transitions += __builtin_popcount(col ^ ((col << 1) + 1));
	lea	edi, 1[rax+rax]	# tmp213,
# src/../include/Board.hpp:58:         transitions += __builtin_popcount(col ^ ((col << 1) + 1));
	xor	edi, eax	#, _137
# src/../include/Board.hpp:58:         transitions += __builtin_popcount(col ^ ((col << 1) + 1));
	call	__popcountdi2@PLT	#
	mov	DWORD PTR 8[rsp], eax	# %sfp,
# src/../include/Board.hpp:58:         transitions += __builtin_popcount(col ^ ((col << 1) + 1));
	movzx	eax, WORD PTR 16[rbp]	# _153, MEM[(const value_type &)board_14(D) + 16]
# src/../include/Board.hpp:58:         transitions += __builtin_popcount(col ^ ((col << 1) + 1));
	lea	edi, 1[rax+rax]	# tmp218,
# src/../include/Board.hpp:58:         transitions += __builtin_popcount(col ^ ((col << 1) + 1));
	xor	edi, eax	#, _153
# src/../include/Board.hpp:58:         transitions += __builtin_popcount(col ^ ((col << 1) + 1));
	call	__popcountdi2@PLT	#
	mov	DWORD PTR 12[rsp], eax	# %sfp,
# src/../include/Board.hpp:58:         transitions += __builtin_popcount(col ^ ((col << 1) + 1));
	movzx	eax, WORD PTR 18[rbp]	# _3, MEM[(const value_type &)board_14(D) + 18]
# src/../include/Board.hpp:58:         transitions += __builtin_popcount(col ^ ((col << 1) + 1));
	lea	edi, 1[rax+rax]	# tmp223,
# src/../include/Board.hpp:58:         transitions += __builtin_popcount(col ^ ((col << 1) + 1));
	xor	edi, eax	#, _3
# src/../include/Board.hpp:58:         transitions += __builtin_popcount(col ^ ((col << 1) + 1));
	call	__popcountdi2@PLT	#
# src/../include/Board.hpp:58:         transitions += __builtin_popcount(col ^ ((col << 1) + 1));
	lea	edx, [rbx+r15]	# tmp228,
	add	edx, r14d	# tmp229, tmp196
	add	edx, r13d	# tmp230, tmp201
	add	edx, r12d	# tmp231, tmp206
	add	dx, WORD PTR 4[rsp]	# tmp232, %sfp
	add	dx, WORD PTR 8[rsp]	# tmp233, %sfp
	add	dx, WORD PTR 12[rsp]	# tmp234, %sfp
	add	eax, edx	# tmp235, tmp234
	add	ax, WORD PTR [rsp]	# transitions, %sfp
# src/../include/Board.hpp:61: }
	add	rsp, 24	#,
	.cfi_def_cfa_offset 56
	pop	rbx	#
	.cfi_def_cfa_offset 48
	pop	rbp	#
	.cfi_def_cfa_offset 40
	pop	r12	#
	.cfi_def_cfa_offset 32
	pop	r13	#
	.cfi_def_cfa_offset 24
	pop	r14	#
	.cfi_def_cfa_offset 16
	pop	r15	#
	.cfi_def_cfa_offset 8
	ret	
	.cfi_endproc
.LFE10159:
	.size	_Z20getColumnTransitionsRKSt5arrayItLm10EE, .-_Z20getColumnTransitionsRKSt5arrayItLm10EE
	.p2align 4,,15
	.globl	_Z16getNumberOfHolesRKSt5arrayItLm10EE
	.type	_Z16getNumberOfHolesRKSt5arrayItLm10EE, @function
_Z16getNumberOfHolesRKSt5arrayItLm10EE:
.LFB10160:
	.cfi_startproc
	push	r15	#
	.cfi_def_cfa_offset 16
	.cfi_offset 15, -16
	push	r14	#
	.cfi_def_cfa_offset 24
	.cfi_offset 14, -24
	push	r13	#
	.cfi_def_cfa_offset 32
	.cfi_offset 13, -32
	push	r12	#
	.cfi_def_cfa_offset 40
	.cfi_offset 12, -40
	push	rbp	#
	.cfi_def_cfa_offset 48
	.cfi_offset 6, -48
	push	rbx	#
	.cfi_def_cfa_offset 56
	.cfi_offset 3, -56
	mov	rbx, rdi	# board, board
	sub	rsp, 88	#,
	.cfi_def_cfa_offset 144
# src/../include/Board.hpp:68:         holes += col_height(board[i]) - __builtin_popcount(board[i]);
	movzx	edi, WORD PTR [rdi]	#, MEM[(const value_type &)board_13(D)]
# src/../include/Board.hpp:22:     return static_cast<height_t>(63 - __builtin_clzll(static_cast<unsigned long long>((col << 1) | 1)));
	lea	ebp, 1[rdi+rdi]	# tmp229,
# src/../include/Board.hpp:68:         holes += col_height(board[i]) - __builtin_popcount(board[i]);
	call	__popcountdi2@PLT	#
# src/../include/Board.hpp:68:         holes += col_height(board[i]) - __builtin_popcount(board[i]);
	movzx	edi, WORD PTR 2[rbx]	#, MEM[(const value_type &)board_13(D) + 2]
# src/../include/Board.hpp:22:     return static_cast<height_t>(63 - __builtin_clzll(static_cast<unsigned long long>((col << 1) | 1)));
	movsx	rbp, ebp	# tmp230, tmp229
# src/../include/Board.hpp:68:         holes += col_height(board[i]) - __builtin_popcount(board[i]);
	mov	DWORD PTR 12[rsp], eax	# %sfp,
# src/../include/Board.hpp:22:     return static_cast<height_t>(63 - __builtin_clzll(static_cast<unsigned long long>((col << 1) | 1)));
	bsr	rbp, rbp	# tmp231, tmp230
# src/../include/Board.hpp:22:     return static_cast<height_t>(63 - __builtin_clzll(static_cast<unsigned long long>((col << 1) | 1)));
	lea	r11d, 1[rdi+rdi]	# tmp237,
# src/../include/Board.hpp:22:     return static_cast<height_t>(63 - __builtin_clzll(static_cast<unsigned long long>((col << 1) | 1)));
	xor	rbp, 63	# tmp231,
	movsx	r11, r11d	# tmp238, tmp237
	bsr	r11, r11	# tmp239, tmp238
	xor	r11, 63	# tmp239,
	mov	QWORD PTR 72[rsp], r11	# %sfp, tmp239
# src/../include/Board.hpp:68:         holes += col_height(board[i]) - __builtin_popcount(board[i]);
	call	__popcountdi2@PLT	#
# src/../include/Board.hpp:68:         holes += col_height(board[i]) - __builtin_popcount(board[i]);
	movzx	edi, WORD PTR 4[rbx]	#, MEM[(const value_type &)board_13(D) + 4]
# src/../include/Board.hpp:68:         holes += col_height(board[i]) - __builtin_popcount(board[i]);
	mov	DWORD PTR 16[rsp], eax	# %sfp,
# src/../include/Board.hpp:22:     return static_cast<height_t>(63 - __builtin_clzll(static_cast<unsigned long long>((col << 1) | 1)));
	lea	r10d, 1[rdi+rdi]	# tmp245,
# src/../include/Board.hpp:22:     return static_cast<height_t>(63 - __builtin_clzll(static_cast<unsigned long long>((col << 1) | 1)));
	movsx	r10, r10d	# tmp246, tmp245
	bsr	r10, r10	# tmp247, tmp246
	xor	r10, 63	# tmp247,
	mov	QWORD PTR 64[rsp], r10	# %sfp, tmp247
# src/../include/Board.hpp:68:         holes += col_height(board[i]) - __builtin_popcount(board[i]);
	call	__popcountdi2@PLT	#
# src/../include/Board.hpp:68:         holes += col_height(board[i]) - __builtin_popcount(board[i]);
	movzx	edi, WORD PTR 6[rbx]	#, MEM[(const value_type &)board_13(D) + 6]
# src/../include/Board.hpp:68:         holes += col_height(board[i]) - __builtin_popcount(board[i]);
	mov	DWORD PTR 20[rsp], eax	# %sfp,
# src/../include/Board.hpp:22:     return static_cast<height_t>(63 - __builtin_clzll(static_cast<unsigned long long>((col << 1) | 1)));
	lea	r9d, 1[rdi+rdi]	# tmp253,
# src/../include/Board.hpp:22:     return static_cast<height_t>(63 - __builtin_clzll(static_cast<unsigned long long>((col << 1) | 1)));
	movsx	r9, r9d	# tmp254, tmp253
	bsr	r9, r9	# tmp255, tmp254
	xor	r9, 63	# tmp255,
	mov	QWORD PTR 56[rsp], r9	# %sfp, tmp255
# src/../include/Board.hpp:68:         holes += col_height(board[i]) - __builtin_popcount(board[i]);
	call	__popcountdi2@PLT	#
# src/../include/Board.hpp:68:         holes += col_height(board[i]) - __builtin_popcount(board[i]);
	movzx	edi, WORD PTR 8[rbx]	#, MEM[(const value_type &)board_13(D) + 8]
# src/../include/Board.hpp:68:         holes += col_height(board[i]) - __builtin_popcount(board[i]);
	mov	DWORD PTR 24[rsp], eax	# %sfp,
# src/../include/Board.hpp:22:     return static_cast<height_t>(63 - __builtin_clzll(static_cast<unsigned long long>((col << 1) | 1)));
	lea	r8d, 1[rdi+rdi]	# tmp261,
# src/../include/Board.hpp:22:     return static_cast<height_t>(63 - __builtin_clzll(static_cast<unsigned long long>((col << 1) | 1)));
	movsx	r8, r8d	# tmp262, tmp261
	bsr	r8, r8	# tmp263, tmp262
	xor	r8, 63	# tmp263,
	mov	QWORD PTR 48[rsp], r8	# %sfp, tmp263
# src/../include/Board.hpp:68:         holes += col_height(board[i]) - __builtin_popcount(board[i]);
	call	__popcountdi2@PLT	#
# src/../include/Board.hpp:68:         holes += col_height(board[i]) - __builtin_popcount(board[i]);
	movzx	edi, WORD PTR 10[rbx]	#, MEM[(const value_type &)board_13(D) + 10]
# src/../include/Board.hpp:68:         holes += col_height(board[i]) - __builtin_popcount(board[i]);
	mov	DWORD PTR 28[rsp], eax	# %sfp,
# src/../include/Board.hpp:22:     return static_cast<height_t>(63 - __builtin_clzll(static_cast<unsigned long long>((col << 1) | 1)));
	lea	esi, 1[rdi+rdi]	# tmp269,
# src/../include/Board.hpp:22:     return static_cast<height_t>(63 - __builtin_clzll(static_cast<unsigned long long>((col << 1) | 1)));
	movsx	rsi, esi	# tmp270, tmp269
	bsr	r15, rsi	# tmp271, tmp270
# src/../include/Board.hpp:68:         holes += col_height(board[i]) - __builtin_popcount(board[i]);
	call	__popcountdi2@PLT	#
# src/../include/Board.hpp:68:         holes += col_height(board[i]) - __builtin_popcount(board[i]);
	movzx	edi, WORD PTR 12[rbx]	#, MEM[(const value_type &)board_13(D) + 12]
# src/../include/Board.hpp:22:     return static_cast<height_t>(63 - __builtin_clzll(static_cast<unsigned long long>((col << 1) | 1)));
	xor	r15, 63	# tmp271,
# src/../include/Board.hpp:68:         holes += col_height(board[i]) - __builtin_popcount(board[i]);
	mov	DWORD PTR 32[rsp], eax	# %sfp,
# src/../include/Board.hpp:22:     return static_cast<height_t>(63 - __builtin_clzll(static_cast<unsigned long long>((col << 1) | 1)));
	lea	ecx, 1[rdi+rdi]	# tmp277,
# src/../include/Board.hpp:22:     return static_cast<height_t>(63 - __builtin_clzll(static_cast<unsigned long long>((col << 1) | 1)));
	movsx	rcx, ecx	# tmp278, tmp277
	bsr	r14, rcx	# tmp279, tmp278
# src/../include/Board.hpp:68:         holes += col_height(board[i]) - __builtin_popcount(board[i]);
	call	__popcountdi2@PLT	#
# src/../include/Board.hpp:68:         holes += col_height(board[i]) - __builtin_popcount(board[i]);
	movzx	edi, WORD PTR 14[rbx]	#, MEM[(const value_type &)board_13(D) + 14]
# src/../include/Board.hpp:22:     return static_cast<height_t>(63 - __builtin_clzll(static_cast<unsigned long long>((col << 1) | 1)));
	xor	r14, 63	# tmp279,
# src/../include/Board.hpp:68:         holes += col_height(board[i]) - __builtin_popcount(board[i]);
	mov	DWORD PTR 36[rsp], eax	# %sfp,
# src/../include/Board.hpp:22:     return static_cast<height_t>(63 - __builtin_clzll(static_cast<unsigned long long>((col << 1) | 1)));
	lea	eax, 1[rdi+rdi]	# tmp285,
# src/../include/Board.hpp:22:     return static_cast<height_t>(63 - __builtin_clzll(static_cast<unsigned long long>((col << 1) | 1)));
	cdqe
	bsr	r13, rax	# tmp287, tmp286
# src/../include/Board.hpp:68:         holes += col_height(board[i]) - __builtin_popcount(board[i]);
	call	__popcountdi2@PLT	#
# src/../include/Board.hpp:68:         holes += col_height(board[i]) - __builtin_popcount(board[i]);
	movzx	edi, WORD PTR 16[rbx]	#, MEM[(const value_type &)board_13(D) + 16]
# src/../include/Board.hpp:22:     return static_cast<height_t>(63 - __builtin_clzll(static_cast<unsigned long long>((col << 1) | 1)));
	xor	r13, 63	# tmp287,
# src/../include/Board.hpp:68:         holes += col_height(board[i]) - __builtin_popcount(board[i]);
	mov	DWORD PTR 40[rsp], eax	# %sfp,
# src/../include/Board.hpp:22:     return static_cast<height_t>(63 - __builtin_clzll(static_cast<unsigned long long>((col << 1) | 1)));
	lea	edx, 1[rdi+rdi]	# tmp293,
# src/../include/Board.hpp:22:     return static_cast<height_t>(63 - __builtin_clzll(static_cast<unsigned long long>((col << 1) | 1)));
	movsx	rdx, edx	# tmp294, tmp293
	bsr	r12, rdx	# tmp295, tmp294
# src/../include/Board.hpp:68:         holes += col_height(board[i]) - __builtin_popcount(board[i]);
	call	__popcountdi2@PLT	#
# src/../include/Board.hpp:68:         holes += col_height(board[i]) - __builtin_popcount(board[i]);
	movzx	edi, WORD PTR 18[rbx]	#, MEM[(const value_type &)board_13(D) + 18]
# src/../include/Board.hpp:22:     return static_cast<height_t>(63 - __builtin_clzll(static_cast<unsigned long long>((col << 1) | 1)));
	xor	r12, 63	# tmp295,
# src/../include/Board.hpp:68:         holes += col_height(board[i]) - __builtin_popcount(board[i]);
	mov	DWORD PTR 44[rsp], eax	# %sfp,
# src/../include/Board.hpp:22:     return static_cast<height_t>(63 - __builtin_clzll(static_cast<unsigned long long>((col << 1) | 1)));
	lea	ebx, 1[rdi+rdi]	# tmp301,
# src/../include/Board.hpp:68:         holes += col_height(board[i]) - __builtin_popcount(board[i]);
	call	__popcountdi2@PLT	#
# src/../include/Board.hpp:22:     return static_cast<height_t>(63 - __builtin_clzll(static_cast<unsigned long long>((col << 1) | 1)));
	mov	edi, 63	# tmp309,
	mov	r11, QWORD PTR 72[rsp]	# tmp239, %sfp
	mov	r10, QWORD PTR 64[rsp]	# tmp247, %sfp
	mov	esi, edi	# tmp308, tmp309
# src/../include/Board.hpp:22:     return static_cast<height_t>(63 - __builtin_clzll(static_cast<unsigned long long>((col << 1) | 1)));
	movsx	rbx, ebx	# tmp302, tmp301
# src/../include/Board.hpp:22:     return static_cast<height_t>(63 - __builtin_clzll(static_cast<unsigned long long>((col << 1) | 1)));
	mov	r9, QWORD PTR 56[rsp]	# tmp255, %sfp
	mov	r8, QWORD PTR 48[rsp]	# tmp263, %sfp
	sub	esi, r11d	# tmp308, tmp239
# src/../include/Board.hpp:22:     return static_cast<height_t>(63 - __builtin_clzll(static_cast<unsigned long long>((col << 1) | 1)));
	bsr	rbx, rbx	# tmp303, tmp302
# src/../include/Board.hpp:22:     return static_cast<height_t>(63 - __builtin_clzll(static_cast<unsigned long long>((col << 1) | 1)));
	mov	ecx, edi	# tmp332, tmp309
	mov	edx, edi	# tmp342, tmp309
	mov	r11d, esi	# tmp308, tmp308
	mov	esi, edi	# tmp312, tmp309
# src/../include/Board.hpp:22:     return static_cast<height_t>(63 - __builtin_clzll(static_cast<unsigned long long>((col << 1) | 1)));
	xor	rbx, 63	# tmp303,
# src/../include/Board.hpp:68:         holes += col_height(board[i]) - __builtin_popcount(board[i]);
	sub	r11w, WORD PTR 16[rsp]	# tmp311, %sfp
# src/../include/Board.hpp:22:     return static_cast<height_t>(63 - __builtin_clzll(static_cast<unsigned long long>((col << 1) | 1)));
	sub	esi, r10d	# tmp312, tmp247
	sub	ecx, r14d	# tmp332, tmp279
	sub	edx, r12d	# tmp342, tmp295
	mov	r10d, esi	# tmp312, tmp312
	mov	esi, edi	# tmp337, tmp309
# src/../include/Board.hpp:68:         holes += col_height(board[i]) - __builtin_popcount(board[i]);
	add	r11d, r10d	# tmp315, tmp312
# src/../include/Board.hpp:22:     return static_cast<height_t>(63 - __builtin_clzll(static_cast<unsigned long long>((col << 1) | 1)));
	mov	r10d, edi	# tmp317, tmp309
# src/../include/Board.hpp:68:         holes += col_height(board[i]) - __builtin_popcount(board[i]);
	sub	r11w, WORD PTR 20[rsp]	# tmp316, %sfp
# src/../include/Board.hpp:22:     return static_cast<height_t>(63 - __builtin_clzll(static_cast<unsigned long long>((col << 1) | 1)));
	sub	esi, r13d	# tmp337, tmp287
	sub	r10d, r9d	# tmp317, tmp255
# src/../include/Board.hpp:68:         holes += col_height(board[i]) - __builtin_popcount(board[i]);
	add	r11d, r10d	# tmp320, tmp317
# src/../include/Board.hpp:22:     return static_cast<height_t>(63 - __builtin_clzll(static_cast<unsigned long long>((col << 1) | 1)));
	mov	r10d, edi	# tmp322, tmp309
# src/../include/Board.hpp:68:         holes += col_height(board[i]) - __builtin_popcount(board[i]);
	sub	r11w, WORD PTR 24[rsp]	# tmp321, %sfp
# src/../include/Board.hpp:22:     return static_cast<height_t>(63 - __builtin_clzll(static_cast<unsigned long long>((col << 1) | 1)));
	sub	r10d, r8d	# tmp322, tmp263
# src/../include/Board.hpp:68:         holes += col_height(board[i]) - __builtin_popcount(board[i]);
	add	r11d, r10d	# tmp325, tmp322
# src/../include/Board.hpp:22:     return static_cast<height_t>(63 - __builtin_clzll(static_cast<unsigned long long>((col << 1) | 1)));
	mov	r10d, edi	# tmp327, tmp309
# src/../include/Board.hpp:68:         holes += col_height(board[i]) - __builtin_popcount(board[i]);
	sub	r11w, WORD PTR 28[rsp]	# tmp326, %sfp
# src/../include/Board.hpp:22:     return static_cast<height_t>(63 - __builtin_clzll(static_cast<unsigned long long>((col << 1) | 1)));
	sub	r10d, r15d	# tmp327, tmp271
# src/../include/Board.hpp:68:         holes += col_height(board[i]) - __builtin_popcount(board[i]);
	add	r11d, r10d	# tmp330, tmp327
# src/../include/Board.hpp:68:         holes += col_height(board[i]) - __builtin_popcount(board[i]);
	sub	r11w, WORD PTR 32[rsp]	# tmp331, %sfp
# src/../include/Board.hpp:68:         holes += col_height(board[i]) - __builtin_popcount(board[i]);
	add	ecx, r11d	# tmp335, tmp331
# src/../include/Board.hpp:68:         holes += col_height(board[i]) - __builtin_popcount(board[i]);
	sub	cx, WORD PTR 36[rsp]	# tmp336, %sfp
# src/../include/Board.hpp:68:         holes += col_height(board[i]) - __builtin_popcount(board[i]);
	add	ecx, esi	# tmp340, tmp337
# src/../include/Board.hpp:68:         holes += col_height(board[i]) - __builtin_popcount(board[i]);
	sub	cx, WORD PTR 40[rsp]	# tmp341, %sfp
# src/../include/Board.hpp:68:         holes += col_height(board[i]) - __builtin_popcount(board[i]);
	add	edx, ecx	# tmp345, tmp341
# src/../include/Board.hpp:22:     return static_cast<height_t>(63 - __builtin_clzll(static_cast<unsigned long long>((col << 1) | 1)));
	mov	ecx, edi	# tmp347, tmp309
# src/../include/Board.hpp:68:         holes += col_height(board[i]) - __builtin_popcount(board[i]);
	sub	dx, WORD PTR 44[rsp]	# tmp346, %sfp
# src/../include/Board.hpp:22:     return static_cast<height_t>(63 - __builtin_clzll(static_cast<unsigned long long>((col << 1) | 1)));
	sub	edi, ebp	# tmp352, tmp231
	sub	ecx, ebx	# tmp347, tmp303
# src/../include/Board.hpp:68:         holes += col_height(board[i]) - __builtin_popcount(board[i]);
	add	edx, ecx	# tmp350, tmp347
# src/../include/Board.hpp:68:         holes += col_height(board[i]) - __builtin_popcount(board[i]);
	sub	edx, eax	# tmp351, tmp306
# src/../include/Board.hpp:68:         holes += col_height(board[i]) - __builtin_popcount(board[i]);
	lea	eax, [rdx+rdi]	# tmp355,
# src/../include/Board.hpp:68:         holes += col_height(board[i]) - __builtin_popcount(board[i]);
	sub	ax, WORD PTR 12[rsp]	# holes, %sfp
# src/../include/Board.hpp:71: }
	add	rsp, 88	#,
	.cfi_def_cfa_offset 56
	pop	rbx	#
	.cfi_def_cfa_offset 48
	pop	rbp	#
	.cfi_def_cfa_offset 40
	pop	r12	#
	.cfi_def_cfa_offset 32
	pop	r13	#
	.cfi_def_cfa_offset 24
	pop	r14	#
	.cfi_def_cfa_offset 16
	pop	r15	#
	.cfi_def_cfa_offset 8
	ret	
	.cfi_endproc
.LFE10160:
	.size	_Z16getNumberOfHolesRKSt5arrayItLm10EE, .-_Z16getNumberOfHolesRKSt5arrayItLm10EE
	.p2align 4,,15
	.globl	_Z21getColumnsDifferencesRKSt5arrayItLm10EE
	.type	_Z21getColumnsDifferencesRKSt5arrayItLm10EE, @function
_Z21getColumnsDifferencesRKSt5arrayItLm10EE:
.LFB10161:
	.cfi_startproc
# src/../include/Board.hpp:78:         differences += sqrt(abs(col_height(board[i]) - col_height(board[i+1])));
	movzx	eax, WORD PTR 2[rdi]	# MEM[(const value_type &)board_20(D) + 2], MEM[(const value_type &)board_20(D) + 2]
	movzx	ecx, WORD PTR [rdi]	# MEM[(const value_type &)board_20(D)], MEM[(const value_type &)board_20(D)]
# src/../include/Board.hpp:22:     return static_cast<height_t>(63 - __builtin_clzll(static_cast<unsigned long long>((col << 1) | 1)));
	mov	edx, 63	# tmp258,
# /usr/include/c++/8/cmath:476:     { return __builtin_sqrt(__x); }
	pxor	xmm0, xmm0	# tmp266
# src/../include/Board.hpp:22:     return static_cast<height_t>(63 - __builtin_clzll(static_cast<unsigned long long>((col << 1) | 1)));
	mov	esi, edx	# tmp257, tmp258
# /usr/include/c++/8/cmath:476:     { return __builtin_sqrt(__x); }
	pxor	xmm1, xmm1	# tmp278
# src/../include/Board.hpp:22:     return static_cast<height_t>(63 - __builtin_clzll(static_cast<unsigned long long>((col << 1) | 1)));
	lea	eax, 1[rax+rax]	# tmp254,
	lea	ecx, 1[rcx+rcx]	# tmp249,
# src/../include/Board.hpp:22:     return static_cast<height_t>(63 - __builtin_clzll(static_cast<unsigned long long>((col << 1) | 1)));
	cdqe
	movsx	rcx, ecx	# tmp250, tmp249
	bsr	rax, rax	# tmp256, tmp255
	bsr	rcx, rcx	# tmp251, tmp250
	xor	rax, 63	# tmp256,
	xor	rcx, 63	# tmp251,
# src/../include/Board.hpp:22:     return static_cast<height_t>(63 - __builtin_clzll(static_cast<unsigned long long>((col << 1) | 1)));
	sub	esi, eax	# tmp257, tmp256
	mov	eax, edx	# tmp259, tmp258
	sub	eax, ecx	# tmp259, tmp251
# src/../include/Board.hpp:78:         differences += sqrt(abs(col_height(board[i]) - col_height(board[i+1])));
	movzx	esi, si	# _92, tmp257
# src/../include/Board.hpp:78:         differences += sqrt(abs(col_height(board[i]) - col_height(board[i+1])));
	movzx	eax, ax	# tmp261, tmp259
# src/../include/Board.hpp:78:         differences += sqrt(abs(col_height(board[i]) - col_height(board[i+1])));
	sub	eax, esi	# tmp262, _92
# src/../include/Board.hpp:78:         differences += sqrt(abs(col_height(board[i]) - col_height(board[i+1])));
	mov	ecx, eax	# tmp263, tmp262
	sar	ecx, 31	# tmp263,
	xor	eax, ecx	# tmp264, tmp263
	sub	eax, ecx	# tmp265, tmp263
# src/../include/Board.hpp:22:     return static_cast<height_t>(63 - __builtin_clzll(static_cast<unsigned long long>((col << 1) | 1)));
	mov	ecx, edx	# tmp272, tmp258
# /usr/include/c++/8/cmath:476:     { return __builtin_sqrt(__x); }
	cvtsi2sd	xmm0, eax	# tmp266, tmp265
# src/../include/Board.hpp:78:         differences += sqrt(abs(col_height(board[i]) - col_height(board[i+1])));
	movzx	eax, WORD PTR 4[rdi]	# MEM[(const value_type &)board_20(D) + 4], MEM[(const value_type &)board_20(D) + 4]
# src/../include/Board.hpp:22:     return static_cast<height_t>(63 - __builtin_clzll(static_cast<unsigned long long>((col << 1) | 1)));
	lea	eax, 1[rax+rax]	# tmp269,
# src/../include/Board.hpp:22:     return static_cast<height_t>(63 - __builtin_clzll(static_cast<unsigned long long>((col << 1) | 1)));
	cdqe
	bsr	rax, rax	# tmp271, tmp270
# /usr/include/c++/8/cmath:476:     { return __builtin_sqrt(__x); }
	sqrtsd	xmm0, xmm0	# _74, tmp266
# src/../include/Board.hpp:22:     return static_cast<height_t>(63 - __builtin_clzll(static_cast<unsigned long long>((col << 1) | 1)));
	xor	rax, 63	# tmp271,
# src/../include/Board.hpp:22:     return static_cast<height_t>(63 - __builtin_clzll(static_cast<unsigned long long>((col << 1) | 1)));
	sub	ecx, eax	# tmp272, tmp271
# src/../include/Board.hpp:78:         differences += sqrt(abs(col_height(board[i]) - col_height(board[i+1])));
	mov	eax, esi	# _92, _92
# src/../include/Board.hpp:78:         differences += sqrt(abs(col_height(board[i]) - col_height(board[i+1])));
	movzx	ecx, cx	# _51, tmp272
# src/../include/Board.hpp:78:         differences += sqrt(abs(col_height(board[i]) - col_height(board[i+1])));
	sub	eax, ecx	# _92, _51
# src/../include/Board.hpp:78:         differences += sqrt(abs(col_height(board[i]) - col_height(board[i+1])));
	mov	esi, eax	# tmp275, tmp274
	sar	esi, 31	# tmp275,
	xor	eax, esi	# tmp276, tmp275
	sub	eax, esi	# tmp277, tmp275
# src/../include/Board.hpp:22:     return static_cast<height_t>(63 - __builtin_clzll(static_cast<unsigned long long>((col << 1) | 1)));
	mov	esi, edx	# tmp288, tmp258
# /usr/include/c++/8/cmath:476:     { return __builtin_sqrt(__x); }
	cvtsi2sd	xmm1, eax	# tmp278, tmp277
# src/../include/Board.hpp:78:         differences += sqrt(abs(col_height(board[i]) - col_height(board[i+1])));
	cvttsd2si	eax, xmm0	# tmp280, _74
# /usr/include/c++/8/cmath:476:     { return __builtin_sqrt(__x); }
	pxor	xmm0, xmm0	# tmp294
	sqrtsd	xmm2, xmm1	# _47, tmp278
# src/../include/Board.hpp:78:         differences += sqrt(abs(col_height(board[i]) - col_height(board[i+1])));
	pxor	xmm1, xmm1	# tmp282
	movzx	eax, ax	# differences, tmp280
	cvtsi2sd	xmm1, eax	# tmp282, differences
# src/../include/Board.hpp:78:         differences += sqrt(abs(col_height(board[i]) - col_height(board[i+1])));
	movzx	eax, WORD PTR 6[rdi]	# MEM[(const value_type &)board_20(D) + 6], MEM[(const value_type &)board_20(D) + 6]
# src/../include/Board.hpp:22:     return static_cast<height_t>(63 - __builtin_clzll(static_cast<unsigned long long>((col << 1) | 1)));
	lea	eax, 1[rax+rax]	# tmp285,
# src/../include/Board.hpp:22:     return static_cast<height_t>(63 - __builtin_clzll(static_cast<unsigned long long>((col << 1) | 1)));
	cdqe
	bsr	rax, rax	# tmp287, tmp286
# src/../include/Board.hpp:78:         differences += sqrt(abs(col_height(board[i]) - col_height(board[i+1])));
	addsd	xmm1, xmm2	# _44, _47
# src/../include/Board.hpp:22:     return static_cast<height_t>(63 - __builtin_clzll(static_cast<unsigned long long>((col << 1) | 1)));
	xor	rax, 63	# tmp287,
# src/../include/Board.hpp:22:     return static_cast<height_t>(63 - __builtin_clzll(static_cast<unsigned long long>((col << 1) | 1)));
	sub	esi, eax	# tmp288, tmp287
# src/../include/Board.hpp:78:         differences += sqrt(abs(col_height(board[i]) - col_height(board[i+1])));
	mov	eax, ecx	# _51, _51
# src/../include/Board.hpp:78:         differences += sqrt(abs(col_height(board[i]) - col_height(board[i+1])));
	movzx	esi, si	# _108, tmp288
# src/../include/Board.hpp:78:         differences += sqrt(abs(col_height(board[i]) - col_height(board[i+1])));
	sub	eax, esi	# _51, _108
# src/../include/Board.hpp:78:         differences += sqrt(abs(col_height(board[i]) - col_height(board[i+1])));
	mov	ecx, eax	# tmp291, tmp290
	sar	ecx, 31	# tmp291,
	xor	eax, ecx	# tmp292, tmp291
	sub	eax, ecx	# tmp293, tmp291
# src/../include/Board.hpp:22:     return static_cast<height_t>(63 - __builtin_clzll(static_cast<unsigned long long>((col << 1) | 1)));
	mov	ecx, edx	# tmp304, tmp258
# /usr/include/c++/8/cmath:476:     { return __builtin_sqrt(__x); }
	cvtsi2sd	xmm0, eax	# tmp294, tmp293
# src/../include/Board.hpp:78:         differences += sqrt(abs(col_height(board[i]) - col_height(board[i+1])));
	cvttsd2si	eax, xmm1	# tmp296, _44
# /usr/include/c++/8/cmath:476:     { return __builtin_sqrt(__x); }
	pxor	xmm1, xmm1	# tmp310
	sqrtsd	xmm2, xmm0	# _112, tmp294
# src/../include/Board.hpp:78:         differences += sqrt(abs(col_height(board[i]) - col_height(board[i+1])));
	pxor	xmm0, xmm0	# tmp298
	movzx	eax, ax	# differences, tmp296
	cvtsi2sd	xmm0, eax	# tmp298, differences
# src/../include/Board.hpp:78:         differences += sqrt(abs(col_height(board[i]) - col_height(board[i+1])));
	movzx	eax, WORD PTR 8[rdi]	# MEM[(const value_type &)board_20(D) + 8], MEM[(const value_type &)board_20(D) + 8]
# src/../include/Board.hpp:22:     return static_cast<height_t>(63 - __builtin_clzll(static_cast<unsigned long long>((col << 1) | 1)));
	lea	eax, 1[rax+rax]	# tmp301,
# src/../include/Board.hpp:22:     return static_cast<height_t>(63 - __builtin_clzll(static_cast<unsigned long long>((col << 1) | 1)));
	cdqe
	bsr	rax, rax	# tmp303, tmp302
# src/../include/Board.hpp:78:         differences += sqrt(abs(col_height(board[i]) - col_height(board[i+1])));
	addsd	xmm0, xmm2	# _115, _112
# src/../include/Board.hpp:22:     return static_cast<height_t>(63 - __builtin_clzll(static_cast<unsigned long long>((col << 1) | 1)));
	xor	rax, 63	# tmp303,
# src/../include/Board.hpp:22:     return static_cast<height_t>(63 - __builtin_clzll(static_cast<unsigned long long>((col << 1) | 1)));
	sub	ecx, eax	# tmp304, tmp303
# src/../include/Board.hpp:78:         differences += sqrt(abs(col_height(board[i]) - col_height(board[i+1])));
	mov	eax, esi	# _108, _108
# src/../include/Board.hpp:78:         differences += sqrt(abs(col_height(board[i]) - col_height(board[i+1])));
	movzx	ecx, cx	# _135, tmp304
# src/../include/Board.hpp:78:         differences += sqrt(abs(col_height(board[i]) - col_height(board[i+1])));
	sub	eax, ecx	# _108, _135
# src/../include/Board.hpp:78:         differences += sqrt(abs(col_height(board[i]) - col_height(board[i+1])));
	mov	esi, eax	# tmp307, tmp306
	sar	esi, 31	# tmp307,
	xor	eax, esi	# tmp308, tmp307
	sub	eax, esi	# tmp309, tmp307
# src/../include/Board.hpp:22:     return static_cast<height_t>(63 - __builtin_clzll(static_cast<unsigned long long>((col << 1) | 1)));
	mov	esi, edx	# tmp320, tmp258
# /usr/include/c++/8/cmath:476:     { return __builtin_sqrt(__x); }
	cvtsi2sd	xmm1, eax	# tmp310, tmp309
# src/../include/Board.hpp:78:         differences += sqrt(abs(col_height(board[i]) - col_height(board[i+1])));
	cvttsd2si	eax, xmm0	# tmp312, _115
# /usr/include/c++/8/cmath:476:     { return __builtin_sqrt(__x); }
	pxor	xmm0, xmm0	# tmp326
	sqrtsd	xmm2, xmm1	# _139, tmp310
# src/../include/Board.hpp:78:         differences += sqrt(abs(col_height(board[i]) - col_height(board[i+1])));
	pxor	xmm1, xmm1	# tmp314
	movzx	eax, ax	# differences, tmp312
	cvtsi2sd	xmm1, eax	# tmp314, differences
# src/../include/Board.hpp:78:         differences += sqrt(abs(col_height(board[i]) - col_height(board[i+1])));
	movzx	eax, WORD PTR 10[rdi]	# MEM[(const value_type &)board_20(D) + 10], MEM[(const value_type &)board_20(D) + 10]
# src/../include/Board.hpp:22:     return static_cast<height_t>(63 - __builtin_clzll(static_cast<unsigned long long>((col << 1) | 1)));
	lea	eax, 1[rax+rax]	# tmp317,
# src/../include/Board.hpp:22:     return static_cast<height_t>(63 - __builtin_clzll(static_cast<unsigned long long>((col << 1) | 1)));
	cdqe
	bsr	rax, rax	# tmp319, tmp318
# src/../include/Board.hpp:78:         differences += sqrt(abs(col_height(board[i]) - col_height(board[i+1])));
	addsd	xmm1, xmm2	# _142, _139
# src/../include/Board.hpp:22:     return static_cast<height_t>(63 - __builtin_clzll(static_cast<unsigned long long>((col << 1) | 1)));
	xor	rax, 63	# tmp319,
# src/../include/Board.hpp:22:     return static_cast<height_t>(63 - __builtin_clzll(static_cast<unsigned long long>((col << 1) | 1)));
	sub	esi, eax	# tmp320, tmp319
# src/../include/Board.hpp:78:         differences += sqrt(abs(col_height(board[i]) - col_height(board[i+1])));
	mov	eax, ecx	# _135, _135
# src/../include/Board.hpp:78:         differences += sqrt(abs(col_height(board[i]) - col_height(board[i+1])));
	movzx	esi, si	# _162, tmp320
# src/../include/Board.hpp:78:         differences += sqrt(abs(col_height(board[i]) - col_height(board[i+1])));
	sub	eax, esi	# _135, _162
# src/../include/Board.hpp:78:         differences += sqrt(abs(col_height(board[i]) - col_height(board[i+1])));
	mov	ecx, eax	# tmp323, tmp322
	sar	ecx, 31	# tmp323,
	xor	eax, ecx	# tmp324, tmp323
	sub	eax, ecx	# tmp325, tmp323
# src/../include/Board.hpp:22:     return static_cast<height_t>(63 - __builtin_clzll(static_cast<unsigned long long>((col << 1) | 1)));
	mov	ecx, edx	# tmp336, tmp258
# /usr/include/c++/8/cmath:476:     { return __builtin_sqrt(__x); }
	cvtsi2sd	xmm0, eax	# tmp326, tmp325
# src/../include/Board.hpp:78:         differences += sqrt(abs(col_height(board[i]) - col_height(board[i+1])));
	cvttsd2si	eax, xmm1	# tmp328, _142
# /usr/include/c++/8/cmath:476:     { return __builtin_sqrt(__x); }
	pxor	xmm1, xmm1	# tmp342
	sqrtsd	xmm2, xmm0	# _166, tmp326
# src/../include/Board.hpp:78:         differences += sqrt(abs(col_height(board[i]) - col_height(board[i+1])));
	pxor	xmm0, xmm0	# tmp330
	movzx	eax, ax	# differences, tmp328
	cvtsi2sd	xmm0, eax	# tmp330, differences
# src/../include/Board.hpp:78:         differences += sqrt(abs(col_height(board[i]) - col_height(board[i+1])));
	movzx	eax, WORD PTR 12[rdi]	# MEM[(const value_type &)board_20(D) + 12], MEM[(const value_type &)board_20(D) + 12]
# src/../include/Board.hpp:22:     return static_cast<height_t>(63 - __builtin_clzll(static_cast<unsigned long long>((col << 1) | 1)));
	lea	eax, 1[rax+rax]	# tmp333,
# src/../include/Board.hpp:22:     return static_cast<height_t>(63 - __builtin_clzll(static_cast<unsigned long long>((col << 1) | 1)));
	cdqe
	bsr	rax, rax	# tmp335, tmp334
# src/../include/Board.hpp:78:         differences += sqrt(abs(col_height(board[i]) - col_height(board[i+1])));
	addsd	xmm0, xmm2	# _169, _166
# src/../include/Board.hpp:22:     return static_cast<height_t>(63 - __builtin_clzll(static_cast<unsigned long long>((col << 1) | 1)));
	xor	rax, 63	# tmp335,
# src/../include/Board.hpp:22:     return static_cast<height_t>(63 - __builtin_clzll(static_cast<unsigned long long>((col << 1) | 1)));
	sub	ecx, eax	# tmp336, tmp335
# src/../include/Board.hpp:78:         differences += sqrt(abs(col_height(board[i]) - col_height(board[i+1])));
	mov	eax, esi	# _162, _162
# src/../include/Board.hpp:78:         differences += sqrt(abs(col_height(board[i]) - col_height(board[i+1])));
	movzx	ecx, cx	# _189, tmp336
# src/../include/Board.hpp:78:         differences += sqrt(abs(col_height(board[i]) - col_height(board[i+1])));
	sub	eax, ecx	# _162, _189
# src/../include/Board.hpp:78:         differences += sqrt(abs(col_height(board[i]) - col_height(board[i+1])));
	mov	esi, eax	# tmp339, tmp338
	sar	esi, 31	# tmp339,
	xor	eax, esi	# tmp340, tmp339
	sub	eax, esi	# tmp341, tmp339
# src/../include/Board.hpp:22:     return static_cast<height_t>(63 - __builtin_clzll(static_cast<unsigned long long>((col << 1) | 1)));
	mov	esi, edx	# tmp352, tmp258
# /usr/include/c++/8/cmath:476:     { return __builtin_sqrt(__x); }
	cvtsi2sd	xmm1, eax	# tmp342, tmp341
# src/../include/Board.hpp:78:         differences += sqrt(abs(col_height(board[i]) - col_height(board[i+1])));
	cvttsd2si	eax, xmm0	# tmp344, _169
# /usr/include/c++/8/cmath:476:     { return __builtin_sqrt(__x); }
	pxor	xmm0, xmm0	# tmp358
	sqrtsd	xmm2, xmm1	# _193, tmp342
# src/../include/Board.hpp:78:         differences += sqrt(abs(col_height(board[i]) - col_height(board[i+1])));
	pxor	xmm1, xmm1	# tmp346
	movzx	eax, ax	# differences, tmp344
	cvtsi2sd	xmm1, eax	# tmp346, differences
# src/../include/Board.hpp:78:         differences += sqrt(abs(col_height(board[i]) - col_height(board[i+1])));
	movzx	eax, WORD PTR 14[rdi]	# MEM[(const value_type &)board_20(D) + 14], MEM[(const value_type &)board_20(D) + 14]
# src/../include/Board.hpp:22:     return static_cast<height_t>(63 - __builtin_clzll(static_cast<unsigned long long>((col << 1) | 1)));
	lea	eax, 1[rax+rax]	# tmp349,
# src/../include/Board.hpp:22:     return static_cast<height_t>(63 - __builtin_clzll(static_cast<unsigned long long>((col << 1) | 1)));
	cdqe
	bsr	rax, rax	# tmp351, tmp350
# src/../include/Board.hpp:78:         differences += sqrt(abs(col_height(board[i]) - col_height(board[i+1])));
	addsd	xmm1, xmm2	# _196, _193
# src/../include/Board.hpp:22:     return static_cast<height_t>(63 - __builtin_clzll(static_cast<unsigned long long>((col << 1) | 1)));
	xor	rax, 63	# tmp351,
# src/../include/Board.hpp:22:     return static_cast<height_t>(63 - __builtin_clzll(static_cast<unsigned long long>((col << 1) | 1)));
	sub	esi, eax	# tmp352, tmp351
# src/../include/Board.hpp:78:         differences += sqrt(abs(col_height(board[i]) - col_height(board[i+1])));
	mov	eax, ecx	# _189, _189
# src/../include/Board.hpp:78:         differences += sqrt(abs(col_height(board[i]) - col_height(board[i+1])));
	movzx	esi, si	# _216, tmp352
# src/../include/Board.hpp:78:         differences += sqrt(abs(col_height(board[i]) - col_height(board[i+1])));
	sub	eax, esi	# _189, _216
# src/../include/Board.hpp:78:         differences += sqrt(abs(col_height(board[i]) - col_height(board[i+1])));
	mov	ecx, eax	# tmp355, tmp354
	sar	ecx, 31	# tmp355,
	xor	eax, ecx	# tmp356, tmp355
	sub	eax, ecx	# tmp357, tmp355
# src/../include/Board.hpp:22:     return static_cast<height_t>(63 - __builtin_clzll(static_cast<unsigned long long>((col << 1) | 1)));
	mov	ecx, edx	# tmp368, tmp258
# /usr/include/c++/8/cmath:476:     { return __builtin_sqrt(__x); }
	cvtsi2sd	xmm0, eax	# tmp358, tmp357
# src/../include/Board.hpp:78:         differences += sqrt(abs(col_height(board[i]) - col_height(board[i+1])));
	cvttsd2si	eax, xmm1	# tmp360, _196
# /usr/include/c++/8/cmath:476:     { return __builtin_sqrt(__x); }
	pxor	xmm1, xmm1	# tmp374
	sqrtsd	xmm2, xmm0	# _220, tmp358
# src/../include/Board.hpp:78:         differences += sqrt(abs(col_height(board[i]) - col_height(board[i+1])));
	pxor	xmm0, xmm0	# tmp362
	movzx	eax, ax	# differences, tmp360
	cvtsi2sd	xmm0, eax	# tmp362, differences
# src/../include/Board.hpp:78:         differences += sqrt(abs(col_height(board[i]) - col_height(board[i+1])));
	movzx	eax, WORD PTR 16[rdi]	# MEM[(const value_type &)board_20(D) + 16], MEM[(const value_type &)board_20(D) + 16]
# src/../include/Board.hpp:22:     return static_cast<height_t>(63 - __builtin_clzll(static_cast<unsigned long long>((col << 1) | 1)));
	lea	eax, 1[rax+rax]	# tmp365,
# src/../include/Board.hpp:22:     return static_cast<height_t>(63 - __builtin_clzll(static_cast<unsigned long long>((col << 1) | 1)));
	cdqe
	bsr	rax, rax	# tmp367, tmp366
# src/../include/Board.hpp:78:         differences += sqrt(abs(col_height(board[i]) - col_height(board[i+1])));
	addsd	xmm0, xmm2	# _223, _220
# src/../include/Board.hpp:22:     return static_cast<height_t>(63 - __builtin_clzll(static_cast<unsigned long long>((col << 1) | 1)));
	xor	rax, 63	# tmp367,
# src/../include/Board.hpp:22:     return static_cast<height_t>(63 - __builtin_clzll(static_cast<unsigned long long>((col << 1) | 1)));
	sub	ecx, eax	# tmp368, tmp367
# src/../include/Board.hpp:78:         differences += sqrt(abs(col_height(board[i]) - col_height(board[i+1])));
	mov	eax, esi	# _216, _216
# src/../include/Board.hpp:78:         differences += sqrt(abs(col_height(board[i]) - col_height(board[i+1])));
	movzx	ecx, cx	# _243, tmp368
# src/../include/Board.hpp:78:         differences += sqrt(abs(col_height(board[i]) - col_height(board[i+1])));
	sub	eax, ecx	# _216, _243
# src/../include/Board.hpp:78:         differences += sqrt(abs(col_height(board[i]) - col_height(board[i+1])));
	mov	esi, eax	# tmp371, tmp370
	sar	esi, 31	# tmp371,
	xor	eax, esi	# tmp372, tmp371
	sub	eax, esi	# tmp373, tmp371
# /usr/include/c++/8/cmath:476:     { return __builtin_sqrt(__x); }
	cvtsi2sd	xmm1, eax	# tmp374, tmp373
# src/../include/Board.hpp:78:         differences += sqrt(abs(col_height(board[i]) - col_height(board[i+1])));
	cvttsd2si	eax, xmm0	# tmp376, _223
# /usr/include/c++/8/cmath:476:     { return __builtin_sqrt(__x); }
	pxor	xmm0, xmm0	# tmp391
	sqrtsd	xmm2, xmm1	# _247, tmp374
# src/../include/Board.hpp:78:         differences += sqrt(abs(col_height(board[i]) - col_height(board[i+1])));
	pxor	xmm1, xmm1	# tmp378
	movzx	eax, ax	# differences, tmp376
	cvtsi2sd	xmm1, eax	# tmp378, differences
# src/../include/Board.hpp:78:         differences += sqrt(abs(col_height(board[i]) - col_height(board[i+1])));
	movzx	eax, WORD PTR 18[rdi]	# MEM[(const value_type &)board_20(D) + 18], MEM[(const value_type &)board_20(D) + 18]
# src/../include/Board.hpp:22:     return static_cast<height_t>(63 - __builtin_clzll(static_cast<unsigned long long>((col << 1) | 1)));
	lea	eax, 1[rax+rax]	# tmp381,
# src/../include/Board.hpp:22:     return static_cast<height_t>(63 - __builtin_clzll(static_cast<unsigned long long>((col << 1) | 1)));
	cdqe
	bsr	rax, rax	# tmp383, tmp382
# src/../include/Board.hpp:78:         differences += sqrt(abs(col_height(board[i]) - col_height(board[i+1])));
	addsd	xmm1, xmm2	# _250, _247
# src/../include/Board.hpp:22:     return static_cast<height_t>(63 - __builtin_clzll(static_cast<unsigned long long>((col << 1) | 1)));
	xor	rax, 63	# tmp383,
# src/../include/Board.hpp:22:     return static_cast<height_t>(63 - __builtin_clzll(static_cast<unsigned long long>((col << 1) | 1)));
	sub	edx, eax	# tmp384, tmp383
# src/../include/Board.hpp:78:         differences += sqrt(abs(col_height(board[i]) - col_height(board[i+1])));
	movzx	edx, dx	# tmp386, tmp384
# src/../include/Board.hpp:78:         differences += sqrt(abs(col_height(board[i]) - col_height(board[i+1])));
	sub	ecx, edx	# tmp387, tmp386
# src/../include/Board.hpp:78:         differences += sqrt(abs(col_height(board[i]) - col_height(board[i+1])));
	mov	eax, ecx	# tmp388, tmp387
	sar	eax, 31	# tmp388,
	xor	ecx, eax	# tmp389, tmp388
	sub	ecx, eax	# tmp390, tmp388
# src/../include/Board.hpp:78:         differences += sqrt(abs(col_height(board[i]) - col_height(board[i+1])));
	cvttsd2si	eax, xmm1	# tmp393, _250
# /usr/include/c++/8/cmath:476:     { return __builtin_sqrt(__x); }
	cvtsi2sd	xmm0, ecx	# tmp391, tmp390
# src/../include/Board.hpp:78:         differences += sqrt(abs(col_height(board[i]) - col_height(board[i+1])));
	movzx	eax, ax	# differences, tmp393
# /usr/include/c++/8/cmath:476:     { return __builtin_sqrt(__x); }
	sqrtsd	xmm2, xmm0	# _22, tmp391
# src/../include/Board.hpp:78:         differences += sqrt(abs(col_height(board[i]) - col_height(board[i+1])));
	pxor	xmm0, xmm0	# tmp395
	cvtsi2sd	xmm0, eax	# tmp395, differences
	addsd	xmm0, xmm2	# _15, _22
	cvttsd2si	eax, xmm0	# tmp397, _15
# src/../include/Board.hpp:81: }
	ret	
	.cfi_endproc
.LFE10161:
	.size	_Z21getColumnsDifferencesRKSt5arrayItLm10EE, .-_Z21getColumnsDifferencesRKSt5arrayItLm10EE
	.p2align 4,,15
	.globl	_Z11getWellSumsRKSt5arrayItLm10EE
	.type	_Z11getWellSumsRKSt5arrayItLm10EE, @function
_Z11getWellSumsRKSt5arrayItLm10EE:
.LFB10162:
	.cfi_startproc
# src/../include/Board.hpp:86: }
	pxor	xmm0, xmm0	#
	ret	
	.cfi_endproc
.LFE10162:
	.size	_Z11getWellSumsRKSt5arrayItLm10EE, .-_Z11getWellSumsRKSt5arrayItLm10EE
	.p2align 4,,15
	.globl	_Z13destroy_linesRSt5arrayItLm10EE
	.type	_Z13destroy_linesRSt5arrayItLm10EE, @function
_Z13destroy_linesRSt5arrayItLm10EE:
.LFB10166:
	.cfi_startproc
	push	rbp	#
	.cfi_def_cfa_offset 16
	.cfi_offset 6, -16
	mov	rbp, rdi	# board, board
	push	rbx	#
	.cfi_def_cfa_offset 24
	.cfi_offset 3, -24
	sub	rsp, 8	#,
	.cfi_def_cfa_offset 32
	movdqu	xmm0, XMMWORD PTR 2[rdi]	# tmp146, MEM[(value_type &)board_16(D) + 2]
	movdqu	xmm2, XMMWORD PTR 2[rdi]	# tmp198, MEM[(value_type &)board_16(D) + 2]
	movzx	ebx, WORD PTR [rdi]	# MEM[(value_type &)board_16(D)], MEM[(value_type &)board_16(D)]
	and	bx, WORD PTR 18[rdi]	# MEM[(value_type &)board_16(D)], MEM[(value_type &)board_16(D)]
	psrldq	xmm0, 8	# tmp146,
	mov	edx, ebx	# _50, MEM[(value_type &)board_16(D)]
	pand	xmm0, xmm2	# vect_mask_19.182, tmp198
	movdqa	xmm1, xmm0	# tmp147, vect_mask_19.182
	psrldq	xmm1, 4	# tmp147,
	pand	xmm0, xmm1	# vect_mask_19.182, tmp147
	movdqa	xmm1, xmm0	# tmp148, vect_mask_19.182
	psrldq	xmm1, 2	# tmp148,
# src/../include/Board.hpp:118:         mask &= board[i];
	pand	xmm0, xmm1	# vect_mask_19.182, tmp148
	pextrw	ebx, xmm0, 0	# stmp_mask_19.181, vect_mask_19.182,
	and	ebx, edx	# mask, _50
# src/../include/Board.hpp:121:     uint8_t destroyed = __builtin_popcount(mask);
	movzx	edi, bx	# mask, mask
# src/../include/Board.hpp:123:     mask = ~mask;
	not	ebx	# mask
# src/../include/Board.hpp:121:     uint8_t destroyed = __builtin_popcount(mask);
	call	__popcountdi2@PLT	#
# src/../include/Board.hpp:127:         board[i] = (height_t)_pext_u32(board[i], mask);
	movzx	ecx, WORD PTR 0[rbp]	# MEM[(value_type &)board_16(D)], MEM[(value_type &)board_16(D)]
	movzx	edx, bx	# _53, mask
# /usr/lib/gcc/x86_64-linux-gnu/8/include/bmi2intrin.h:55:   return __builtin_ia32_pext_si (__X, __Y);
	pext	ecx, ecx, edx	# tmp156, MEM[(value_type &)board_16(D)], _53
# src/../include/Board.hpp:127:         board[i] = (height_t)_pext_u32(board[i], mask);
	mov	WORD PTR 0[rbp], cx	# MEM[(value_type &)board_16(D)], tmp156
# src/../include/Board.hpp:127:         board[i] = (height_t)_pext_u32(board[i], mask);
	movzx	ecx, WORD PTR 2[rbp]	# MEM[(value_type &)board_16(D) + 2], MEM[(value_type &)board_16(D) + 2]
# /usr/lib/gcc/x86_64-linux-gnu/8/include/bmi2intrin.h:55:   return __builtin_ia32_pext_si (__X, __Y);
	pext	ecx, ecx, edx	# tmp160, MEM[(value_type &)board_16(D) + 2], _53
# src/../include/Board.hpp:127:         board[i] = (height_t)_pext_u32(board[i], mask);
	mov	WORD PTR 2[rbp], cx	# MEM[(value_type &)board_16(D) + 2], tmp160
# src/../include/Board.hpp:127:         board[i] = (height_t)_pext_u32(board[i], mask);
	movzx	ecx, WORD PTR 4[rbp]	# MEM[(value_type &)board_16(D) + 4], MEM[(value_type &)board_16(D) + 4]
# /usr/lib/gcc/x86_64-linux-gnu/8/include/bmi2intrin.h:55:   return __builtin_ia32_pext_si (__X, __Y);
	pext	ecx, ecx, edx	# tmp164, MEM[(value_type &)board_16(D) + 4], _53
# src/../include/Board.hpp:127:         board[i] = (height_t)_pext_u32(board[i], mask);
	mov	WORD PTR 4[rbp], cx	# MEM[(value_type &)board_16(D) + 4], tmp164
# src/../include/Board.hpp:127:         board[i] = (height_t)_pext_u32(board[i], mask);
	movzx	ecx, WORD PTR 6[rbp]	# MEM[(value_type &)board_16(D) + 6], MEM[(value_type &)board_16(D) + 6]
# /usr/lib/gcc/x86_64-linux-gnu/8/include/bmi2intrin.h:55:   return __builtin_ia32_pext_si (__X, __Y);
	pext	ecx, ecx, edx	# tmp168, MEM[(value_type &)board_16(D) + 6], _53
# src/../include/Board.hpp:127:         board[i] = (height_t)_pext_u32(board[i], mask);
	mov	WORD PTR 6[rbp], cx	# MEM[(value_type &)board_16(D) + 6], tmp168
# src/../include/Board.hpp:127:         board[i] = (height_t)_pext_u32(board[i], mask);
	movzx	ecx, WORD PTR 8[rbp]	# MEM[(value_type &)board_16(D) + 8], MEM[(value_type &)board_16(D) + 8]
# /usr/lib/gcc/x86_64-linux-gnu/8/include/bmi2intrin.h:55:   return __builtin_ia32_pext_si (__X, __Y);
	pext	ecx, ecx, edx	# tmp172, MEM[(value_type &)board_16(D) + 8], _53
# src/../include/Board.hpp:127:         board[i] = (height_t)_pext_u32(board[i], mask);
	mov	WORD PTR 8[rbp], cx	# MEM[(value_type &)board_16(D) + 8], tmp172
# src/../include/Board.hpp:127:         board[i] = (height_t)_pext_u32(board[i], mask);
	movzx	ecx, WORD PTR 10[rbp]	# MEM[(value_type &)board_16(D) + 10], MEM[(value_type &)board_16(D) + 10]
# /usr/lib/gcc/x86_64-linux-gnu/8/include/bmi2intrin.h:55:   return __builtin_ia32_pext_si (__X, __Y);
	pext	ecx, ecx, edx	# tmp176, MEM[(value_type &)board_16(D) + 10], _53
# src/../include/Board.hpp:127:         board[i] = (height_t)_pext_u32(board[i], mask);
	mov	WORD PTR 10[rbp], cx	# MEM[(value_type &)board_16(D) + 10], tmp176
# src/../include/Board.hpp:127:         board[i] = (height_t)_pext_u32(board[i], mask);
	movzx	ecx, WORD PTR 12[rbp]	# MEM[(value_type &)board_16(D) + 12], MEM[(value_type &)board_16(D) + 12]
# /usr/lib/gcc/x86_64-linux-gnu/8/include/bmi2intrin.h:55:   return __builtin_ia32_pext_si (__X, __Y);
	pext	ecx, ecx, edx	# tmp180, MEM[(value_type &)board_16(D) + 12], _53
# src/../include/Board.hpp:127:         board[i] = (height_t)_pext_u32(board[i], mask);
	mov	WORD PTR 12[rbp], cx	# MEM[(value_type &)board_16(D) + 12], tmp180
# src/../include/Board.hpp:127:         board[i] = (height_t)_pext_u32(board[i], mask);
	movzx	ecx, WORD PTR 14[rbp]	# MEM[(value_type &)board_16(D) + 14], MEM[(value_type &)board_16(D) + 14]
# /usr/lib/gcc/x86_64-linux-gnu/8/include/bmi2intrin.h:55:   return __builtin_ia32_pext_si (__X, __Y);
	pext	ecx, ecx, edx	# tmp184, MEM[(value_type &)board_16(D) + 14], _53
# src/../include/Board.hpp:127:         board[i] = (height_t)_pext_u32(board[i], mask);
	mov	WORD PTR 14[rbp], cx	# MEM[(value_type &)board_16(D) + 14], tmp184
# src/../include/Board.hpp:127:         board[i] = (height_t)_pext_u32(board[i], mask);
	movzx	ecx, WORD PTR 16[rbp]	# MEM[(value_type &)board_16(D) + 16], MEM[(value_type &)board_16(D) + 16]
# /usr/lib/gcc/x86_64-linux-gnu/8/include/bmi2intrin.h:55:   return __builtin_ia32_pext_si (__X, __Y);
	pext	ecx, ecx, edx	# tmp188, MEM[(value_type &)board_16(D) + 16], _53
# src/../include/Board.hpp:127:         board[i] = (height_t)_pext_u32(board[i], mask);
	mov	WORD PTR 16[rbp], cx	# MEM[(value_type &)board_16(D) + 16], tmp188
# src/../include/Board.hpp:127:         board[i] = (height_t)_pext_u32(board[i], mask);
	movzx	ecx, WORD PTR 18[rbp]	# MEM[(value_type &)board_16(D) + 18], MEM[(value_type &)board_16(D) + 18]
# /usr/lib/gcc/x86_64-linux-gnu/8/include/bmi2intrin.h:55:   return __builtin_ia32_pext_si (__X, __Y);
	pext	edx, ecx, edx	# tmp192, MEM[(value_type &)board_16(D) + 18], _53
# src/../include/Board.hpp:127:         board[i] = (height_t)_pext_u32(board[i], mask);
	mov	WORD PTR 18[rbp], dx	# MEM[(value_type &)board_16(D) + 18], tmp192
# src/../include/Board.hpp:131: }
	add	rsp, 8	#,
	.cfi_def_cfa_offset 24
	pop	rbx	#
	.cfi_def_cfa_offset 16
	pop	rbp	#
	.cfi_def_cfa_offset 8
	ret	
	.cfi_endproc
.LFE10166:
	.size	_Z13destroy_linesRSt5arrayItLm10EE, .-_Z13destroy_linesRSt5arrayItLm10EE
	.p2align 4,,15
	.globl	_Z22destroy_lines_internetRSt5arrayItLm10EEt
	.type	_Z22destroy_lines_internetRSt5arrayItLm10EEt, @function
_Z22destroy_lines_internetRSt5arrayItLm10EEt:
.LFB10168:
	.cfi_startproc
# src/../include/Board.hpp:138:         board[i] = static_cast<height_t>(_pext_u32(board[i], mask));
	movzx	eax, WORD PTR [rdi]	# MEM[(value_type &)board_11(D)], MEM[(value_type &)board_11(D)]
# src/../include/Board.hpp:135:     mask =~ mask;
	not	esi	# mask
	movzx	esi, si	# _25, mask
# /usr/lib/gcc/x86_64-linux-gnu/8/include/bmi2intrin.h:55:   return __builtin_ia32_pext_si (__X, __Y);
	pext	eax, eax, esi	# tmp133, MEM[(value_type &)board_11(D)], _25
# src/../include/Board.hpp:138:         board[i] = static_cast<height_t>(_pext_u32(board[i], mask));
	mov	WORD PTR [rdi], ax	# MEM[(value_type &)board_11(D)], tmp133
# src/../include/Board.hpp:138:         board[i] = static_cast<height_t>(_pext_u32(board[i], mask));
	movzx	eax, WORD PTR 2[rdi]	# MEM[(value_type &)board_11(D) + 2], MEM[(value_type &)board_11(D) + 2]
# /usr/lib/gcc/x86_64-linux-gnu/8/include/bmi2intrin.h:55:   return __builtin_ia32_pext_si (__X, __Y);
	pext	eax, eax, esi	# tmp137, MEM[(value_type &)board_11(D) + 2], _25
# src/../include/Board.hpp:138:         board[i] = static_cast<height_t>(_pext_u32(board[i], mask));
	mov	WORD PTR 2[rdi], ax	# MEM[(value_type &)board_11(D) + 2], tmp137
# src/../include/Board.hpp:138:         board[i] = static_cast<height_t>(_pext_u32(board[i], mask));
	movzx	eax, WORD PTR 4[rdi]	# MEM[(value_type &)board_11(D) + 4], MEM[(value_type &)board_11(D) + 4]
# /usr/lib/gcc/x86_64-linux-gnu/8/include/bmi2intrin.h:55:   return __builtin_ia32_pext_si (__X, __Y);
	pext	eax, eax, esi	# tmp141, MEM[(value_type &)board_11(D) + 4], _25
# src/../include/Board.hpp:138:         board[i] = static_cast<height_t>(_pext_u32(board[i], mask));
	mov	WORD PTR 4[rdi], ax	# MEM[(value_type &)board_11(D) + 4], tmp141
# src/../include/Board.hpp:138:         board[i] = static_cast<height_t>(_pext_u32(board[i], mask));
	movzx	eax, WORD PTR 6[rdi]	# MEM[(value_type &)board_11(D) + 6], MEM[(value_type &)board_11(D) + 6]
# /usr/lib/gcc/x86_64-linux-gnu/8/include/bmi2intrin.h:55:   return __builtin_ia32_pext_si (__X, __Y);
	pext	eax, eax, esi	# tmp145, MEM[(value_type &)board_11(D) + 6], _25
# src/../include/Board.hpp:138:         board[i] = static_cast<height_t>(_pext_u32(board[i], mask));
	mov	WORD PTR 6[rdi], ax	# MEM[(value_type &)board_11(D) + 6], tmp145
# src/../include/Board.hpp:138:         board[i] = static_cast<height_t>(_pext_u32(board[i], mask));
	movzx	eax, WORD PTR 8[rdi]	# MEM[(value_type &)board_11(D) + 8], MEM[(value_type &)board_11(D) + 8]
# /usr/lib/gcc/x86_64-linux-gnu/8/include/bmi2intrin.h:55:   return __builtin_ia32_pext_si (__X, __Y);
	pext	eax, eax, esi	# tmp149, MEM[(value_type &)board_11(D) + 8], _25
# src/../include/Board.hpp:138:         board[i] = static_cast<height_t>(_pext_u32(board[i], mask));
	mov	WORD PTR 8[rdi], ax	# MEM[(value_type &)board_11(D) + 8], tmp149
# src/../include/Board.hpp:138:         board[i] = static_cast<height_t>(_pext_u32(board[i], mask));
	movzx	eax, WORD PTR 10[rdi]	# MEM[(value_type &)board_11(D) + 10], MEM[(value_type &)board_11(D) + 10]
# /usr/lib/gcc/x86_64-linux-gnu/8/include/bmi2intrin.h:55:   return __builtin_ia32_pext_si (__X, __Y);
	pext	eax, eax, esi	# tmp153, MEM[(value_type &)board_11(D) + 10], _25
# src/../include/Board.hpp:138:         board[i] = static_cast<height_t>(_pext_u32(board[i], mask));
	mov	WORD PTR 10[rdi], ax	# MEM[(value_type &)board_11(D) + 10], tmp153
# src/../include/Board.hpp:138:         board[i] = static_cast<height_t>(_pext_u32(board[i], mask));
	movzx	eax, WORD PTR 12[rdi]	# MEM[(value_type &)board_11(D) + 12], MEM[(value_type &)board_11(D) + 12]
# /usr/lib/gcc/x86_64-linux-gnu/8/include/bmi2intrin.h:55:   return __builtin_ia32_pext_si (__X, __Y);
	pext	eax, eax, esi	# tmp157, MEM[(value_type &)board_11(D) + 12], _25
# src/../include/Board.hpp:138:         board[i] = static_cast<height_t>(_pext_u32(board[i], mask));
	mov	WORD PTR 12[rdi], ax	# MEM[(value_type &)board_11(D) + 12], tmp157
# src/../include/Board.hpp:138:         board[i] = static_cast<height_t>(_pext_u32(board[i], mask));
	movzx	eax, WORD PTR 14[rdi]	# MEM[(value_type &)board_11(D) + 14], MEM[(value_type &)board_11(D) + 14]
# /usr/lib/gcc/x86_64-linux-gnu/8/include/bmi2intrin.h:55:   return __builtin_ia32_pext_si (__X, __Y);
	pext	eax, eax, esi	# tmp161, MEM[(value_type &)board_11(D) + 14], _25
# src/../include/Board.hpp:138:         board[i] = static_cast<height_t>(_pext_u32(board[i], mask));
	mov	WORD PTR 14[rdi], ax	# MEM[(value_type &)board_11(D) + 14], tmp161
# src/../include/Board.hpp:138:         board[i] = static_cast<height_t>(_pext_u32(board[i], mask));
	movzx	eax, WORD PTR 16[rdi]	# MEM[(value_type &)board_11(D) + 16], MEM[(value_type &)board_11(D) + 16]
# /usr/lib/gcc/x86_64-linux-gnu/8/include/bmi2intrin.h:55:   return __builtin_ia32_pext_si (__X, __Y);
	pext	eax, eax, esi	# tmp165, MEM[(value_type &)board_11(D) + 16], _25
# src/../include/Board.hpp:138:         board[i] = static_cast<height_t>(_pext_u32(board[i], mask));
	mov	WORD PTR 16[rdi], ax	# MEM[(value_type &)board_11(D) + 16], tmp165
# src/../include/Board.hpp:138:         board[i] = static_cast<height_t>(_pext_u32(board[i], mask));
	movzx	eax, WORD PTR 18[rdi]	# MEM[(value_type &)board_11(D) + 18], MEM[(value_type &)board_11(D) + 18]
# /usr/lib/gcc/x86_64-linux-gnu/8/include/bmi2intrin.h:55:   return __builtin_ia32_pext_si (__X, __Y);
	pext	esi, eax, esi	# tmp169, MEM[(value_type &)board_11(D) + 18], _25
# src/../include/Board.hpp:138:         board[i] = static_cast<height_t>(_pext_u32(board[i], mask));
	mov	WORD PTR 18[rdi], si	# MEM[(value_type &)board_11(D) + 18], tmp169
# src/../include/Board.hpp:140: }
	ret	
	.cfi_endproc
.LFE10168:
	.size	_Z22destroy_lines_internetRSt5arrayItLm10EEt, .-_Z22destroy_lines_internetRSt5arrayItLm10EEt
	.p2align 4,,15
	.globl	_Z26evaluate_board_GA_internetRKSt5arrayItLm10EEiRtRKSt6vectorIdSaIdEE
	.type	_Z26evaluate_board_GA_internetRKSt5arrayItLm10EEiRtRKSt6vectorIdSaIdEE, @function
_Z26evaluate_board_GA_internetRKSt5arrayItLm10EEiRtRKSt6vectorIdSaIdEE:
.LFB10169:
	.cfi_startproc
	push	r15	#
	.cfi_def_cfa_offset 16
	.cfi_offset 15, -16
	push	r14	#
	.cfi_def_cfa_offset 24
	.cfi_offset 14, -24
	push	r13	#
	.cfi_def_cfa_offset 32
	.cfi_offset 13, -32
	mov	r13, rdi	# board, board
	push	r12	#
	.cfi_def_cfa_offset 40
	.cfi_offset 12, -40
	mov	r12, rdx	# line_mask, line_mask
	push	rbp	#
	.cfi_def_cfa_offset 48
	.cfi_offset 6, -48
	push	rbx	#
	.cfi_def_cfa_offset 56
	.cfi_offset 3, -56
# src/../include/Board.hpp:22:     return static_cast<height_t>(63 - __builtin_clzll(static_cast<unsigned long long>((col << 1) | 1)));
	mov	ebx, 63	# tmp309,
	mov	r15d, ebx	# _47, tmp309
# src/../include/Board.hpp:143: {
	sub	rsp, 120	#,
	.cfi_def_cfa_offset 176
# src/../include/Board.hpp:153:     height_t col = board[0];
	movzx	edi, WORD PTR [rdi]	#, MEM[(const value_type &)board_46(D)]
# src/../include/Board.hpp:143: {
	mov	QWORD PTR 104[rsp], rcx	# %sfp, params
# src/../include/Board.hpp:22:     return static_cast<height_t>(63 - __builtin_clzll(static_cast<unsigned long long>((col << 1) | 1)));
	lea	eax, 1[rdi+rdi]	# tmp306,
# src/../include/Board.hpp:154:     line_mask = col;
	mov	WORD PTR [r12], di	# *line_mask_49(D), col
# src/../include/Board.hpp:153:     height_t col = board[0];
	mov	r14d, edi	#,
# src/../include/Board.hpp:156:     holes += prev_height - __builtin_popcount(col);
	mov	edi, edi	# col, col
# src/../include/Board.hpp:22:     return static_cast<height_t>(63 - __builtin_clzll(static_cast<unsigned long long>((col << 1) | 1)));
	cdqe
	bsr	rax, rax	# tmp308, tmp307
	xor	rax, 63	# tmp308,
# src/../include/Board.hpp:22:     return static_cast<height_t>(63 - __builtin_clzll(static_cast<unsigned long long>((col << 1) | 1)));
	sub	r15d, eax	# _47, tmp308
# src/../include/Board.hpp:156:     holes += prev_height - __builtin_popcount(col);
	call	__popcountdi2@PLT	#
# src/../include/Board.hpp:163:         col = board[i];
	movzx	edi, WORD PTR 2[r13]	#, MEM[(const value_type &)board_46(D)]
# src/../include/Board.hpp:22:     return static_cast<height_t>(63 - __builtin_clzll(static_cast<unsigned long long>((col << 1) | 1)));
	mov	ecx, ebx	# _120, tmp309
# src/../include/Board.hpp:156:     holes += prev_height - __builtin_popcount(col);
	mov	DWORD PTR 44[rsp], eax	# %sfp,
# src/../include/Board.hpp:22:     return static_cast<height_t>(63 - __builtin_clzll(static_cast<unsigned long long>((col << 1) | 1)));
	lea	eax, 1[rdi+rdi]	# tmp315,
# src/../include/Board.hpp:163:         col = board[i];
	mov	ebp, edi	#,
# src/../include/Board.hpp:165:         holes += height - __builtin_popcount(col);
	mov	edi, edi	# col, col
# src/../include/Board.hpp:22:     return static_cast<height_t>(63 - __builtin_clzll(static_cast<unsigned long long>((col << 1) | 1)));
	cdqe
# src/../include/Board.hpp:166:         line_mask &= col;
	and	r14d, ebp	# _114, col
# src/../include/Board.hpp:167:         aggregate_height += height;
	mov	ebp, r15d	# aggregate_height, _47
# src/../include/Board.hpp:22:     return static_cast<height_t>(63 - __builtin_clzll(static_cast<unsigned long long>((col << 1) | 1)));
	bsr	rax, rax	# tmp317, tmp316
	xor	rax, 63	# tmp317,
# src/../include/Board.hpp:22:     return static_cast<height_t>(63 - __builtin_clzll(static_cast<unsigned long long>((col << 1) | 1)));
	sub	ecx, eax	# _120, tmp317
	mov	WORD PTR 16[rsp], cx	# %sfp, _120
# src/../include/Board.hpp:165:         holes += height - __builtin_popcount(col);
	call	__popcountdi2@PLT	#
# src/../include/Board.hpp:166:         line_mask &= col;
	mov	WORD PTR [r12], r14w	# *line_mask_49(D), _114
# src/../include/Board.hpp:163:         col = board[i];
	movzx	edi, WORD PTR 4[r13]	#, MEM[(const value_type &)board_46(D) + 4]
# src/../include/Board.hpp:165:         holes += height - __builtin_popcount(col);
	mov	DWORD PTR 48[rsp], eax	# %sfp,
# src/../include/Board.hpp:167:         aggregate_height += height;
	movzx	edx, WORD PTR 16[rsp]	#, %sfp
# src/../include/Board.hpp:22:     return static_cast<height_t>(63 - __builtin_clzll(static_cast<unsigned long long>((col << 1) | 1)));
	lea	eax, 1[rdi+rdi]	# tmp324,
# src/../include/Board.hpp:167:         aggregate_height += height;
	mov	WORD PTR 30[rsp], r15w	# %sfp, _47
# src/../include/Board.hpp:163:         col = board[i];
	mov	r15d, edi	#,
# src/../include/Board.hpp:165:         holes += height - __builtin_popcount(col);
	mov	edi, edi	# col, col
# src/../include/Board.hpp:22:     return static_cast<height_t>(63 - __builtin_clzll(static_cast<unsigned long long>((col << 1) | 1)));
	cdqe
# src/../include/Board.hpp:167:         aggregate_height += height;
	add	ebp, edx	# aggregate_height, _120
# src/../include/Board.hpp:168:         bumpiness += abs(prev_height - height);
	mov	DWORD PTR 32[rsp], edx	# %sfp, _110
# src/../include/Board.hpp:22:     return static_cast<height_t>(63 - __builtin_clzll(static_cast<unsigned long long>((col << 1) | 1)));
	mov	edx, ebx	# _77, tmp309
# src/../include/Board.hpp:22:     return static_cast<height_t>(63 - __builtin_clzll(static_cast<unsigned long long>((col << 1) | 1)));
	bsr	rax, rax	# tmp326, tmp325
# src/../include/Board.hpp:166:         line_mask &= col;
	and	r14d, r15d	# _44, col
# src/../include/Board.hpp:22:     return static_cast<height_t>(63 - __builtin_clzll(static_cast<unsigned long long>((col << 1) | 1)));
	xor	rax, 63	# tmp326,
# src/../include/Board.hpp:22:     return static_cast<height_t>(63 - __builtin_clzll(static_cast<unsigned long long>((col << 1) | 1)));
	sub	edx, eax	# _77, tmp326
	mov	WORD PTR 14[rsp], dx	# %sfp, _77
# src/../include/Board.hpp:165:         holes += height - __builtin_popcount(col);
	call	__popcountdi2@PLT	#
# src/../include/Board.hpp:167:         aggregate_height += height;
	movzx	edi, WORD PTR 14[rsp]	#, %sfp
# src/../include/Board.hpp:166:         line_mask &= col;
	mov	WORD PTR [r12], r14w	# *line_mask_49(D), _44
# src/../include/Board.hpp:22:     return static_cast<height_t>(63 - __builtin_clzll(static_cast<unsigned long long>((col << 1) | 1)));
	mov	r10d, ebx	# _161, tmp309
# src/../include/Board.hpp:165:         holes += height - __builtin_popcount(col);
	mov	DWORD PTR 52[rsp], eax	# %sfp,
# src/../include/Board.hpp:167:         aggregate_height += height;
	add	ebp, edi	# aggregate_height, _77
# src/../include/Board.hpp:168:         bumpiness += abs(prev_height - height);
	mov	DWORD PTR 24[rsp], edi	# %sfp, _40
# src/../include/Board.hpp:163:         col = board[i];
	movzx	edi, WORD PTR 6[r13]	#, MEM[(const value_type &)board_46(D) + 6]
# src/../include/Board.hpp:22:     return static_cast<height_t>(63 - __builtin_clzll(static_cast<unsigned long long>((col << 1) | 1)));
	lea	eax, 1[rdi+rdi]	# tmp333,
# src/../include/Board.hpp:163:         col = board[i];
	mov	r15d, edi	#,
# src/../include/Board.hpp:165:         holes += height - __builtin_popcount(col);
	mov	edi, edi	# col, col
# src/../include/Board.hpp:22:     return static_cast<height_t>(63 - __builtin_clzll(static_cast<unsigned long long>((col << 1) | 1)));
	cdqe
# src/../include/Board.hpp:166:         line_mask &= col;
	and	r14d, r15d	# _167, col
# src/../include/Board.hpp:22:     return static_cast<height_t>(63 - __builtin_clzll(static_cast<unsigned long long>((col << 1) | 1)));
	bsr	rax, rax	# tmp335, tmp334
	xor	rax, 63	# tmp335,
# src/../include/Board.hpp:22:     return static_cast<height_t>(63 - __builtin_clzll(static_cast<unsigned long long>((col << 1) | 1)));
	sub	r10d, eax	# _161, tmp335
	mov	WORD PTR 18[rsp], r10w	# %sfp, _161
# src/../include/Board.hpp:165:         holes += height - __builtin_popcount(col);
	call	__popcountdi2@PLT	#
# src/../include/Board.hpp:166:         line_mask &= col;
	mov	WORD PTR [r12], r14w	# *line_mask_49(D), _167
# src/../include/Board.hpp:163:         col = board[i];
	movzx	edi, WORD PTR 8[r13]	#, MEM[(const value_type &)board_46(D) + 8]
# src/../include/Board.hpp:165:         holes += height - __builtin_popcount(col);
	mov	DWORD PTR 56[rsp], eax	# %sfp,
# src/../include/Board.hpp:167:         aggregate_height += height;
	movzx	r10d, WORD PTR 18[rsp]	#, %sfp
# src/../include/Board.hpp:22:     return static_cast<height_t>(63 - __builtin_clzll(static_cast<unsigned long long>((col << 1) | 1)));
	lea	eax, 1[rdi+rdi]	# tmp342,
# src/../include/Board.hpp:163:         col = board[i];
	mov	r15d, edi	#,
# src/../include/Board.hpp:165:         holes += height - __builtin_popcount(col);
	mov	edi, edi	# col, col
# src/../include/Board.hpp:22:     return static_cast<height_t>(63 - __builtin_clzll(static_cast<unsigned long long>((col << 1) | 1)));
	cdqe
# src/../include/Board.hpp:167:         aggregate_height += height;
	add	ebp, r10d	# aggregate_height, _161
# src/../include/Board.hpp:168:         bumpiness += abs(prev_height - height);
	mov	DWORD PTR 36[rsp], r10d	# %sfp, _171
# src/../include/Board.hpp:22:     return static_cast<height_t>(63 - __builtin_clzll(static_cast<unsigned long long>((col << 1) | 1)));
	mov	r10d, ebx	# _195, tmp309
# src/../include/Board.hpp:22:     return static_cast<height_t>(63 - __builtin_clzll(static_cast<unsigned long long>((col << 1) | 1)));
	bsr	rax, rax	# tmp344, tmp343
# src/../include/Board.hpp:166:         line_mask &= col;
	and	r14d, r15d	# _201, col
# src/../include/Board.hpp:22:     return static_cast<height_t>(63 - __builtin_clzll(static_cast<unsigned long long>((col << 1) | 1)));
	xor	rax, 63	# tmp344,
# src/../include/Board.hpp:22:     return static_cast<height_t>(63 - __builtin_clzll(static_cast<unsigned long long>((col << 1) | 1)));
	sub	r10d, eax	# _195, tmp344
	mov	WORD PTR 20[rsp], r10w	# %sfp, _195
# src/../include/Board.hpp:165:         holes += height - __builtin_popcount(col);
	call	__popcountdi2@PLT	#
# src/../include/Board.hpp:166:         line_mask &= col;
	mov	WORD PTR [r12], r14w	# *line_mask_49(D), _201
# src/../include/Board.hpp:163:         col = board[i];
	movzx	edi, WORD PTR 10[r13]	#, MEM[(const value_type &)board_46(D) + 10]
# src/../include/Board.hpp:165:         holes += height - __builtin_popcount(col);
	mov	DWORD PTR 60[rsp], eax	# %sfp,
# src/../include/Board.hpp:167:         aggregate_height += height;
	movzx	r8d, WORD PTR 20[rsp]	#, %sfp
# src/../include/Board.hpp:22:     return static_cast<height_t>(63 - __builtin_clzll(static_cast<unsigned long long>((col << 1) | 1)));
	lea	eax, 1[rdi+rdi]	# tmp351,
# src/../include/Board.hpp:163:         col = board[i];
	mov	r15d, edi	#,
# src/../include/Board.hpp:165:         holes += height - __builtin_popcount(col);
	mov	edi, edi	# col, col
# src/../include/Board.hpp:22:     return static_cast<height_t>(63 - __builtin_clzll(static_cast<unsigned long long>((col << 1) | 1)));
	cdqe
# src/../include/Board.hpp:167:         aggregate_height += height;
	add	ebp, r8d	# aggregate_height, _195
# src/../include/Board.hpp:168:         bumpiness += abs(prev_height - height);
	mov	DWORD PTR 100[rsp], r8d	# %sfp, _205
# src/../include/Board.hpp:22:     return static_cast<height_t>(63 - __builtin_clzll(static_cast<unsigned long long>((col << 1) | 1)));
	mov	r8d, ebx	# _229, tmp309
# src/../include/Board.hpp:22:     return static_cast<height_t>(63 - __builtin_clzll(static_cast<unsigned long long>((col << 1) | 1)));
	bsr	rax, rax	# tmp353, tmp352
	xor	rax, 63	# tmp353,
# src/../include/Board.hpp:22:     return static_cast<height_t>(63 - __builtin_clzll(static_cast<unsigned long long>((col << 1) | 1)));
	sub	r8d, eax	# _229, tmp353
	mov	WORD PTR 22[rsp], r8w	# %sfp, _229
# src/../include/Board.hpp:165:         holes += height - __builtin_popcount(col);
	call	__popcountdi2@PLT	#
# src/../include/Board.hpp:166:         line_mask &= col;
	and	r14d, r15d	# _235, col
# src/../include/Board.hpp:167:         aggregate_height += height;
	movzx	esi, WORD PTR 22[rsp]	#, %sfp
# src/../include/Board.hpp:22:     return static_cast<height_t>(63 - __builtin_clzll(static_cast<unsigned long long>((col << 1) | 1)));
	mov	r9d, ebx	# _263, tmp309
# src/../include/Board.hpp:166:         line_mask &= col;
	mov	WORD PTR [r12], r14w	# *line_mask_49(D), _235
# src/../include/Board.hpp:163:         col = board[i];
	movzx	edi, WORD PTR 12[r13]	#, MEM[(const value_type &)board_46(D) + 12]
# src/../include/Board.hpp:165:         holes += height - __builtin_popcount(col);
	mov	DWORD PTR 64[rsp], eax	# %sfp,
# src/../include/Board.hpp:167:         aggregate_height += height;
	add	ebp, esi	# aggregate_height, _229
# src/../include/Board.hpp:22:     return static_cast<height_t>(63 - __builtin_clzll(static_cast<unsigned long long>((col << 1) | 1)));
	lea	eax, 1[rdi+rdi]	# tmp360,
# src/../include/Board.hpp:163:         col = board[i];
	mov	r15d, edi	#,
# src/../include/Board.hpp:165:         holes += height - __builtin_popcount(col);
	mov	edi, edi	# col, col
# src/../include/Board.hpp:168:         bumpiness += abs(prev_height - height);
	mov	DWORD PTR 96[rsp], esi	# %sfp, _239
# src/../include/Board.hpp:22:     return static_cast<height_t>(63 - __builtin_clzll(static_cast<unsigned long long>((col << 1) | 1)));
	cdqe
# src/../include/Board.hpp:166:         line_mask &= col;
	and	r14d, r15d	# _269, col
# src/../include/Board.hpp:22:     return static_cast<height_t>(63 - __builtin_clzll(static_cast<unsigned long long>((col << 1) | 1)));
	bsr	rax, rax	# tmp362, tmp361
	xor	rax, 63	# tmp362,
# src/../include/Board.hpp:22:     return static_cast<height_t>(63 - __builtin_clzll(static_cast<unsigned long long>((col << 1) | 1)));
	sub	r9d, eax	# _263, tmp362
	mov	WORD PTR 28[rsp], r9w	# %sfp, _263
# src/../include/Board.hpp:165:         holes += height - __builtin_popcount(col);
	call	__popcountdi2@PLT	#
# src/../include/Board.hpp:166:         line_mask &= col;
	mov	WORD PTR [r12], r14w	# *line_mask_49(D), _269
# src/../include/Board.hpp:163:         col = board[i];
	movzx	edi, WORD PTR 14[r13]	#, MEM[(const value_type &)board_46(D) + 14]
# src/../include/Board.hpp:22:     return static_cast<height_t>(63 - __builtin_clzll(static_cast<unsigned long long>((col << 1) | 1)));
	mov	r11d, ebx	# _297, tmp309
# src/../include/Board.hpp:165:         holes += height - __builtin_popcount(col);
	mov	DWORD PTR 68[rsp], eax	# %sfp,
# src/../include/Board.hpp:167:         aggregate_height += height;
	movzx	r9d, WORD PTR 28[rsp]	#, %sfp
# src/../include/Board.hpp:22:     return static_cast<height_t>(63 - __builtin_clzll(static_cast<unsigned long long>((col << 1) | 1)));
	lea	eax, 1[rdi+rdi]	# tmp369,
# src/../include/Board.hpp:164:         height_t height = col_height(col);
	mov	DWORD PTR 40[rsp], edi	# %sfp, col
# src/../include/Board.hpp:165:         holes += height - __builtin_popcount(col);
	mov	edi, edi	# col, col
# src/../include/Board.hpp:22:     return static_cast<height_t>(63 - __builtin_clzll(static_cast<unsigned long long>((col << 1) | 1)));
	cdqe
# src/../include/Board.hpp:167:         aggregate_height += height;
	add	ebp, r9d	# aggregate_height, _263
# src/../include/Board.hpp:168:         bumpiness += abs(prev_height - height);
	mov	DWORD PTR 92[rsp], r9d	# %sfp, _273
# src/../include/Board.hpp:22:     return static_cast<height_t>(63 - __builtin_clzll(static_cast<unsigned long long>((col << 1) | 1)));
	bsr	rax, rax	# tmp371, tmp370
	xor	rax, 63	# tmp371,
# src/../include/Board.hpp:22:     return static_cast<height_t>(63 - __builtin_clzll(static_cast<unsigned long long>((col << 1) | 1)));
	sub	r11d, eax	# _297, tmp371
	mov	r15d, r11d	# _297, _297
# src/../include/Board.hpp:165:         holes += height - __builtin_popcount(col);
	call	__popcountdi2@PLT	#
# src/../include/Board.hpp:166:         line_mask &= col;
	mov	ecx, DWORD PTR 40[rsp]	# col, %sfp
# src/../include/Board.hpp:168:         bumpiness += abs(prev_height - height);
	movzx	edx, r15w	# _307, _297
# src/../include/Board.hpp:165:         holes += height - __builtin_popcount(col);
	mov	DWORD PTR 72[rsp], eax	# %sfp,
# src/../include/Board.hpp:166:         line_mask &= col;
	and	ecx, r14d	# _303, _269
# src/../include/Board.hpp:167:         aggregate_height += height;
	lea	r14d, 0[rbp+r15]	# aggregate_height,
# src/../include/Board.hpp:168:         bumpiness += abs(prev_height - height);
	mov	DWORD PTR 88[rsp], edx	# %sfp, _307
# src/../include/Board.hpp:166:         line_mask &= col;
	mov	WORD PTR [r12], cx	# *line_mask_49(D), _303
# src/../include/Board.hpp:163:         col = board[i];
	movzx	edi, WORD PTR 16[r13]	#, MEM[(const value_type &)board_46(D) + 16]
# src/../include/Board.hpp:167:         aggregate_height += height;
	mov	WORD PTR 40[rsp], r14w	# %sfp, aggregate_height
# src/../include/Board.hpp:22:     return static_cast<height_t>(63 - __builtin_clzll(static_cast<unsigned long long>((col << 1) | 1)));
	mov	r14d, ebx	# _331, tmp309
# src/../include/Board.hpp:22:     return static_cast<height_t>(63 - __builtin_clzll(static_cast<unsigned long long>((col << 1) | 1)));
	lea	eax, 1[rdi+rdi]	# tmp378,
# src/../include/Board.hpp:163:         col = board[i];
	mov	ebp, edi	#,
# src/../include/Board.hpp:165:         holes += height - __builtin_popcount(col);
	mov	edi, edi	# col, col
# src/../include/Board.hpp:166:         line_mask &= col;
	mov	DWORD PTR 80[rsp], ecx	# %sfp, _303
# src/../include/Board.hpp:22:     return static_cast<height_t>(63 - __builtin_clzll(static_cast<unsigned long long>((col << 1) | 1)));
	cdqe
	bsr	rax, rax	# tmp380, tmp379
	xor	rax, 63	# tmp380,
# src/../include/Board.hpp:22:     return static_cast<height_t>(63 - __builtin_clzll(static_cast<unsigned long long>((col << 1) | 1)));
	sub	r14d, eax	# _331, tmp380
# src/../include/Board.hpp:165:         holes += height - __builtin_popcount(col);
	call	__popcountdi2@PLT	#
# src/../include/Board.hpp:166:         line_mask &= col;
	mov	ecx, DWORD PTR 80[rsp]	# _303, %sfp
# src/../include/Board.hpp:167:         aggregate_height += height;
	movzx	r11d, WORD PTR 40[rsp]	# aggregate_height, %sfp
# src/../include/Board.hpp:165:         holes += height - __builtin_popcount(col);
	mov	DWORD PTR 76[rsp], eax	# %sfp,
# src/../include/Board.hpp:166:         line_mask &= col;
	and	ecx, ebp	# _337, col
# src/../include/Board.hpp:167:         aggregate_height += height;
	add	r11d, r14d	# aggregate_height, _331
# src/../include/Board.hpp:168:         bumpiness += abs(prev_height - height);
	movzx	ebp, r14w	# _341, _331
# src/../include/Board.hpp:166:         line_mask &= col;
	mov	WORD PTR [r12], cx	# *line_mask_49(D), _337
# src/../include/Board.hpp:163:         col = board[i];
	movzx	edi, WORD PTR 18[r13]	#, MEM[(const value_type &)board_46(D) + 18]
# src/../include/Board.hpp:167:         aggregate_height += height;
	mov	WORD PTR 40[rsp], r11w	# %sfp, aggregate_height
# src/../include/Board.hpp:22:     return static_cast<height_t>(63 - __builtin_clzll(static_cast<unsigned long long>((col << 1) | 1)));
	lea	eax, 1[rdi+rdi]	# tmp387,
# src/../include/Board.hpp:163:         col = board[i];
	mov	r13d, edi	#,
# src/../include/Board.hpp:165:         holes += height - __builtin_popcount(col);
	mov	edi, edi	# col, col
# src/../include/Board.hpp:166:         line_mask &= col;
	mov	DWORD PTR 84[rsp], ecx	# %sfp, _337
# src/../include/Board.hpp:22:     return static_cast<height_t>(63 - __builtin_clzll(static_cast<unsigned long long>((col << 1) | 1)));
	cdqe
	bsr	rax, rax	# tmp389, tmp388
	xor	rax, 63	# tmp389,
# src/../include/Board.hpp:22:     return static_cast<height_t>(63 - __builtin_clzll(static_cast<unsigned long long>((col << 1) | 1)));
	sub	ebx, eax	# _73, tmp389
# src/../include/Board.hpp:165:         holes += height - __builtin_popcount(col);
	call	__popcountdi2@PLT	#
# src/../include/Board.hpp:166:         line_mask &= col;
	mov	ecx, DWORD PTR 84[rsp]	# _337, %sfp
# src/../include/Board.hpp:165:         holes += height - __builtin_popcount(col);
	mov	DWORD PTR 80[rsp], eax	# %sfp,
# src/../include/Board.hpp:166:         line_mask &= col;
	and	ecx, r13d	# _14, col
	mov	WORD PTR [r12], cx	# *line_mask_49(D), _14
# src/../include/Board.hpp:175:     int destroyed = __builtin_popcount(line_mask);
	movzx	edi, cx	# _14, _14
	call	__popcountdi2@PLT	#
# src/../include/Board.hpp:168:         bumpiness += abs(prev_height - height);
	mov	r13d, DWORD PTR 32[rsp]	# _110, %sfp
# src/../include/Board.hpp:177:     return params[0]*aggregate_height +
	mov	r11, QWORD PTR 104[rsp]	# params, %sfp
# src/../include/Board.hpp:180:         params[3]*bumpiness;
	pxor	xmm0, xmm0	# tmp445
# src/../include/Board.hpp:168:         bumpiness += abs(prev_height - height);
	mov	r12d, DWORD PTR 24[rsp]	# _40, %sfp
	mov	edx, DWORD PTR 36[rsp]	# _171, %sfp
# src/../include/Board.hpp:178:         params[1]*destroyed +
	pxor	xmm2, xmm2	# tmp474
# src/../include/Board.hpp:177:     return params[0]*aggregate_height +
	mov	r10, QWORD PTR [r11]	# _66, MEM[(double * *)params_61(D)]
# src/../include/Board.hpp:168:         bumpiness += abs(prev_height - height);
	mov	r11d, r13d	# tmp398, _110
	mov	esi, DWORD PTR 96[rsp]	# _239, %sfp
# src/../include/Board.hpp:178:         params[1]*destroyed +
	cvtsi2sd	xmm2, eax	# tmp474, tmp396
# src/../include/Board.hpp:168:         bumpiness += abs(prev_height - height);
	sub	r11d, r12d	# tmp398, _40
	sub	r12d, edx	# _40, _171
	mov	r8d, DWORD PTR 100[rsp]	# _205, %sfp
	mov	r9d, DWORD PTR 92[rsp]	# _273, %sfp
	mov	edi, r11d	# tmp398, tmp398
# src/../include/Board.hpp:168:         bumpiness += abs(prev_height - height);
	sar	r11d, 31	# tmp399,
# src/../include/Board.hpp:180:         params[3]*bumpiness;
	movsd	xmm1, QWORD PTR 24[r10]	# tmp445, MEM[(const value_type &)_66 + 24]
# src/../include/Board.hpp:168:         bumpiness += abs(prev_height - height);
	xor	edi, r11d	# tmp400, tmp399
	mov	ecx, r11d	# tmp399, tmp399
	mov	r11d, edi	# tmp400, tmp400
	sub	r11d, ecx	# tmp400, tmp399
# src/../include/Board.hpp:168:         bumpiness += abs(prev_height - height);
	mov	ecx, r12d	# tmp402, _40
# src/../include/Board.hpp:168:         bumpiness += abs(prev_height - height);
	sar	r12d, 31	# tmp403,
	xor	ecx, r12d	# tmp404, tmp403
	sub	ecx, r12d	# tmp405, tmp403
# src/../include/Board.hpp:168:         bumpiness += abs(prev_height - height);
	lea	edi, [r11+rcx]	# tmp406,
# src/../include/Board.hpp:168:         bumpiness += abs(prev_height - height);
	mov	r11d, edx	# _171, _171
	mov	edx, DWORD PTR 88[rsp]	# _307, %sfp
	sub	r11d, r8d	# _171, _205
	sub	r8d, esi	# tmp412, _239
	sub	esi, r9d	# tmp417, _273
	mov	ecx, r11d	# tmp407, _171
# src/../include/Board.hpp:168:         bumpiness += abs(prev_height - height);
	sar	r11d, 31	# tmp408,
# src/../include/Board.hpp:168:         bumpiness += abs(prev_height - height);
	sub	r9d, edx	# tmp422, _307
	sub	edx, ebp	# tmp427, _341
# src/../include/Board.hpp:168:         bumpiness += abs(prev_height - height);
	xor	ecx, r11d	# tmp409, tmp408
	sub	ecx, r11d	# tmp410, tmp408
	mov	r11d, r8d	# tmp413, tmp412
	sar	r11d, 31	# tmp413,
# src/../include/Board.hpp:168:         bumpiness += abs(prev_height - height);
	add	edi, ecx	# tmp411, tmp410
# src/../include/Board.hpp:168:         bumpiness += abs(prev_height - height);
	movzx	ecx, bx	# _73, _73
# src/../include/Board.hpp:168:         bumpiness += abs(prev_height - height);
	xor	r8d, r11d	# tmp414, tmp413
# src/../include/Board.hpp:168:         bumpiness += abs(prev_height - height);
	sub	ebp, ecx	# tmp433, _73
# src/../include/Board.hpp:168:         bumpiness += abs(prev_height - height);
	sub	r8d, r11d	# tmp415, tmp413
	mov	r11d, esi	# tmp418, tmp417
	sar	r11d, 31	# tmp418,
# src/../include/Board.hpp:168:         bumpiness += abs(prev_height - height);
	add	edi, r8d	# tmp416, tmp415
# src/../include/Board.hpp:168:         bumpiness += abs(prev_height - height);
	xor	esi, r11d	# tmp419, tmp418
	sub	esi, r11d	# tmp420, tmp418
	mov	r11d, r9d	# tmp423, tmp422
	sar	r11d, 31	# tmp423,
# src/../include/Board.hpp:168:         bumpiness += abs(prev_height - height);
	add	esi, edi	# tmp421, tmp416
# src/../include/Board.hpp:168:         bumpiness += abs(prev_height - height);
	xor	r9d, r11d	# tmp424, tmp423
	sub	r9d, r11d	# tmp425, tmp423
	mov	r11d, edx	# tmp428, tmp427
	sar	r11d, 31	# tmp428,
# src/../include/Board.hpp:168:         bumpiness += abs(prev_height - height);
	lea	edi, [rsi+r9]	# tmp426,
# src/../include/Board.hpp:168:         bumpiness += abs(prev_height - height);
	xor	edx, r11d	# tmp429, tmp428
	sub	edx, r11d	# tmp430, tmp428
	mov	r11d, ebp	# tmp434, tmp433
	sar	r11d, 31	# tmp434,
# src/../include/Board.hpp:168:         bumpiness += abs(prev_height - height);
	add	edx, edi	# tmp431, tmp426
# src/../include/Board.hpp:168:         bumpiness += abs(prev_height - height);
	xor	ebp, r11d	# tmp435, tmp434
	sub	ebp, r11d	# tmp436, tmp434
# src/../include/Board.hpp:168:         bumpiness += abs(prev_height - height);
	add	ebp, edx	# tmp437, tmp431
# src/../include/Board.hpp:168:         bumpiness += abs(prev_height - height);
	movzx	edx, WORD PTR 30[rsp]	#, %sfp
	mov	esi, edx	#,
	sub	edx, r13d	# tmp439, _110
# src/../include/Board.hpp:168:         bumpiness += abs(prev_height - height);
	mov	r11d, edx	# tmp440, tmp439
	sar	r11d, 31	# tmp440,
# src/../include/Board.hpp:165:         holes += height - __builtin_popcount(col);
	sub	si, WORD PTR 44[rsp]	# _47, %sfp
# src/../include/Board.hpp:168:         bumpiness += abs(prev_height - height);
	xor	edx, r11d	# tmp441, tmp440
	sub	edx, r11d	# tmp442, tmp440
# src/../include/Board.hpp:168:         bumpiness += abs(prev_height - height);
	add	edx, ebp	# bumpiness, tmp437
# src/../include/Board.hpp:180:         params[3]*bumpiness;
	movzx	edx, dx	# bumpiness, bumpiness
	cvtsi2sd	xmm0, edx	# tmp445, bumpiness
# src/../include/Board.hpp:165:         holes += height - __builtin_popcount(col);
	movzx	edx, WORD PTR 16[rsp]	# tmp447, %sfp
	add	edx, esi	# tmp447, _47
	sub	dx, WORD PTR 48[rsp]	# tmp449, %sfp
	add	dx, WORD PTR 14[rsp]	# tmp450, %sfp
	sub	dx, WORD PTR 52[rsp]	# tmp451, %sfp
	add	dx, WORD PTR 18[rsp]	# tmp452, %sfp
# src/../include/Board.hpp:180:         params[3]*bumpiness;
	mulsd	xmm1, xmm0	# tmp445, tmp445
# src/../include/Board.hpp:165:         holes += height - __builtin_popcount(col);
	sub	dx, WORD PTR 56[rsp]	# tmp453, %sfp
	add	dx, WORD PTR 20[rsp]	# tmp454, %sfp
	sub	dx, WORD PTR 60[rsp]	# tmp455, %sfp
	add	dx, WORD PTR 22[rsp]	# tmp456, %sfp
# src/../include/Board.hpp:179:         params[2]*holes +
	pxor	xmm0, xmm0	# tmp467
# src/../include/Board.hpp:165:         holes += height - __builtin_popcount(col);
	sub	dx, WORD PTR 64[rsp]	# tmp457, %sfp
	add	dx, WORD PTR 28[rsp]	# tmp458, %sfp
	sub	dx, WORD PTR 68[rsp]	# tmp459, %sfp
	add	edx, r15d	# tmp460, _297
	sub	dx, WORD PTR 72[rsp]	# tmp461, %sfp
	add	edx, r14d	# tmp462, _331
	sub	dx, WORD PTR 76[rsp]	# tmp463, %sfp
	add	edx, ebx	# tmp464, _73
	sub	dx, WORD PTR 80[rsp]	# holes, %sfp
# src/../include/Board.hpp:167:         aggregate_height += height;
	add	bx, WORD PTR 40[rsp]	# aggregate_height, %sfp
# src/../include/Board.hpp:179:         params[2]*holes +
	movzx	edx, dx	# holes, holes
# src/../include/Board.hpp:177:     return params[0]*aggregate_height +
	movzx	ebx, bx	# aggregate_height, aggregate_height
# src/../include/Board.hpp:179:         params[2]*holes +
	cvtsi2sd	xmm0, edx	# tmp467, holes
	mulsd	xmm0, QWORD PTR 16[r10]	# tmp468, MEM[(const value_type &)_66 + 16]
# src/../include/Board.hpp:180:         params[3]*bumpiness;
	addsd	xmm0, xmm1	# tmp469, tmp446
# src/../include/Board.hpp:177:     return params[0]*aggregate_height +
	pxor	xmm1, xmm1	# tmp472
	cvtsi2sd	xmm1, ebx	# tmp472, aggregate_height
	mulsd	xmm1, QWORD PTR [r10]	# tmp473, MEM[(const value_type &)_66]
# src/../include/Board.hpp:178:         params[1]*destroyed +
	mulsd	xmm2, QWORD PTR 8[r10]	# tmp475, MEM[(const value_type &)_66 + 8]
# src/../include/Board.hpp:185: }
	add	rsp, 120	#,
	.cfi_def_cfa_offset 56
	pop	rbx	#
	.cfi_def_cfa_offset 48
	pop	rbp	#
	.cfi_def_cfa_offset 40
	pop	r12	#
	.cfi_def_cfa_offset 32
	pop	r13	#
	.cfi_def_cfa_offset 24
	pop	r14	#
	.cfi_def_cfa_offset 16
	pop	r15	#
	.cfi_def_cfa_offset 8
# src/../include/Board.hpp:180:         params[3]*bumpiness;
	addsd	xmm1, xmm2	# tmp476, tmp475
	addsd	xmm0, xmm1	# tmp397, tmp476
# src/../include/Board.hpp:185: }
	ret	
	.cfi_endproc
.LFE10169:
	.size	_Z26evaluate_board_GA_internetRKSt5arrayItLm10EEiRtRKSt6vectorIdSaIdEE, .-_Z26evaluate_board_GA_internetRKSt5arrayItLm10EEiRtRKSt6vectorIdSaIdEE
	.p2align 4,,15
	.globl	_Z36evaluate_board_GA_internet_no_paramsRKSt5arrayItLm10EERt
	.type	_Z36evaluate_board_GA_internet_no_paramsRKSt5arrayItLm10EERt, @function
_Z36evaluate_board_GA_internet_no_paramsRKSt5arrayItLm10EERt:
.LFB10170:
	.cfi_startproc
	push	r15	#
	.cfi_def_cfa_offset 16
	.cfi_offset 15, -16
	mov	r15, rdi	# board, board
	push	r14	#
	.cfi_def_cfa_offset 24
	.cfi_offset 14, -24
	mov	r14, rsi	# line_mask, line_mask
	push	r13	#
	.cfi_def_cfa_offset 32
	.cfi_offset 13, -32
	push	r12	#
	.cfi_def_cfa_offset 40
	.cfi_offset 12, -40
	push	rbp	#
	.cfi_def_cfa_offset 48
	.cfi_offset 6, -48
# src/../include/Board.hpp:22:     return static_cast<height_t>(63 - __builtin_clzll(static_cast<unsigned long long>((col << 1) | 1)));
	mov	ebp, 63	# tmp311,
# src/../include/Board.hpp:188: {
	push	rbx	#
	.cfi_def_cfa_offset 56
	.cfi_offset 3, -56
# src/../include/Board.hpp:22:     return static_cast<height_t>(63 - __builtin_clzll(static_cast<unsigned long long>((col << 1) | 1)));
	mov	ebx, ebp	# _56, tmp311
# src/../include/Board.hpp:188: {
	sub	rsp, 56	#,
	.cfi_def_cfa_offset 112
# src/../include/Board.hpp:198:     height_t prev_height = col_height(board[0]);
	movzx	edi, WORD PTR [rdi]	#, MEM[(const value_type &)board_52(D)]
# src/../include/Board.hpp:22:     return static_cast<height_t>(63 - __builtin_clzll(static_cast<unsigned long long>((col << 1) | 1)));
	lea	eax, 1[rdi+rdi]	# tmp308,
# src/../include/Board.hpp:200:     line_mask = board[0];
	mov	WORD PTR [rsi], di	# *line_mask_53(D), _1
# src/../include/Board.hpp:198:     height_t prev_height = col_height(board[0]);
	mov	r13d, edi	#,
# src/../include/Board.hpp:201:     holes += prev_height - __builtin_popcount(board[0]);
	mov	edi, edi	# _1, _1
# src/../include/Board.hpp:22:     return static_cast<height_t>(63 - __builtin_clzll(static_cast<unsigned long long>((col << 1) | 1)));
	cdqe
	bsr	rax, rax	# tmp310, tmp309
	xor	rax, 63	# tmp310,
# src/../include/Board.hpp:22:     return static_cast<height_t>(63 - __builtin_clzll(static_cast<unsigned long long>((col << 1) | 1)));
	sub	ebx, eax	# _56, tmp310
# src/../include/Board.hpp:201:     holes += prev_height - __builtin_popcount(board[0]);
	movzx	eax, bx	# _4, _56
	mov	DWORD PTR 8[rsp], eax	# %sfp, _4
# src/../include/Board.hpp:201:     holes += prev_height - __builtin_popcount(board[0]);
	call	__popcountdi2@PLT	#
# src/../include/Board.hpp:207:         height_t height = col_height(board[i]);
	movzx	edi, WORD PTR 2[r15]	#, MEM[(const value_type &)board_52(D)]
# src/../include/Board.hpp:22:     return static_cast<height_t>(63 - __builtin_clzll(static_cast<unsigned long long>((col << 1) | 1)));
	mov	esi, ebp	# _150, tmp311
# src/../include/Board.hpp:201:     holes += prev_height - __builtin_popcount(board[0]);
	mov	r12d, eax	# tmp314,
# src/../include/Board.hpp:22:     return static_cast<height_t>(63 - __builtin_clzll(static_cast<unsigned long long>((col << 1) | 1)));
	lea	eax, 1[rdi+rdi]	# tmp317,
# src/../include/Board.hpp:207:         height_t height = col_height(board[i]);
	mov	DWORD PTR 12[rsp], edi	# %sfp, _157
# src/../include/Board.hpp:209:         holes += height - __builtin_popcount(board[i]);
	mov	edi, edi	# _157, _157
# src/../include/Board.hpp:22:     return static_cast<height_t>(63 - __builtin_clzll(static_cast<unsigned long long>((col << 1) | 1)));
	cdqe
	bsr	rax, rax	# tmp319, tmp318
	xor	rax, 63	# tmp319,
# src/../include/Board.hpp:22:     return static_cast<height_t>(63 - __builtin_clzll(static_cast<unsigned long long>((col << 1) | 1)));
	sub	esi, eax	# _150, tmp319
	movzx	r9d, si	#, _150
# src/../include/Board.hpp:208:         aggregate_height += height;
	add	ebx, r9d	# aggregate_height, _150
# src/../include/Board.hpp:209:         holes += height - __builtin_popcount(board[i]);
	mov	DWORD PTR 16[rsp], r9d	# %sfp, _148
# src/../include/Board.hpp:209:         holes += height - __builtin_popcount(board[i]);
	call	__popcountdi2@PLT	#
# src/../include/Board.hpp:212:         line_mask &= board[i];
	mov	edx, DWORD PTR 12[rsp]	# _157, %sfp
# src/../include/Board.hpp:209:         holes += height - __builtin_popcount(board[i]);
	mov	esi, DWORD PTR 16[rsp]	# tmp325, %sfp
# src/../include/Board.hpp:201:     holes += prev_height - __builtin_popcount(board[0]);
	mov	ecx, DWORD PTR 8[rsp]	# tmp324, %sfp
# src/../include/Board.hpp:212:         line_mask &= board[i];
	and	r13d, edx	# _137, _157
# src/../include/Board.hpp:209:         holes += height - __builtin_popcount(board[i]);
	sub	esi, eax	# tmp325, tmp323
# src/../include/Board.hpp:22:     return static_cast<height_t>(63 - __builtin_clzll(static_cast<unsigned long long>((col << 1) | 1)));
	mov	edx, ebp	# _116, tmp311
# src/../include/Board.hpp:212:         line_mask &= board[i];
	mov	WORD PTR [r14], r13w	# *line_mask_53(D), _137
# src/../include/Board.hpp:207:         height_t height = col_height(board[i]);
	movzx	edi, WORD PTR 4[r15]	#, MEM[(const value_type &)board_52(D) + 4]
# src/../include/Board.hpp:201:     holes += prev_height - __builtin_popcount(board[0]);
	sub	ecx, r12d	# tmp324, tmp314
	mov	r12d, ecx	# tmp324, tmp324
# src/../include/Board.hpp:22:     return static_cast<height_t>(63 - __builtin_clzll(static_cast<unsigned long long>((col << 1) | 1)));
	lea	eax, 1[rdi+rdi]	# tmp328,
# src/../include/Board.hpp:207:         height_t height = col_height(board[i]);
	mov	DWORD PTR 20[rsp], edi	# %sfp, _123
# src/../include/Board.hpp:209:         holes += height - __builtin_popcount(board[i]);
	mov	edi, edi	# _123, _123
# src/../include/Board.hpp:209:         holes += height - __builtin_popcount(board[i]);
	add	r12d, esi	# holes, tmp325
# src/../include/Board.hpp:22:     return static_cast<height_t>(63 - __builtin_clzll(static_cast<unsigned long long>((col << 1) | 1)));
	cdqe
	bsr	rax, rax	# tmp330, tmp329
	xor	rax, 63	# tmp330,
# src/../include/Board.hpp:22:     return static_cast<height_t>(63 - __builtin_clzll(static_cast<unsigned long long>((col << 1) | 1)));
	sub	edx, eax	# _116, tmp330
	movzx	ecx, dx	#, _116
# src/../include/Board.hpp:208:         aggregate_height += height;
	add	ebx, ecx	# aggregate_height, _116
# src/../include/Board.hpp:209:         holes += height - __builtin_popcount(board[i]);
	mov	DWORD PTR 12[rsp], ecx	# %sfp, _114
# src/../include/Board.hpp:209:         holes += height - __builtin_popcount(board[i]);
	call	__popcountdi2@PLT	#
# src/../include/Board.hpp:209:         holes += height - __builtin_popcount(board[i]);
	mov	edx, DWORD PTR 12[rsp]	# tmp335, %sfp
# src/../include/Board.hpp:22:     return static_cast<height_t>(63 - __builtin_clzll(static_cast<unsigned long long>((col << 1) | 1)));
	mov	r11d, ebp	# _180, tmp311
# src/../include/Board.hpp:209:         holes += height - __builtin_popcount(board[i]);
	sub	edx, eax	# tmp335, tmp334
# src/../include/Board.hpp:209:         holes += height - __builtin_popcount(board[i]);
	add	r12d, edx	# holes, tmp335
# src/../include/Board.hpp:212:         line_mask &= board[i];
	mov	edx, DWORD PTR 20[rsp]	# _123, %sfp
	and	r13d, edx	# _95, _123
	mov	WORD PTR [r14], r13w	# *line_mask_53(D), _95
# src/../include/Board.hpp:207:         height_t height = col_height(board[i]);
	movzx	edi, WORD PTR 6[r15]	#, MEM[(const value_type &)board_52(D) + 6]
# src/../include/Board.hpp:22:     return static_cast<height_t>(63 - __builtin_clzll(static_cast<unsigned long long>((col << 1) | 1)));
	lea	eax, 1[rdi+rdi]	# tmp338,
# src/../include/Board.hpp:207:         height_t height = col_height(board[i]);
	mov	DWORD PTR 24[rsp], edi	# %sfp, _3
# src/../include/Board.hpp:209:         holes += height - __builtin_popcount(board[i]);
	mov	edi, edi	# _3, _3
# src/../include/Board.hpp:22:     return static_cast<height_t>(63 - __builtin_clzll(static_cast<unsigned long long>((col << 1) | 1)));
	cdqe
	bsr	rax, rax	# tmp340, tmp339
	xor	rax, 63	# tmp340,
# src/../include/Board.hpp:22:     return static_cast<height_t>(63 - __builtin_clzll(static_cast<unsigned long long>((col << 1) | 1)));
	sub	r11d, eax	# _180, tmp340
	movzx	eax, r11w	#, _180
# src/../include/Board.hpp:208:         aggregate_height += height;
	add	ebx, eax	# aggregate_height, _180
# src/../include/Board.hpp:209:         holes += height - __builtin_popcount(board[i]);
	mov	DWORD PTR 20[rsp], eax	# %sfp, _182
# src/../include/Board.hpp:209:         holes += height - __builtin_popcount(board[i]);
	call	__popcountdi2@PLT	#
# src/../include/Board.hpp:212:         line_mask &= board[i];
	mov	r8d, DWORD PTR 24[rsp]	# _3, %sfp
# src/../include/Board.hpp:209:         holes += height - __builtin_popcount(board[i]);
	mov	edi, DWORD PTR 20[rsp]	# tmp345, %sfp
# src/../include/Board.hpp:22:     return static_cast<height_t>(63 - __builtin_clzll(static_cast<unsigned long long>((col << 1) | 1)));
	mov	r10d, ebp	# _214, tmp311
# src/../include/Board.hpp:212:         line_mask &= board[i];
	and	r13d, r8d	# _193, _3
# src/../include/Board.hpp:209:         holes += height - __builtin_popcount(board[i]);
	sub	edi, eax	# tmp345, tmp344
# src/../include/Board.hpp:209:         holes += height - __builtin_popcount(board[i]);
	add	r12d, edi	# holes, tmp345
# src/../include/Board.hpp:212:         line_mask &= board[i];
	mov	WORD PTR [r14], r13w	# *line_mask_53(D), _193
# src/../include/Board.hpp:207:         height_t height = col_height(board[i]);
	movzx	edi, WORD PTR 8[r15]	#, MEM[(const value_type &)board_52(D) + 8]
# src/../include/Board.hpp:22:     return static_cast<height_t>(63 - __builtin_clzll(static_cast<unsigned long long>((col << 1) | 1)));
	lea	eax, 1[rdi+rdi]	# tmp348,
# src/../include/Board.hpp:207:         height_t height = col_height(board[i]);
	mov	DWORD PTR 28[rsp], edi	# %sfp, _207
# src/../include/Board.hpp:209:         holes += height - __builtin_popcount(board[i]);
	mov	edi, edi	# _207, _207
# src/../include/Board.hpp:22:     return static_cast<height_t>(63 - __builtin_clzll(static_cast<unsigned long long>((col << 1) | 1)));
	cdqe
	bsr	rax, rax	# tmp350, tmp349
	xor	rax, 63	# tmp350,
# src/../include/Board.hpp:22:     return static_cast<height_t>(63 - __builtin_clzll(static_cast<unsigned long long>((col << 1) | 1)));
	sub	r10d, eax	# _214, tmp350
	movzx	eax, r10w	#, _214
# src/../include/Board.hpp:208:         aggregate_height += height;
	add	ebx, eax	# aggregate_height, _214
# src/../include/Board.hpp:209:         holes += height - __builtin_popcount(board[i]);
	mov	DWORD PTR 24[rsp], eax	# %sfp, _216
# src/../include/Board.hpp:209:         holes += height - __builtin_popcount(board[i]);
	call	__popcountdi2@PLT	#
# src/../include/Board.hpp:212:         line_mask &= board[i];
	mov	r8d, DWORD PTR 28[rsp]	# _207, %sfp
# src/../include/Board.hpp:209:         holes += height - __builtin_popcount(board[i]);
	mov	r10d, DWORD PTR 24[rsp]	# tmp355, %sfp
# src/../include/Board.hpp:22:     return static_cast<height_t>(63 - __builtin_clzll(static_cast<unsigned long long>((col << 1) | 1)));
	mov	r11d, ebp	# _248, tmp311
# src/../include/Board.hpp:212:         line_mask &= board[i];
	and	r13d, r8d	# _227, _207
# src/../include/Board.hpp:209:         holes += height - __builtin_popcount(board[i]);
	sub	r10d, eax	# tmp355, tmp354
# src/../include/Board.hpp:212:         line_mask &= board[i];
	mov	WORD PTR [r14], r13w	# *line_mask_53(D), _227
# src/../include/Board.hpp:207:         height_t height = col_height(board[i]);
	movzx	edi, WORD PTR 10[r15]	#, MEM[(const value_type &)board_52(D) + 10]
# src/../include/Board.hpp:209:         holes += height - __builtin_popcount(board[i]);
	add	r12d, r10d	# holes, tmp355
# src/../include/Board.hpp:22:     return static_cast<height_t>(63 - __builtin_clzll(static_cast<unsigned long long>((col << 1) | 1)));
	lea	eax, 1[rdi+rdi]	# tmp358,
# src/../include/Board.hpp:207:         height_t height = col_height(board[i]);
	mov	DWORD PTR 32[rsp], edi	# %sfp, _241
# src/../include/Board.hpp:209:         holes += height - __builtin_popcount(board[i]);
	mov	edi, edi	# _241, _241
# src/../include/Board.hpp:22:     return static_cast<height_t>(63 - __builtin_clzll(static_cast<unsigned long long>((col << 1) | 1)));
	cdqe
	bsr	rax, rax	# tmp360, tmp359
	xor	rax, 63	# tmp360,
# src/../include/Board.hpp:22:     return static_cast<height_t>(63 - __builtin_clzll(static_cast<unsigned long long>((col << 1) | 1)));
	sub	r11d, eax	# _248, tmp360
	movzx	eax, r11w	#, _248
# src/../include/Board.hpp:208:         aggregate_height += height;
	add	ebx, eax	# aggregate_height, _248
# src/../include/Board.hpp:209:         holes += height - __builtin_popcount(board[i]);
	mov	DWORD PTR 28[rsp], eax	# %sfp, _250
# src/../include/Board.hpp:209:         holes += height - __builtin_popcount(board[i]);
	call	__popcountdi2@PLT	#
# src/../include/Board.hpp:212:         line_mask &= board[i];
	mov	r8d, DWORD PTR 32[rsp]	# _241, %sfp
# src/../include/Board.hpp:209:         holes += height - __builtin_popcount(board[i]);
	mov	r11d, DWORD PTR 28[rsp]	# tmp365, %sfp
# src/../include/Board.hpp:212:         line_mask &= board[i];
	and	r13d, r8d	# _261, _241
# src/../include/Board.hpp:209:         holes += height - __builtin_popcount(board[i]);
	sub	r11d, eax	# tmp365, tmp364
# src/../include/Board.hpp:22:     return static_cast<height_t>(63 - __builtin_clzll(static_cast<unsigned long long>((col << 1) | 1)));
	mov	r8d, ebp	# _282, tmp311
# src/../include/Board.hpp:212:         line_mask &= board[i];
	mov	WORD PTR [r14], r13w	# *line_mask_53(D), _261
# src/../include/Board.hpp:207:         height_t height = col_height(board[i]);
	movzx	edi, WORD PTR 12[r15]	#, MEM[(const value_type &)board_52(D) + 12]
# src/../include/Board.hpp:209:         holes += height - __builtin_popcount(board[i]);
	add	r12d, r11d	# holes, tmp365
# src/../include/Board.hpp:22:     return static_cast<height_t>(63 - __builtin_clzll(static_cast<unsigned long long>((col << 1) | 1)));
	lea	eax, 1[rdi+rdi]	# tmp368,
# src/../include/Board.hpp:207:         height_t height = col_height(board[i]);
	mov	DWORD PTR 36[rsp], edi	# %sfp, _275
# src/../include/Board.hpp:209:         holes += height - __builtin_popcount(board[i]);
	mov	edi, edi	# _275, _275
# src/../include/Board.hpp:22:     return static_cast<height_t>(63 - __builtin_clzll(static_cast<unsigned long long>((col << 1) | 1)));
	cdqe
	bsr	rax, rax	# tmp370, tmp369
	xor	rax, 63	# tmp370,
# src/../include/Board.hpp:22:     return static_cast<height_t>(63 - __builtin_clzll(static_cast<unsigned long long>((col << 1) | 1)));
	sub	r8d, eax	# _282, tmp370
	movzx	eax, r8w	#, _282
# src/../include/Board.hpp:208:         aggregate_height += height;
	add	ebx, eax	# aggregate_height, _282
# src/../include/Board.hpp:209:         holes += height - __builtin_popcount(board[i]);
	mov	DWORD PTR 32[rsp], eax	# %sfp, _284
# src/../include/Board.hpp:209:         holes += height - __builtin_popcount(board[i]);
	call	__popcountdi2@PLT	#
# src/../include/Board.hpp:209:         holes += height - __builtin_popcount(board[i]);
	mov	r8d, DWORD PTR 32[rsp]	# tmp375, %sfp
# src/../include/Board.hpp:22:     return static_cast<height_t>(63 - __builtin_clzll(static_cast<unsigned long long>((col << 1) | 1)));
	mov	r10d, ebp	# _316, tmp311
# src/../include/Board.hpp:209:         holes += height - __builtin_popcount(board[i]);
	sub	r8d, eax	# tmp375, tmp374
# src/../include/Board.hpp:209:         holes += height - __builtin_popcount(board[i]);
	add	r12d, r8d	# holes, tmp375
# src/../include/Board.hpp:212:         line_mask &= board[i];
	mov	r8d, DWORD PTR 36[rsp]	# _275, %sfp
	and	r13d, r8d	# _295, _275
	mov	WORD PTR [r14], r13w	# *line_mask_53(D), _295
# src/../include/Board.hpp:207:         height_t height = col_height(board[i]);
	movzx	edi, WORD PTR 14[r15]	#, MEM[(const value_type &)board_52(D) + 14]
# src/../include/Board.hpp:22:     return static_cast<height_t>(63 - __builtin_clzll(static_cast<unsigned long long>((col << 1) | 1)));
	lea	eax, 1[rdi+rdi]	# tmp378,
# src/../include/Board.hpp:207:         height_t height = col_height(board[i]);
	mov	DWORD PTR 40[rsp], edi	# %sfp, _309
# src/../include/Board.hpp:209:         holes += height - __builtin_popcount(board[i]);
	mov	edi, edi	# _309, _309
# src/../include/Board.hpp:22:     return static_cast<height_t>(63 - __builtin_clzll(static_cast<unsigned long long>((col << 1) | 1)));
	cdqe
	bsr	rax, rax	# tmp380, tmp379
	xor	rax, 63	# tmp380,
# src/../include/Board.hpp:22:     return static_cast<height_t>(63 - __builtin_clzll(static_cast<unsigned long long>((col << 1) | 1)));
	sub	r10d, eax	# _316, tmp380
	movzx	eax, r10w	#, _316
# src/../include/Board.hpp:208:         aggregate_height += height;
	add	ebx, eax	# aggregate_height, _316
# src/../include/Board.hpp:209:         holes += height - __builtin_popcount(board[i]);
	mov	DWORD PTR 36[rsp], eax	# %sfp, _318
# src/../include/Board.hpp:209:         holes += height - __builtin_popcount(board[i]);
	call	__popcountdi2@PLT	#
# src/../include/Board.hpp:212:         line_mask &= board[i];
	mov	r8d, DWORD PTR 40[rsp]	# _309, %sfp
# src/../include/Board.hpp:209:         holes += height - __builtin_popcount(board[i]);
	mov	r10d, DWORD PTR 36[rsp]	# tmp385, %sfp
# src/../include/Board.hpp:212:         line_mask &= board[i];
	and	r8d, r13d	# _329, _295
# src/../include/Board.hpp:209:         holes += height - __builtin_popcount(board[i]);
	sub	r10d, eax	# tmp385, tmp384
# src/../include/Board.hpp:22:     return static_cast<height_t>(63 - __builtin_clzll(static_cast<unsigned long long>((col << 1) | 1)));
	mov	r13d, ebp	# _350, tmp311
# src/../include/Board.hpp:212:         line_mask &= board[i];
	mov	WORD PTR [r14], r8w	# *line_mask_53(D), _329
# src/../include/Board.hpp:209:         holes += height - __builtin_popcount(board[i]);
	add	r12d, r10d	# holes, tmp385
# src/../include/Board.hpp:212:         line_mask &= board[i];
	mov	DWORD PTR 44[rsp], r8d	# %sfp, _329
# src/../include/Board.hpp:207:         height_t height = col_height(board[i]);
	movzx	edi, WORD PTR 16[r15]	#, MEM[(const value_type &)board_52(D) + 16]
# src/../include/Board.hpp:22:     return static_cast<height_t>(63 - __builtin_clzll(static_cast<unsigned long long>((col << 1) | 1)));
	lea	eax, 1[rdi+rdi]	# tmp388,
# src/../include/Board.hpp:207:         height_t height = col_height(board[i]);
	mov	DWORD PTR 40[rsp], edi	# %sfp, _343
# src/../include/Board.hpp:209:         holes += height - __builtin_popcount(board[i]);
	mov	edi, edi	# _343, _343
# src/../include/Board.hpp:22:     return static_cast<height_t>(63 - __builtin_clzll(static_cast<unsigned long long>((col << 1) | 1)));
	cdqe
	bsr	rax, rax	# tmp390, tmp389
	xor	rax, 63	# tmp390,
# src/../include/Board.hpp:22:     return static_cast<height_t>(63 - __builtin_clzll(static_cast<unsigned long long>((col << 1) | 1)));
	sub	r13d, eax	# _350, tmp390
# src/../include/Board.hpp:209:         holes += height - __builtin_popcount(board[i]);
	call	__popcountdi2@PLT	#
# src/../include/Board.hpp:212:         line_mask &= board[i];
	mov	edx, DWORD PTR 40[rsp]	# _343, %sfp
	mov	r8d, DWORD PTR 44[rsp]	# _329, %sfp
# src/../include/Board.hpp:208:         aggregate_height += height;
	add	ebx, r13d	# aggregate_height, _350
# src/../include/Board.hpp:209:         holes += height - __builtin_popcount(board[i]);
	movzx	r13d, r13w	# _352, _350
# src/../include/Board.hpp:212:         line_mask &= board[i];
	and	r8d, edx	# _363, _343
# src/../include/Board.hpp:209:         holes += height - __builtin_popcount(board[i]);
	mov	r11d, r13d	# tmp395, _352
# src/../include/Board.hpp:212:         line_mask &= board[i];
	mov	WORD PTR [r14], r8w	# *line_mask_53(D), _363
# src/../include/Board.hpp:207:         height_t height = col_height(board[i]);
	movzx	edi, WORD PTR 18[r15]	#, MEM[(const value_type &)board_52(D) + 18]
# src/../include/Board.hpp:209:         holes += height - __builtin_popcount(board[i]);
	sub	r11d, eax	# tmp395, tmp394
# src/../include/Board.hpp:209:         holes += height - __builtin_popcount(board[i]);
	add	r12d, r11d	# holes, tmp395
# src/../include/Board.hpp:212:         line_mask &= board[i];
	mov	DWORD PTR 40[rsp], r8d	# %sfp, _363
# src/../include/Board.hpp:22:     return static_cast<height_t>(63 - __builtin_clzll(static_cast<unsigned long long>((col << 1) | 1)));
	lea	eax, 1[rdi+rdi]	# tmp398,
# src/../include/Board.hpp:207:         height_t height = col_height(board[i]);
	mov	r15d, edi	#,
# src/../include/Board.hpp:209:         holes += height - __builtin_popcount(board[i]);
	mov	edi, edi	# _11, _11
# src/../include/Board.hpp:22:     return static_cast<height_t>(63 - __builtin_clzll(static_cast<unsigned long long>((col << 1) | 1)));
	cdqe
	bsr	rax, rax	# tmp400, tmp399
	xor	rax, 63	# tmp400,
# src/../include/Board.hpp:22:     return static_cast<height_t>(63 - __builtin_clzll(static_cast<unsigned long long>((col << 1) | 1)));
	sub	ebp, eax	# _81, tmp400
# src/../include/Board.hpp:209:         holes += height - __builtin_popcount(board[i]);
	call	__popcountdi2@PLT	#
# src/../include/Board.hpp:208:         aggregate_height += height;
	add	ebx, ebp	# aggregate_height, _81
# src/../include/Board.hpp:210:         bumpiness += abs(prev_height - height);
	mov	r9d, DWORD PTR 16[rsp]	# _148, %sfp
# src/../include/Board.hpp:209:         holes += height - __builtin_popcount(board[i]);
	movzx	ebp, bp	# _13, _81
# src/../include/Board.hpp:210:         bumpiness += abs(prev_height - height);
	mov	ecx, DWORD PTR 12[rsp]	# _114, %sfp
# src/../include/Board.hpp:209:         holes += height - __builtin_popcount(board[i]);
	mov	r11d, ebp	# tmp405, _13
# src/../include/Board.hpp:210:         bumpiness += abs(prev_height - height);
	mov	esi, DWORD PTR 20[rsp]	# _182, %sfp
# src/../include/Board.hpp:209:         holes += height - __builtin_popcount(board[i]);
	sub	r11d, eax	# tmp405, tmp404
# src/../include/Board.hpp:210:         bumpiness += abs(prev_height - height);
	mov	eax, r9d	# tmp406, _148
# src/../include/Board.hpp:212:         line_mask &= board[i];
	mov	r8d, DWORD PTR 40[rsp]	# _363, %sfp
# src/../include/Board.hpp:210:         bumpiness += abs(prev_height - height);
	sub	eax, ecx	# tmp406, _114
	sub	ecx, esi	# _114, _182
# src/../include/Board.hpp:209:         holes += height - __builtin_popcount(board[i]);
	add	r12d, r11d	# holes, tmp405
# src/../include/Board.hpp:210:         bumpiness += abs(prev_height - height);
	cdq
	mov	edi, ecx	# tmp411, tmp410
	xor	eax, edx	# tmp408, tmp407
	sar	edi, 31	# tmp411,
	sub	eax, edx	# tmp409, tmp407
# src/../include/Board.hpp:210:         bumpiness += abs(prev_height - height);
	mov	edx, ecx	# tmp410, _114
	mov	ecx, DWORD PTR 24[rsp]	# _216, %sfp
# src/../include/Board.hpp:210:         bumpiness += abs(prev_height - height);
	xor	edx, edi	# tmp412, tmp411
# src/../include/Board.hpp:210:         bumpiness += abs(prev_height - height);
	sub	esi, ecx	# _182, _216
# src/../include/Board.hpp:210:         bumpiness += abs(prev_height - height);
	sub	edx, edi	# tmp413, tmp411
# src/../include/Board.hpp:210:         bumpiness += abs(prev_height - height);
	add	edx, eax	# tmp414, tmp409
# src/../include/Board.hpp:210:         bumpiness += abs(prev_height - height);
	mov	eax, esi	# tmp416, tmp415
# src/../include/Board.hpp:210:         bumpiness += abs(prev_height - height);
	mov	edi, esi	# tmp415, _182
	mov	esi, ecx	# _216, _216
# src/../include/Board.hpp:210:         bumpiness += abs(prev_height - height);
	sar	eax, 31	# tmp416,
# src/../include/Board.hpp:210:         bumpiness += abs(prev_height - height);
	mov	ecx, DWORD PTR 28[rsp]	# _250, %sfp
# src/../include/Board.hpp:210:         bumpiness += abs(prev_height - height);
	xor	edi, eax	# tmp417, tmp416
# src/../include/Board.hpp:210:         bumpiness += abs(prev_height - height);
	sub	esi, ecx	# _216, _250
# src/../include/Board.hpp:210:         bumpiness += abs(prev_height - height);
	sub	edi, eax	# tmp418, tmp416
# src/../include/Board.hpp:210:         bumpiness += abs(prev_height - height);
	lea	eax, [rdx+rdi]	# tmp419,
# src/../include/Board.hpp:210:         bumpiness += abs(prev_height - height);
	mov	edx, esi	# tmp421, tmp420
	sar	edx, 31	# tmp421,
	xor	esi, edx	# tmp422, tmp421
	sub	esi, edx	# tmp423, tmp421
# src/../include/Board.hpp:210:         bumpiness += abs(prev_height - height);
	mov	edx, DWORD PTR 32[rsp]	# _284, %sfp
# src/../include/Board.hpp:210:         bumpiness += abs(prev_height - height);
	lea	edi, [rax+rsi]	# tmp424,
# src/../include/Board.hpp:210:         bumpiness += abs(prev_height - height);
	sub	ecx, edx	# _250, _284
# src/../include/Board.hpp:210:         bumpiness += abs(prev_height - height);
	mov	eax, ecx	# tmp426, tmp425
	sar	eax, 31	# tmp426,
	xor	ecx, eax	# tmp427, tmp426
# src/../include/Board.hpp:212:         line_mask &= board[i];
	and	r8d, r15d	# _22, _11
# src/../include/Board.hpp:210:         bumpiness += abs(prev_height - height);
	sub	ecx, eax	# tmp428, tmp426
# src/../include/Board.hpp:212:         line_mask &= board[i];
	mov	WORD PTR [r14], r8w	# *line_mask_53(D), _22
# src/../include/Board.hpp:210:         bumpiness += abs(prev_height - height);
	lea	esi, [rdi+rcx]	# tmp429,
# src/../include/Board.hpp:210:         bumpiness += abs(prev_height - height);
	mov	edi, DWORD PTR 36[rsp]	# _318, %sfp
	sub	edx, edi	# _284, _318
# src/../include/Board.hpp:210:         bumpiness += abs(prev_height - height);
	mov	eax, edx	# tmp431, tmp430
	sar	eax, 31	# tmp431,
	xor	edx, eax	# tmp432, tmp431
	sub	edx, eax	# tmp433, tmp431
# src/../include/Board.hpp:210:         bumpiness += abs(prev_height - height);
	mov	eax, edi	# _318, _318
# src/../include/Board.hpp:218:     int destroyed = __builtin_popcount(line_mask);
	movzx	edi, r8w	# _22, _22
# src/../include/Board.hpp:210:         bumpiness += abs(prev_height - height);
	sub	eax, r13d	# _318, _352
# src/../include/Board.hpp:210:         bumpiness += abs(prev_height - height);
	lea	ecx, [rsi+rdx]	# tmp434,
# src/../include/Board.hpp:210:         bumpiness += abs(prev_height - height);
	sub	r13d, ebp	# tmp440, _13
	mov	ebp, DWORD PTR 8[rsp]	# _4, %sfp
# src/../include/Board.hpp:210:         bumpiness += abs(prev_height - height);
	cdq
	xor	eax, edx	# tmp437, tmp436
# src/../include/Board.hpp:210:         bumpiness += abs(prev_height - height);
	sub	ebp, r9d	# _4, _148
# src/../include/Board.hpp:210:         bumpiness += abs(prev_height - height);
	sub	eax, edx	# tmp438, tmp436
# src/../include/Board.hpp:210:         bumpiness += abs(prev_height - height);
	lea	edx, [rcx+rax]	# tmp439,
# src/../include/Board.hpp:210:         bumpiness += abs(prev_height - height);
	mov	eax, r13d	# tmp441, tmp440
	sar	eax, 31	# tmp441,
	xor	r13d, eax	# tmp442, tmp441
	sub	r13d, eax	# tmp443, tmp441
# src/../include/Board.hpp:210:         bumpiness += abs(prev_height - height);
	lea	eax, [rdx+r13]	# tmp444,
# src/../include/Board.hpp:210:         bumpiness += abs(prev_height - height);
	mov	edx, ebp	# tmp446, tmp445
	sar	edx, 31	# tmp446,
	xor	ebp, edx	# tmp447, tmp446
	sub	ebp, edx	# tmp448, tmp446
# src/../include/Board.hpp:210:         bumpiness += abs(prev_height - height);
	add	ebp, eax	# bumpiness, tmp444
# src/../include/Board.hpp:218:     int destroyed = __builtin_popcount(line_mask);
	call	__popcountdi2@PLT	#
	mov	r13d, eax	# destroyed,
# src/../include/Board.hpp:220:     static const std::vector<double> params{-7.41268024719615503670411271741613745689392089843750, 9.55321583886473035818198695778846740722656250000000, -9.36675059128709897038334020180627703666687011718750, -3.28542000457770644317179176141507923603057861328125, };
	movzx	eax, BYTE PTR _ZGVZ36evaluate_board_GA_internet_no_paramsRKSt5arrayItLm10EERtE6params[rip]	# _25,
	test	al, al	# _25
	je	.L29	#,
.L23:
# src/../include/Board.hpp:222:     return params[0]*aggregate_height +
	movzx	ebx, bx	# aggregate_height, aggregate_height
	pxor	xmm0, xmm0	# tmp465
# src/../include/Board.hpp:223:         params[1]*destroyed +
	pxor	xmm1, xmm1	# tmp467
# src/../include/Board.hpp:224:         params[2]*holes +
	movzx	r12d, r12w	# holes, holes
# src/../include/Board.hpp:222:     return params[0]*aggregate_height +
	mov	rax, QWORD PTR _ZZ36evaluate_board_GA_internet_no_paramsRKSt5arrayItLm10EERtE6params[rip]	# _75, MEM[(double * *)&params]
# src/../include/Board.hpp:222:     return params[0]*aggregate_height +
	cvtsi2sd	xmm0, ebx	# tmp465, aggregate_height
# src/../include/Board.hpp:225:         params[3]*bumpiness;
	movzx	ebp, bp	# bumpiness, bumpiness
	pxor	xmm2, xmm2	# tmp474
# src/../include/Board.hpp:223:         params[1]*destroyed +
	cvtsi2sd	xmm1, r13d	# tmp467, destroyed
# src/../include/Board.hpp:222:     return params[0]*aggregate_height +
	mulsd	xmm0, QWORD PTR [rax]	# tmp466, MEM[(const value_type &)_75]
# src/../include/Board.hpp:225:         params[3]*bumpiness;
	cvtsi2sd	xmm2, ebp	# tmp474, bumpiness
# src/../include/Board.hpp:223:         params[1]*destroyed +
	mulsd	xmm1, QWORD PTR 8[rax]	# tmp468, MEM[(const value_type &)_75 + 8]
# src/../include/Board.hpp:225:         params[3]*bumpiness;
	mulsd	xmm2, QWORD PTR 24[rax]	# tmp475, MEM[(const value_type &)_75 + 24]
# src/../include/Board.hpp:225:         params[3]*bumpiness;
	addsd	xmm0, xmm1	# tmp469, tmp468
# src/../include/Board.hpp:224:         params[2]*holes +
	pxor	xmm1, xmm1	# tmp471
	cvtsi2sd	xmm1, r12d	# tmp471, holes
	mulsd	xmm1, QWORD PTR 16[rax]	# tmp472, MEM[(const value_type &)_75 + 16]
# src/../include/Board.hpp:229: }
	add	rsp, 56	#,
	.cfi_remember_state
	.cfi_def_cfa_offset 56
	pop	rbx	#
	.cfi_def_cfa_offset 48
	pop	rbp	#
	.cfi_def_cfa_offset 40
	pop	r12	#
	.cfi_def_cfa_offset 32
	pop	r13	#
	.cfi_def_cfa_offset 24
	pop	r14	#
	.cfi_def_cfa_offset 16
	pop	r15	#
	.cfi_def_cfa_offset 8
# src/../include/Board.hpp:225:         params[3]*bumpiness;
	addsd	xmm1, xmm2	# tmp476, tmp475
	addsd	xmm0, xmm1	# tmp463, tmp476
# src/../include/Board.hpp:229: }
	ret	
	.p2align 4,,10
	.p2align 3
.L29:
	.cfi_restore_state
# src/../include/Board.hpp:220:     static const std::vector<double> params{-7.41268024719615503670411271741613745689392089843750, 9.55321583886473035818198695778846740722656250000000, -9.36675059128709897038334020180627703666687011718750, -3.28542000457770644317179176141507923603057861328125, };
	lea	rdi, _ZGVZ36evaluate_board_GA_internet_no_paramsRKSt5arrayItLm10EERtE6params[rip]	#,
	call	__cxa_guard_acquire@PLT	#
	test	eax, eax	# _26
	je	.L23	#,
# /usr/include/c++/8/bits/stl_vector.h:100: 	: _Tp_alloc_type(__a), _M_start(), _M_finish(), _M_end_of_storage()
	pxor	xmm0, xmm0	# tmp453
# /usr/include/c++/8/ext/new_allocator.h:111: 	return static_cast<_Tp*>(::operator new(__n * sizeof(_Tp)));
	mov	edi, 32	#,
# /usr/include/c++/8/bits/stl_vector.h:100: 	: _Tp_alloc_type(__a), _M_start(), _M_finish(), _M_end_of_storage()
	mov	QWORD PTR _ZZ36evaluate_board_GA_internet_no_paramsRKSt5arrayItLm10EERtE6params[rip+16], 0	# MEM[(struct _Vector_impl *)&params]._M_end_of_storage,
	movaps	XMMWORD PTR _ZZ36evaluate_board_GA_internet_no_paramsRKSt5arrayItLm10EERtE6params[rip], xmm0	# MEM[(double * *)&params], tmp453
# /usr/include/c++/8/ext/new_allocator.h:111: 	return static_cast<_Tp*>(::operator new(__n * sizeof(_Tp)));
	call	_Znwm@PLT	#
# /usr/include/c++/8/bits/stl_algobase.h:368: 	    __builtin_memmove(__result, __first, sizeof(_Tp) * _Num);
	movdqa	xmm3, XMMWORD PTR ._98[rip]	# tmp526, MEM[(void *)&._98]
	movdqa	xmm4, XMMWORD PTR ._98[rip+16]	# tmp527, MEM[(void *)&._98]
# src/../include/Board.hpp:220:     static const std::vector<double> params{-7.41268024719615503670411271741613745689392089843750, 9.55321583886473035818198695778846740722656250000000, -9.36675059128709897038334020180627703666687011718750, -3.28542000457770644317179176141507923603057861328125, };
	lea	rdi, _ZGVZ36evaluate_board_GA_internet_no_paramsRKSt5arrayItLm10EERtE6params[rip]	#,
# /usr/include/c++/8/bits/stl_vector.h:1467: 	  this->_M_impl._M_end_of_storage = this->_M_impl._M_start + __n;
	lea	rdx, 32[rax]	# _92,
# /usr/include/c++/8/bits/stl_vector.h:1466: 	  this->_M_impl._M_start = this->_M_allocate(__n);
	mov	QWORD PTR _ZZ36evaluate_board_GA_internet_no_paramsRKSt5arrayItLm10EERtE6params[rip], rax	# params.D.63468._M_impl._M_start, tmp455
# /usr/include/c++/8/bits/stl_algobase.h:368: 	    __builtin_memmove(__result, __first, sizeof(_Tp) * _Num);
	movups	XMMWORD PTR [rax], xmm3	# MEM[(void *)_94], tmp526
	movups	XMMWORD PTR 16[rax], xmm4	# MEM[(void *)_94], tmp527
# /usr/include/c++/8/bits/stl_vector.h:1467: 	  this->_M_impl._M_end_of_storage = this->_M_impl._M_start + __n;
	mov	QWORD PTR _ZZ36evaluate_board_GA_internet_no_paramsRKSt5arrayItLm10EERtE6params[rip+16], rdx	# params.D.63468._M_impl._M_end_of_storage, _92
# /usr/include/c++/8/bits/stl_vector.h:1468: 	  this->_M_impl._M_finish =
	mov	QWORD PTR _ZZ36evaluate_board_GA_internet_no_paramsRKSt5arrayItLm10EERtE6params[rip+8], rdx	# params.D.63468._M_impl._M_finish, _92
# src/../include/Board.hpp:220:     static const std::vector<double> params{-7.41268024719615503670411271741613745689392089843750, 9.55321583886473035818198695778846740722656250000000, -9.36675059128709897038334020180627703666687011718750, -3.28542000457770644317179176141507923603057861328125, };
	call	__cxa_guard_release@PLT	#
	lea	rdx, __dso_handle[rip]	#,
	lea	rsi, _ZZ36evaluate_board_GA_internet_no_paramsRKSt5arrayItLm10EERtE6params[rip]	#,
	lea	rdi, _ZNSt6vectorIdSaIdEED1Ev[rip]	#,
	call	__cxa_atexit@PLT	#
	jmp	.L23	#
	.cfi_endproc
.LFE10170:
	.size	_Z36evaluate_board_GA_internet_no_paramsRKSt5arrayItLm10EERt, .-_Z36evaluate_board_GA_internet_no_paramsRKSt5arrayItLm10EERt
	.section	.text.unlikely,"ax",@progbits
.LCOLDB2:
	.text
.LHOTB2:
	.p2align 4,,15
	.type	_ZZN23gen_functor_array_innerI28find_best_board_tuple_switchvUlvE_7types_tIJPKSt5arrayItLm10EERPS4_S8_RdRKSt6vectorIdSaIdEEEES2_IJ9TetriminoIJ17TetriminoRotationIJtEEEESG_IJSI_SH_IJttEESI_SK_EESL_SG_IJSI_SK_EESM_SG_IJSK_SK_SI_SI_EESG_IJSH_IJEESH_IJtttEEEEEES2_IJSJ_SL_SM_SN_SQ_EESt16integer_sequenceImJLm0ELm1ELm2ELm3ELm4ELm5ELm6EEEEclES1_ENUlRKSt7variantIJSJ_SL_SM_SN_SQ_EEOS6_S8_S8_S9_SE_E5_4_FUNESZ_S10_S8_S8_S9_SE_, @function
_ZZN23gen_functor_array_innerI28find_best_board_tuple_switchvUlvE_7types_tIJPKSt5arrayItLm10EERPS4_S8_RdRKSt6vectorIdSaIdEEEES2_IJ9TetriminoIJ17TetriminoRotationIJtEEEESG_IJSI_SH_IJttEESI_SK_EESL_SG_IJSI_SK_EESM_SG_IJSK_SK_SI_SI_EESG_IJSH_IJEESH_IJtttEEEEEES2_IJSJ_SL_SM_SN_SQ_EESt16integer_sequenceImJLm0ELm1ELm2ELm3ELm4ELm5ELm6EEEEclES1_ENUlRKSt7variantIJSJ_SL_SM_SN_SQ_EEOS6_S8_S8_S9_SE_E5_4_FUNESZ_S10_S8_S8_S9_SE_:
.LFB10407:
	.cfi_startproc
	push	r15	#
	.cfi_def_cfa_offset 16
	.cfi_offset 15, -16
	push	r14	#
	.cfi_def_cfa_offset 24
	.cfi_offset 14, -24
	push	r13	#
	.cfi_def_cfa_offset 32
	.cfi_offset 13, -32
	push	r12	#
	.cfi_def_cfa_offset 40
	.cfi_offset 12, -40
	push	rbp	#
	.cfi_def_cfa_offset 48
	.cfi_offset 6, -48
	push	rbx	#
	.cfi_def_cfa_offset 56
	.cfi_offset 3, -56
	sub	rsp, 56	#,
	.cfi_def_cfa_offset 112
# /usr/include/c++/8/variant:1355:       if (__v.index() != _Np)
	cmp	BYTE PTR 28[rdi], 4	# MEM[(unsigned char *)_2(D) + 28B],
# src/../include/constexpr_func_arr.hpp:239: 		};
	mov	r14, QWORD PTR [rsi]	# _9, *_3(D)
# src/../include/constexpr_func_arr.hpp:233: 				[](variant_t const& vrnt, Args&&... args) noexcept-> Ret
	mov	QWORD PTR 8[rsp], rdx	# %sfp, D.154524
	mov	QWORD PTR [rsp], r8	# %sfp, D.154526
# /usr/include/c++/8/variant:1355:       if (__v.index() != _Np)
	jne	.L48	#,
	mov	rbx, rdi	# D.154522, D.154522
# src/../include/Board.hpp:390:         best_score = -INFINITY;
	mov	rdi, QWORD PTR .LC1[rip]	# tmp572,
	mov	r15, rcx	# D.154525, D.154525
# src/../include/Board.hpp:391:         *test_board = *input_board;
	xor	ebp, ebp	# ivtmp.214
	movdqu	xmm3, XMMWORD PTR [r14]	# tmp573, *_9
# src/../include/Board.hpp:390:         best_score = -INFINITY;
	mov	QWORD PTR [r8], rdi	# *_6(D), tmp572
# src/../include/Board.hpp:391:         *test_board = *input_board;
	mov	rdi, QWORD PTR [rcx]	# prephitmp_846, MEM[(struct Board * &)_5(D)]
	movups	XMMWORD PTR [rdi], xmm3	# *_12, tmp573
	mov	eax, DWORD PTR 16[r14]	# *_9, *_9
	mov	DWORD PTR 16[rdi], eax	# *_12, *_9
# src/../include/Board.hpp:419:                 test_board_score = evaluate_board_GA_internet_no_params(*test_board, line_mask);
	lea	rax, 46[rsp]	# tmp560,
	mov	QWORD PTR 16[rsp], rax	# %sfp, tmp560
	jmp	.L38	#
	.p2align 4,,10
	.p2align 3
.L49:
# src/../include/Board.hpp:108:         board[board_col + i] &= ~(tetrimino_rotation.tet_cols[i] << height);
	movzx	ecx, WORD PTR 10[rbx]	# MEM[(const value_type &)_2(D) + 10], MEM[(const value_type &)_2(D) + 10]
# src/../include/Board.hpp:430:                     unplace_tetrimino(*test_board, tetrimino_rotation, i, highest_drop_height);
	mov	rdi, QWORD PTR [r15]	# prephitmp_846, MEM[(struct Board * &)_5(D)]
# src/../include/Board.hpp:108:         board[board_col + i] &= ~(tetrimino_rotation.tet_cols[i] << height);
	shlx	eax, ecx, r12d	# tmp427, MEM[(const value_type &)_2(D) + 10], _140
# src/../include/Board.hpp:108:         board[board_col + i] &= ~(tetrimino_rotation.tet_cols[i] << height);
	not	eax	# tmp428
# src/../include/Board.hpp:108:         board[board_col + i] &= ~(tetrimino_rotation.tet_cols[i] << height);
	and	WORD PTR [rdi+r13], ax	# *_17, tmp428
.L33:
	add	rbp, 1	# ivtmp.214,
# src/../include/Board.hpp:395:             for (width_t i = 0; i < BLOCKS_W - tetrimino_rotation.tet_cols.size() + 1 ; i++)
	cmp	rbp, 10	# ivtmp.214,
	je	.L52	#,
.L38:
	lea	r13, [rbp+rbp]	# _933,
# src/../include/Tetrimino.hpp:18:         return __builtin_ffsll(tet_cols[col]) - 1;
	movzx	r8d, WORD PTR 10[rbx]	#, MEM[(const value_type &)_2(D) + 10]
# src/../include/Board.hpp:22:     return static_cast<height_t>(63 - __builtin_clzll(static_cast<unsigned long long>((col << 1) | 1)));
	mov	edx, 63	# _127,
	lea	rsi, [rdi+r13]	# _932,
# src/../include/Board.hpp:91:     return static_cast<int>(col_height(board[board_col])) - static_cast<int>(tetrimino_rotation.bottom_empty_spaces(tetrimino_col));
	movzx	eax, WORD PTR [rsi]	#, *_932
# src/../include/Tetrimino.hpp:18:         return __builtin_ffsll(tet_cols[col]) - 1;
	mov	r9, r8	#,
# src/../include/Board.hpp:91:     return static_cast<int>(col_height(board[board_col])) - static_cast<int>(tetrimino_rotation.bottom_empty_spaces(tetrimino_col));
	mov	ecx, eax	#,
# src/../include/Board.hpp:22:     return static_cast<height_t>(63 - __builtin_clzll(static_cast<unsigned long long>((col << 1) | 1)));
	lea	eax, 1[rax+rax]	# tmp365,
# src/../include/Board.hpp:22:     return static_cast<height_t>(63 - __builtin_clzll(static_cast<unsigned long long>((col << 1) | 1)));
	cdqe
	bsr	rax, rax	# tmp367, tmp366
	xor	rax, 63	# tmp367,
# src/../include/Board.hpp:22:     return static_cast<height_t>(63 - __builtin_clzll(static_cast<unsigned long long>((col << 1) | 1)));
	sub	edx, eax	# _127, tmp367
# src/../include/Tetrimino.hpp:18:         return __builtin_ffsll(tet_cols[col]) - 1;
	bsf	r8, r8	# tmp370, _129
# src/../include/Board.hpp:22:     return static_cast<height_t>(63 - __builtin_clzll(static_cast<unsigned long long>((col << 1) | 1)));
	movzx	r10d, dx	#, _127
# src/../include/Tetrimino.hpp:18:         return __builtin_ffsll(tet_cols[col]) - 1;
	mov	rdx, -1	# tmp576,
	cmove	r8, rdx	# tmp576,, _133
# src/../include/Board.hpp:22:     return static_cast<height_t>(63 - __builtin_clzll(static_cast<unsigned long long>((col << 1) | 1)));
	mov	eax, r10d	#,
# src/../include/Board.hpp:91:     return static_cast<int>(col_height(board[board_col])) - static_cast<int>(tetrimino_rotation.bottom_empty_spaces(tetrimino_col));
	movzx	r11d, r8w	# _133, _133
# src/../include/Board.hpp:91:     return static_cast<int>(col_height(board[board_col])) - static_cast<int>(tetrimino_rotation.bottom_empty_spaces(tetrimino_col));
	sub	r10d, r11d	# tmp374, _133
# src/../include/Board.hpp:410:                 if (highest_drop_height + tetrimino_rotation.height - 1 >= BLOCKS_H)
	movzx	r11d, WORD PTR 12[rbx]	# MEM[(const struct TetriminoRotation &)_2(D) + 10].height, MEM[(const struct TetriminoRotation &)_2(D) + 10].height
	add	r10d, r11d	# tmp376, MEM[(const struct TetriminoRotation &)_2(D) + 10].height
# src/../include/Board.hpp:410:                 if (highest_drop_height + tetrimino_rotation.height - 1 >= BLOCKS_H)
	cmp	r10d, 16	# tmp376,
	jg	.L33	#,
# src/../include/Board.hpp:414:                 place_tetrimino(*test_board, tetrimino_rotation, i, highest_drop_height);
	sub	eax, r8d	# tmp377, _133
	movzx	r12d, ax	# _140, tmp377
# src/../include/Board.hpp:99:         board[board_col + i] |= static_cast<height_t>(tetrimino_rotation.tet_cols[i] << height);
	shlx	r9d, r9d, r12d	# tmp379, _129, _140
# src/../include/Board.hpp:99:         board[board_col + i] |= static_cast<height_t>(tetrimino_rotation.tet_cols[i] << height);
	or	r9d, ecx	# tmp380, _120
	mov	WORD PTR [rsi], r9w	# MEM[(value_type &)_932], tmp380
# src/../include/Board.hpp:419:                 test_board_score = evaluate_board_GA_internet_no_params(*test_board, line_mask);
	mov	rsi, QWORD PTR 16[rsp]	#, %sfp
	call	_Z36evaluate_board_GA_internet_no_paramsRKSt5arrayItLm10EERt	#
# src/../include/Board.hpp:421:                 if (test_board_score > best_score)
	mov	rax, QWORD PTR [rsp]	# D.154526, %sfp
	comisd	xmm0, QWORD PTR [rax]	# test_board_score, *_6(D)
	jbe	.L49	#,
# src/../include/Board.hpp:423:                     best_score = test_board_score;
	movsd	QWORD PTR [rax], xmm0	# *_6(D), test_board_score
# src/../include/Board.hpp:135:     mask =~ mask;
	movzx	edx, WORD PTR 46[rsp]	# mask, line_mask
# src/../include/Board.hpp:424:                     destroy_lines_internet(*test_board, line_mask);
	mov	rax, QWORD PTR [r15]	# _150, MEM[(struct Board * &)_5(D)]
	add	rbp, 1	# ivtmp.214,
# /usr/include/c++/8/bits/move.h:194:       __a = _GLIBCXX_MOVE(__b);
	mov	rdi, QWORD PTR 8[rsp]	# D.154524, %sfp
# src/../include/Board.hpp:138:         board[i] = static_cast<height_t>(_pext_u32(board[i], mask));
	movzx	ecx, WORD PTR [rax]	# MEM[(value_type &)_150], MEM[(value_type &)_150]
# src/../include/Board.hpp:135:     mask =~ mask;
	not	edx	# mask
# src/../include/Board.hpp:138:         board[i] = static_cast<height_t>(_pext_u32(board[i], mask));
	movzx	edx, dx	# _519, mask
# /usr/lib/gcc/x86_64-linux-gnu/8/include/bmi2intrin.h:55:   return __builtin_ia32_pext_si (__X, __Y);
	pext	ecx, ecx, edx	# tmp384, MEM[(value_type &)_150], _519
# src/../include/Board.hpp:138:         board[i] = static_cast<height_t>(_pext_u32(board[i], mask));
	mov	WORD PTR [rax], cx	# MEM[(value_type &)_150], tmp384
# src/../include/Board.hpp:138:         board[i] = static_cast<height_t>(_pext_u32(board[i], mask));
	movzx	ecx, WORD PTR 2[rax]	# MEM[(value_type &)_150], MEM[(value_type &)_150]
# /usr/lib/gcc/x86_64-linux-gnu/8/include/bmi2intrin.h:55:   return __builtin_ia32_pext_si (__X, __Y);
	pext	ecx, ecx, edx	# tmp388, MEM[(value_type &)_150], _519
# src/../include/Board.hpp:138:         board[i] = static_cast<height_t>(_pext_u32(board[i], mask));
	mov	WORD PTR 2[rax], cx	# MEM[(value_type &)_150], tmp388
# src/../include/Board.hpp:138:         board[i] = static_cast<height_t>(_pext_u32(board[i], mask));
	movzx	ecx, WORD PTR 4[rax]	# MEM[(value_type &)_150], MEM[(value_type &)_150]
# /usr/lib/gcc/x86_64-linux-gnu/8/include/bmi2intrin.h:55:   return __builtin_ia32_pext_si (__X, __Y);
	pext	ecx, ecx, edx	# tmp392, MEM[(value_type &)_150], _519
# src/../include/Board.hpp:138:         board[i] = static_cast<height_t>(_pext_u32(board[i], mask));
	mov	WORD PTR 4[rax], cx	# MEM[(value_type &)_150], tmp392
# src/../include/Board.hpp:138:         board[i] = static_cast<height_t>(_pext_u32(board[i], mask));
	movzx	ecx, WORD PTR 6[rax]	# MEM[(value_type &)_150], MEM[(value_type &)_150]
# /usr/lib/gcc/x86_64-linux-gnu/8/include/bmi2intrin.h:55:   return __builtin_ia32_pext_si (__X, __Y);
	pext	ecx, ecx, edx	# tmp396, MEM[(value_type &)_150], _519
# src/../include/Board.hpp:138:         board[i] = static_cast<height_t>(_pext_u32(board[i], mask));
	mov	WORD PTR 6[rax], cx	# MEM[(value_type &)_150], tmp396
# src/../include/Board.hpp:138:         board[i] = static_cast<height_t>(_pext_u32(board[i], mask));
	movzx	ecx, WORD PTR 8[rax]	# MEM[(value_type &)_150], MEM[(value_type &)_150]
# /usr/lib/gcc/x86_64-linux-gnu/8/include/bmi2intrin.h:55:   return __builtin_ia32_pext_si (__X, __Y);
	pext	ecx, ecx, edx	# tmp400, MEM[(value_type &)_150], _519
# src/../include/Board.hpp:138:         board[i] = static_cast<height_t>(_pext_u32(board[i], mask));
	mov	WORD PTR 8[rax], cx	# MEM[(value_type &)_150], tmp400
# src/../include/Board.hpp:138:         board[i] = static_cast<height_t>(_pext_u32(board[i], mask));
	movzx	ecx, WORD PTR 10[rax]	# MEM[(value_type &)_150], MEM[(value_type &)_150]
# /usr/lib/gcc/x86_64-linux-gnu/8/include/bmi2intrin.h:55:   return __builtin_ia32_pext_si (__X, __Y);
	pext	ecx, ecx, edx	# tmp404, MEM[(value_type &)_150], _519
# src/../include/Board.hpp:138:         board[i] = static_cast<height_t>(_pext_u32(board[i], mask));
	mov	WORD PTR 10[rax], cx	# MEM[(value_type &)_150], tmp404
# src/../include/Board.hpp:138:         board[i] = static_cast<height_t>(_pext_u32(board[i], mask));
	movzx	ecx, WORD PTR 12[rax]	# MEM[(value_type &)_150], MEM[(value_type &)_150]
# /usr/lib/gcc/x86_64-linux-gnu/8/include/bmi2intrin.h:55:   return __builtin_ia32_pext_si (__X, __Y);
	pext	ecx, ecx, edx	# tmp408, MEM[(value_type &)_150], _519
# src/../include/Board.hpp:138:         board[i] = static_cast<height_t>(_pext_u32(board[i], mask));
	mov	WORD PTR 12[rax], cx	# MEM[(value_type &)_150], tmp408
# src/../include/Board.hpp:138:         board[i] = static_cast<height_t>(_pext_u32(board[i], mask));
	movzx	ecx, WORD PTR 14[rax]	# MEM[(value_type &)_150], MEM[(value_type &)_150]
# /usr/lib/gcc/x86_64-linux-gnu/8/include/bmi2intrin.h:55:   return __builtin_ia32_pext_si (__X, __Y);
	pext	ecx, ecx, edx	# tmp412, MEM[(value_type &)_150], _519
# src/../include/Board.hpp:138:         board[i] = static_cast<height_t>(_pext_u32(board[i], mask));
	mov	WORD PTR 14[rax], cx	# MEM[(value_type &)_150], tmp412
# src/../include/Board.hpp:138:         board[i] = static_cast<height_t>(_pext_u32(board[i], mask));
	movzx	ecx, WORD PTR 16[rax]	# MEM[(value_type &)_150], MEM[(value_type &)_150]
# /usr/lib/gcc/x86_64-linux-gnu/8/include/bmi2intrin.h:55:   return __builtin_ia32_pext_si (__X, __Y);
	pext	ecx, ecx, edx	# tmp416, MEM[(value_type &)_150], _519
# src/../include/Board.hpp:138:         board[i] = static_cast<height_t>(_pext_u32(board[i], mask));
	mov	WORD PTR 16[rax], cx	# MEM[(value_type &)_150], tmp416
# src/../include/Board.hpp:138:         board[i] = static_cast<height_t>(_pext_u32(board[i], mask));
	movzx	ecx, WORD PTR 18[rax]	# MEM[(value_type &)_150], MEM[(value_type &)_150]
# /usr/lib/gcc/x86_64-linux-gnu/8/include/bmi2intrin.h:55:   return __builtin_ia32_pext_si (__X, __Y);
	pext	edx, ecx, edx	# tmp420, MEM[(value_type &)_150], _519
# src/../include/Board.hpp:138:         board[i] = static_cast<height_t>(_pext_u32(board[i], mask));
	mov	WORD PTR 18[rax], dx	# MEM[(value_type &)_150], tmp420
# /usr/include/c++/8/bits/move.h:194:       __a = _GLIBCXX_MOVE(__b);
	mov	rdx, QWORD PTR [rdi]	# _161, MEM[(struct array * &)_4(D)]
# src/../include/Board.hpp:426:                     *test_board = *input_board;
	movdqu	xmm1, XMMWORD PTR [r14]	# tmp582, *_9
# /usr/include/c++/8/bits/move.h:194:       __a = _GLIBCXX_MOVE(__b);
	mov	QWORD PTR [r15], rdx	# *_5(D), _161
# /usr/include/c++/8/bits/move.h:195:       __b = _GLIBCXX_MOVE(__tmp);
	mov	QWORD PTR [rdi], rax	# *_4(D), _150
# src/../include/Board.hpp:426:                     *test_board = *input_board;
	mov	rdi, QWORD PTR [r15]	# prephitmp_846, MEM[(struct Board * &)_5(D)]
	movups	XMMWORD PTR [rdi], xmm1	# *_164, tmp582
	mov	eax, DWORD PTR 16[r14]	# *_9, *_9
	mov	DWORD PTR 16[rdi], eax	# *_164, *_9
# src/../include/Board.hpp:395:             for (width_t i = 0; i < BLOCKS_W - tetrimino_rotation.tet_cols.size() + 1 ; i++)
	cmp	rbp, 10	# ivtmp.214,
	jne	.L38	#,
.L52:
# src/../include/Board.hpp:419:                 test_board_score = evaluate_board_GA_internet_no_params(*test_board, line_mask);
	lea	rax, 46[rsp]	# tmp559,
# src/../include/Board.hpp:395:             for (width_t i = 0; i < BLOCKS_W - tetrimino_rotation.tet_cols.size() + 1 ; i++)
	mov	r13d, 1	# ivtmp.200,
# src/../include/Board.hpp:419:                 test_board_score = evaluate_board_GA_internet_no_params(*test_board, line_mask);
	mov	QWORD PTR 24[rsp], r14	# %sfp, _9
	mov	QWORD PTR 16[rsp], rax	# %sfp, tmp559
	jmp	.L37	#
	.p2align 4,,10
	.p2align 3
.L44:
# src/../include/Board.hpp:395:             for (width_t i = 0; i < BLOCKS_W - tetrimino_rotation.tet_cols.size() + 1 ; i++)
	cmp	r13, 8	# ivtmp.200,
	je	.L53	#,
.L37:
	lea	r12, [r13+r13]	# _495,
# src/../include/Tetrimino.hpp:18:         return __builtin_ffsll(tet_cols[col]) - 1;
	movzx	ebp, WORD PTR [rbx]	#, MEM[(const value_type &)_2(D)]
	movzx	r11d, WORD PTR 2[rbx]	# MEM[(const value_type &)_2(D)], MEM[(const value_type &)_2(D)]
	mov	rsi, -1	# tmp584,
	lea	rdx, [rdi+r12]	# _472,
# src/../include/Board.hpp:22:     return static_cast<height_t>(63 - __builtin_clzll(static_cast<unsigned long long>((col << 1) | 1)));
	mov	r14d, 63	# tmp445,
# src/../include/Board.hpp:91:     return static_cast<int>(col_height(board[board_col])) - static_cast<int>(tetrimino_rotation.bottom_empty_spaces(tetrimino_col));
	movzx	eax, WORD PTR -2[rdx]	#, MEM[(const value_type &)_472 + 18446744073709551614]
	movzx	r8d, WORD PTR [rdx]	#, *_472
# src/../include/Tetrimino.hpp:18:         return __builtin_ffsll(tet_cols[col]) - 1;
	mov	rcx, rbp	#,
# src/../include/Board.hpp:91:     return static_cast<int>(col_height(board[board_col])) - static_cast<int>(tetrimino_rotation.bottom_empty_spaces(tetrimino_col));
	mov	r10d, eax	#,
# src/../include/Board.hpp:22:     return static_cast<height_t>(63 - __builtin_clzll(static_cast<unsigned long long>((col << 1) | 1)));
	lea	eax, 1[rax+rax]	# tmp431,
# src/../include/Board.hpp:91:     return static_cast<int>(col_height(board[board_col])) - static_cast<int>(tetrimino_rotation.bottom_empty_spaces(tetrimino_col));
	mov	r9d, r8d	#,
# src/../include/Board.hpp:22:     return static_cast<height_t>(63 - __builtin_clzll(static_cast<unsigned long long>((col << 1) | 1)));
	cdqe
# src/../include/Board.hpp:22:     return static_cast<height_t>(63 - __builtin_clzll(static_cast<unsigned long long>((col << 1) | 1)));
	lea	r8d, 1[r8+r8]	# tmp439,
# src/../include/Board.hpp:22:     return static_cast<height_t>(63 - __builtin_clzll(static_cast<unsigned long long>((col << 1) | 1)));
	bsr	rax, rax	# tmp433, tmp432
	movsx	r8, r8d	# tmp440, tmp439
	xor	rax, 63	# tmp433,
# src/../include/Tetrimino.hpp:18:         return __builtin_ffsll(tet_cols[col]) - 1;
	bsf	rbp, rbp	# tmp435, _30
	cmove	rbp, rsi	# tmp584,, tmp435
# src/../include/Board.hpp:22:     return static_cast<height_t>(63 - __builtin_clzll(static_cast<unsigned long long>((col << 1) | 1)));
	bsr	r8, r8	# tmp441, tmp440
	xor	r8, 63	# tmp441,
# src/../include/Tetrimino.hpp:18:         return __builtin_ffsll(tet_cols[col]) - 1;
	bsf	r11, r11	# tmp443, MEM[(const value_type &)_2(D)]
	cmove	r11, rsi	# tmp585,, tmp443
# src/../include/Board.hpp:22:     return static_cast<height_t>(63 - __builtin_clzll(static_cast<unsigned long long>((col << 1) | 1)));
	sub	r14d, eax	# tmp445, tmp433
# src/../include/Board.hpp:91:     return static_cast<int>(col_height(board[board_col])) - static_cast<int>(tetrimino_rotation.bottom_empty_spaces(tetrimino_col));
	movzx	ebp, bp	# tmp449, tmp435
# src/../include/Board.hpp:22:     return static_cast<height_t>(63 - __builtin_clzll(static_cast<unsigned long long>((col << 1) | 1)));
	movzx	eax, r14w	#, tmp445
	mov	r14d, 63	# tmp451,
	sub	r14d, r8d	# tmp451, tmp441
# src/../include/Board.hpp:91:     return static_cast<int>(col_height(board[board_col])) - static_cast<int>(tetrimino_rotation.bottom_empty_spaces(tetrimino_col));
	movzx	r11d, r11w	# tmp455, tmp443
# src/../include/Board.hpp:91:     return static_cast<int>(col_height(board[board_col])) - static_cast<int>(tetrimino_rotation.bottom_empty_spaces(tetrimino_col));
	sub	eax, ebp	# tmp450, tmp449
# src/../include/Tetrimino.hpp:18:         return __builtin_ffsll(tet_cols[col]) - 1;
	mov	rbp, -1	# tmp588,
# src/../include/Board.hpp:22:     return static_cast<height_t>(63 - __builtin_clzll(static_cast<unsigned long long>((col << 1) | 1)));
	movzx	esi, r14w	#, tmp451
	mov	r14d, 63	# tmp465,
# src/../include/Board.hpp:91:     return static_cast<int>(col_height(board[board_col])) - static_cast<int>(tetrimino_rotation.bottom_empty_spaces(tetrimino_col));
	sub	esi, r11d	# tmp456, tmp455
# src/../include/Tetrimino.hpp:18:         return __builtin_ffsll(tet_cols[col]) - 1;
	movzx	r11d, WORD PTR 4[rbx]	# MEM[(const value_type &)_2(D)], MEM[(const value_type &)_2(D)]
	cmp	eax, esi	# tmp450, tmp456
	cmovge	esi, eax	# tmp450,, highest_drop_height
# src/../include/Board.hpp:91:     return static_cast<int>(col_height(board[board_col])) - static_cast<int>(tetrimino_rotation.bottom_empty_spaces(tetrimino_col));
	movzx	eax, WORD PTR 2[rdx]	#, MEM[(const value_type &)_472 + 2]
	add	r13, 1	# ivtmp.200,
	mov	r8d, eax	#,
# src/../include/Board.hpp:22:     return static_cast<height_t>(63 - __builtin_clzll(static_cast<unsigned long long>((col << 1) | 1)));
	lea	eax, 1[rax+rax]	# tmp459,
# src/../include/Board.hpp:22:     return static_cast<height_t>(63 - __builtin_clzll(static_cast<unsigned long long>((col << 1) | 1)));
	cdqe
	bsr	rax, rax	# tmp461, tmp460
	xor	rax, 63	# tmp461,
# src/../include/Tetrimino.hpp:18:         return __builtin_ffsll(tet_cols[col]) - 1;
	bsf	r11, r11	# tmp463, MEM[(const value_type &)_2(D)]
	cmove	r11, rbp	# tmp588,, tmp463
# src/../include/Board.hpp:22:     return static_cast<height_t>(63 - __builtin_clzll(static_cast<unsigned long long>((col << 1) | 1)));
	sub	r14d, eax	# tmp465, tmp461
# src/../include/Board.hpp:91:     return static_cast<int>(col_height(board[board_col])) - static_cast<int>(tetrimino_rotation.bottom_empty_spaces(tetrimino_col));
	movzx	ebp, WORD PTR 4[rdx]	#, MEM[(const value_type &)_472 + 4]
# src/../include/Board.hpp:22:     return static_cast<height_t>(63 - __builtin_clzll(static_cast<unsigned long long>((col << 1) | 1)));
	movzx	eax, r14w	#, tmp465
# src/../include/Tetrimino.hpp:18:         return __builtin_ffsll(tet_cols[col]) - 1;
	mov	r14, -1	# tmp590,
# src/../include/Board.hpp:91:     return static_cast<int>(col_height(board[board_col])) - static_cast<int>(tetrimino_rotation.bottom_empty_spaces(tetrimino_col));
	movzx	r11d, r11w	# tmp469, tmp463
# src/../include/Board.hpp:91:     return static_cast<int>(col_height(board[board_col])) - static_cast<int>(tetrimino_rotation.bottom_empty_spaces(tetrimino_col));
	sub	eax, r11d	# tmp470, tmp469
# src/../include/Tetrimino.hpp:18:         return __builtin_ffsll(tet_cols[col]) - 1;
	movzx	r11d, WORD PTR 6[rbx]	# MEM[(const value_type &)_2(D)], MEM[(const value_type &)_2(D)]
	cmp	eax, esi	# tmp470, highest_drop_height
	cmovl	eax, esi	# tmp470,, highest_drop_height, highest_drop_height
# src/../include/Board.hpp:91:     return static_cast<int>(col_height(board[board_col])) - static_cast<int>(tetrimino_rotation.bottom_empty_spaces(tetrimino_col));
	mov	esi, ebp	#,
# src/../include/Board.hpp:22:     return static_cast<height_t>(63 - __builtin_clzll(static_cast<unsigned long long>((col << 1) | 1)));
	lea	ebp, 1[rbp+rbp]	# tmp473,
# src/../include/Board.hpp:22:     return static_cast<height_t>(63 - __builtin_clzll(static_cast<unsigned long long>((col << 1) | 1)));
	movsx	rbp, ebp	# tmp474, tmp473
	bsr	rbp, rbp	# tmp475, tmp474
	xor	rbp, 63	# tmp475,
# src/../include/Tetrimino.hpp:18:         return __builtin_ffsll(tet_cols[col]) - 1;
	bsf	r11, r11	# tmp477, MEM[(const value_type &)_2(D)]
	cmove	r11, r14	# tmp590,, tmp477
# src/../include/Board.hpp:22:     return static_cast<height_t>(63 - __builtin_clzll(static_cast<unsigned long long>((col << 1) | 1)));
	mov	r14d, 63	# tmp479,
	sub	r14d, ebp	# tmp479, tmp475
	movzx	ebp, r14w	#, tmp479
# src/../include/Board.hpp:91:     return static_cast<int>(col_height(board[board_col])) - static_cast<int>(tetrimino_rotation.bottom_empty_spaces(tetrimino_col));
	movzx	r11d, r11w	# tmp483, tmp477
# src/../include/Board.hpp:91:     return static_cast<int>(col_height(board[board_col])) - static_cast<int>(tetrimino_rotation.bottom_empty_spaces(tetrimino_col));
	sub	ebp, r11d	# tmp484, tmp483
	cmp	ebp, eax	# tmp484, highest_drop_height
	cmovl	ebp, eax	# tmp484,, highest_drop_height, highest_drop_height
# src/../include/Board.hpp:410:                 if (highest_drop_height + tetrimino_rotation.height - 1 >= BLOCKS_H)
	movzx	eax, WORD PTR 8[rbx]	# MEM[(const struct TetriminoRotation &)_2(D)].height, MEM[(const struct TetriminoRotation &)_2(D)].height
	add	eax, ebp	# tmp486, highest_drop_height
# src/../include/Board.hpp:410:                 if (highest_drop_height + tetrimino_rotation.height - 1 >= BLOCKS_H)
	cmp	eax, 16	# tmp486,
	jg	.L44	#,
	movzx	ebp, bp	# _63, highest_drop_height
# src/../include/Board.hpp:99:         board[board_col + i] |= static_cast<height_t>(tetrimino_rotation.tet_cols[i] << height);
	shlx	ecx, ecx, ebp	# tmp488, _30, _63
# src/../include/Board.hpp:99:         board[board_col + i] |= static_cast<height_t>(tetrimino_rotation.tet_cols[i] << height);
	or	ecx, r10d	# tmp489, _21
	mov	WORD PTR -2[rdx], cx	# MEM[(value_type &)_472 + 18446744073709551614], tmp489
# src/../include/Board.hpp:99:         board[board_col + i] |= static_cast<height_t>(tetrimino_rotation.tet_cols[i] << height);
	movzx	eax, WORD PTR 2[rbx]	# MEM[(const value_type &)_2(D)], MEM[(const value_type &)_2(D)]
	shlx	eax, eax, ebp	# tmp491, MEM[(const value_type &)_2(D)], _63
# src/../include/Board.hpp:99:         board[board_col + i] |= static_cast<height_t>(tetrimino_rotation.tet_cols[i] << height);
	or	r9d, eax	# tmp492, tmp491
	mov	WORD PTR [rdx], r9w	# MEM[(value_type &)_472], tmp492
# src/../include/Board.hpp:99:         board[board_col + i] |= static_cast<height_t>(tetrimino_rotation.tet_cols[i] << height);
	movzx	eax, WORD PTR 4[rbx]	# MEM[(const value_type &)_2(D)], MEM[(const value_type &)_2(D)]
	shlx	eax, eax, ebp	# tmp494, MEM[(const value_type &)_2(D)], _63
# src/../include/Board.hpp:99:         board[board_col + i] |= static_cast<height_t>(tetrimino_rotation.tet_cols[i] << height);
	or	r8d, eax	# tmp495, tmp494
	mov	WORD PTR 2[rdx], r8w	# MEM[(value_type &)_472 + 2], tmp495
# src/../include/Board.hpp:99:         board[board_col + i] |= static_cast<height_t>(tetrimino_rotation.tet_cols[i] << height);
	movzx	eax, WORD PTR 6[rbx]	# MEM[(const value_type &)_2(D)], MEM[(const value_type &)_2(D)]
	shlx	eax, eax, ebp	# tmp497, MEM[(const value_type &)_2(D)], _63
# src/../include/Board.hpp:99:         board[board_col + i] |= static_cast<height_t>(tetrimino_rotation.tet_cols[i] << height);
	or	esi, eax	# tmp498, tmp497
	mov	WORD PTR 4[rdx], si	# MEM[(value_type &)_472 + 4], tmp498
# src/../include/Board.hpp:419:                 test_board_score = evaluate_board_GA_internet_no_params(*test_board, line_mask);
	mov	rsi, QWORD PTR 16[rsp]	#, %sfp
	call	_Z36evaluate_board_GA_internet_no_paramsRKSt5arrayItLm10EERt	#
# src/../include/Board.hpp:421:                 if (test_board_score > best_score)
	mov	rax, QWORD PTR [rsp]	# D.154526, %sfp
	comisd	xmm0, QWORD PTR [rax]	# test_board_score, *_6(D)
	jbe	.L50	#,
# src/../include/Board.hpp:423:                     best_score = test_board_score;
	movsd	QWORD PTR [rax], xmm0	# *_6(D), test_board_score
# src/../include/Board.hpp:135:     mask =~ mask;
	movzx	edx, WORD PTR 46[rsp]	# mask, line_mask
# src/../include/Board.hpp:424:                     destroy_lines_internet(*test_board, line_mask);
	mov	rax, QWORD PTR [r15]	# _81, MEM[(struct Board * &)_5(D)]
# /usr/include/c++/8/bits/move.h:194:       __a = _GLIBCXX_MOVE(__b);
	mov	rsi, QWORD PTR 8[rsp]	# D.154524, %sfp
# src/../include/Board.hpp:138:         board[i] = static_cast<height_t>(_pext_u32(board[i], mask));
	movzx	ecx, WORD PTR [rax]	# MEM[(value_type &)_81], MEM[(value_type &)_81]
# src/../include/Board.hpp:135:     mask =~ mask;
	not	edx	# mask
# src/../include/Board.hpp:138:         board[i] = static_cast<height_t>(_pext_u32(board[i], mask));
	movzx	edx, dx	# _8, mask
# /usr/lib/gcc/x86_64-linux-gnu/8/include/bmi2intrin.h:55:   return __builtin_ia32_pext_si (__X, __Y);
	pext	ecx, ecx, edx	# tmp502, MEM[(value_type &)_81], _8
# src/../include/Board.hpp:138:         board[i] = static_cast<height_t>(_pext_u32(board[i], mask));
	mov	WORD PTR [rax], cx	# MEM[(value_type &)_81], tmp502
# src/../include/Board.hpp:138:         board[i] = static_cast<height_t>(_pext_u32(board[i], mask));
	movzx	ecx, WORD PTR 2[rax]	# MEM[(value_type &)_81], MEM[(value_type &)_81]
# /usr/lib/gcc/x86_64-linux-gnu/8/include/bmi2intrin.h:55:   return __builtin_ia32_pext_si (__X, __Y);
	pext	ecx, ecx, edx	# tmp506, MEM[(value_type &)_81], _8
# src/../include/Board.hpp:138:         board[i] = static_cast<height_t>(_pext_u32(board[i], mask));
	mov	WORD PTR 2[rax], cx	# MEM[(value_type &)_81], tmp506
# src/../include/Board.hpp:138:         board[i] = static_cast<height_t>(_pext_u32(board[i], mask));
	movzx	ecx, WORD PTR 4[rax]	# MEM[(value_type &)_81], MEM[(value_type &)_81]
# /usr/lib/gcc/x86_64-linux-gnu/8/include/bmi2intrin.h:55:   return __builtin_ia32_pext_si (__X, __Y);
	pext	ecx, ecx, edx	# tmp510, MEM[(value_type &)_81], _8
# src/../include/Board.hpp:138:         board[i] = static_cast<height_t>(_pext_u32(board[i], mask));
	mov	WORD PTR 4[rax], cx	# MEM[(value_type &)_81], tmp510
# src/../include/Board.hpp:138:         board[i] = static_cast<height_t>(_pext_u32(board[i], mask));
	movzx	ecx, WORD PTR 6[rax]	# MEM[(value_type &)_81], MEM[(value_type &)_81]
# /usr/lib/gcc/x86_64-linux-gnu/8/include/bmi2intrin.h:55:   return __builtin_ia32_pext_si (__X, __Y);
	pext	ecx, ecx, edx	# tmp514, MEM[(value_type &)_81], _8
# src/../include/Board.hpp:138:         board[i] = static_cast<height_t>(_pext_u32(board[i], mask));
	mov	WORD PTR 6[rax], cx	# MEM[(value_type &)_81], tmp514
# src/../include/Board.hpp:138:         board[i] = static_cast<height_t>(_pext_u32(board[i], mask));
	movzx	ecx, WORD PTR 8[rax]	# MEM[(value_type &)_81], MEM[(value_type &)_81]
# /usr/lib/gcc/x86_64-linux-gnu/8/include/bmi2intrin.h:55:   return __builtin_ia32_pext_si (__X, __Y);
	pext	ecx, ecx, edx	# tmp518, MEM[(value_type &)_81], _8
# src/../include/Board.hpp:138:         board[i] = static_cast<height_t>(_pext_u32(board[i], mask));
	mov	WORD PTR 8[rax], cx	# MEM[(value_type &)_81], tmp518
# src/../include/Board.hpp:138:         board[i] = static_cast<height_t>(_pext_u32(board[i], mask));
	movzx	ecx, WORD PTR 10[rax]	# MEM[(value_type &)_81], MEM[(value_type &)_81]
# /usr/lib/gcc/x86_64-linux-gnu/8/include/bmi2intrin.h:55:   return __builtin_ia32_pext_si (__X, __Y);
	pext	ecx, ecx, edx	# tmp522, MEM[(value_type &)_81], _8
# src/../include/Board.hpp:138:         board[i] = static_cast<height_t>(_pext_u32(board[i], mask));
	mov	WORD PTR 10[rax], cx	# MEM[(value_type &)_81], tmp522
# src/../include/Board.hpp:138:         board[i] = static_cast<height_t>(_pext_u32(board[i], mask));
	movzx	ecx, WORD PTR 12[rax]	# MEM[(value_type &)_81], MEM[(value_type &)_81]
# /usr/lib/gcc/x86_64-linux-gnu/8/include/bmi2intrin.h:55:   return __builtin_ia32_pext_si (__X, __Y);
	pext	ecx, ecx, edx	# tmp526, MEM[(value_type &)_81], _8
# src/../include/Board.hpp:138:         board[i] = static_cast<height_t>(_pext_u32(board[i], mask));
	mov	WORD PTR 12[rax], cx	# MEM[(value_type &)_81], tmp526
# src/../include/Board.hpp:138:         board[i] = static_cast<height_t>(_pext_u32(board[i], mask));
	movzx	ecx, WORD PTR 14[rax]	# MEM[(value_type &)_81], MEM[(value_type &)_81]
# /usr/lib/gcc/x86_64-linux-gnu/8/include/bmi2intrin.h:55:   return __builtin_ia32_pext_si (__X, __Y);
	pext	ecx, ecx, edx	# tmp530, MEM[(value_type &)_81], _8
# src/../include/Board.hpp:138:         board[i] = static_cast<height_t>(_pext_u32(board[i], mask));
	mov	WORD PTR 14[rax], cx	# MEM[(value_type &)_81], tmp530
# src/../include/Board.hpp:138:         board[i] = static_cast<height_t>(_pext_u32(board[i], mask));
	movzx	ecx, WORD PTR 16[rax]	# MEM[(value_type &)_81], MEM[(value_type &)_81]
# /usr/lib/gcc/x86_64-linux-gnu/8/include/bmi2intrin.h:55:   return __builtin_ia32_pext_si (__X, __Y);
	pext	ecx, ecx, edx	# tmp534, MEM[(value_type &)_81], _8
# src/../include/Board.hpp:138:         board[i] = static_cast<height_t>(_pext_u32(board[i], mask));
	mov	WORD PTR 16[rax], cx	# MEM[(value_type &)_81], tmp534
# src/../include/Board.hpp:138:         board[i] = static_cast<height_t>(_pext_u32(board[i], mask));
	movzx	ecx, WORD PTR 18[rax]	# MEM[(value_type &)_81], MEM[(value_type &)_81]
# /usr/lib/gcc/x86_64-linux-gnu/8/include/bmi2intrin.h:55:   return __builtin_ia32_pext_si (__X, __Y);
	pext	edx, ecx, edx	# tmp538, MEM[(value_type &)_81], _8
# src/../include/Board.hpp:138:         board[i] = static_cast<height_t>(_pext_u32(board[i], mask));
	mov	WORD PTR 18[rax], dx	# MEM[(value_type &)_81], tmp538
# /usr/include/c++/8/bits/move.h:194:       __a = _GLIBCXX_MOVE(__b);
	mov	rdx, QWORD PTR [rsi]	# _92, MEM[(struct array * &)_4(D)]
	mov	QWORD PTR [r15], rdx	# *_5(D), _92
# /usr/include/c++/8/bits/move.h:195:       __b = _GLIBCXX_MOVE(__tmp);
	mov	QWORD PTR [rsi], rax	# *_4(D), _81
# src/../include/Board.hpp:426:                     *test_board = *input_board;
	mov	rax, QWORD PTR 24[rsp]	# _9, %sfp
	mov	rdi, QWORD PTR [r15]	# prephitmp_846, MEM[(struct Board * &)_5(D)]
	movdqu	xmm2, XMMWORD PTR [rax]	# tmp597, *_9
	movups	XMMWORD PTR [rdi], xmm2	# *_95, tmp597
	mov	eax, DWORD PTR 16[rax]	# *_9, *_9
	mov	DWORD PTR 16[rdi], eax	# *_95, *_9
# src/../include/Board.hpp:395:             for (width_t i = 0; i < BLOCKS_W - tetrimino_rotation.tet_cols.size() + 1 ; i++)
	cmp	r13, 8	# ivtmp.200,
	jne	.L37	#,
.L53:
# src/../include/constexpr_func_arr.hpp:239: 		};
	add	rsp, 56	#,
	.cfi_remember_state
	.cfi_def_cfa_offset 56
	pop	rbx	#
	.cfi_def_cfa_offset 48
	pop	rbp	#
	.cfi_def_cfa_offset 40
	pop	r12	#
	.cfi_def_cfa_offset 32
	pop	r13	#
	.cfi_def_cfa_offset 24
	pop	r14	#
	.cfi_def_cfa_offset 16
	pop	r15	#
	.cfi_def_cfa_offset 8
	ret	
	.p2align 4,,10
	.p2align 3
.L50:
	.cfi_restore_state
	mov	rdi, QWORD PTR [r15]	# prephitmp_846, MEM[(struct Board * &)_5(D)]
# src/../include/Board.hpp:108:         board[board_col + i] &= ~(tetrimino_rotation.tet_cols[i] << height);
	movzx	eax, WORD PTR [rbx]	# MEM[(const value_type &)_2(D)], MEM[(const value_type &)_2(D)]
	add	r12, rdi	# _905, prephitmp_846
	shlx	eax, eax, ebp	# tmp547, MEM[(const value_type &)_2(D)], _63
# src/../include/Board.hpp:108:         board[board_col + i] &= ~(tetrimino_rotation.tet_cols[i] << height);
	not	eax	# tmp548
# src/../include/Board.hpp:108:         board[board_col + i] &= ~(tetrimino_rotation.tet_cols[i] << height);
	and	WORD PTR -2[r12], ax	# MEM[(value_type &)_905 + 18446744073709551614], tmp548
# src/../include/Board.hpp:108:         board[board_col + i] &= ~(tetrimino_rotation.tet_cols[i] << height);
	movzx	eax, WORD PTR 2[rbx]	# MEM[(const value_type &)_2(D)], MEM[(const value_type &)_2(D)]
	shlx	eax, eax, ebp	# tmp550, MEM[(const value_type &)_2(D)], _63
# src/../include/Board.hpp:108:         board[board_col + i] &= ~(tetrimino_rotation.tet_cols[i] << height);
	not	eax	# tmp551
# src/../include/Board.hpp:108:         board[board_col + i] &= ~(tetrimino_rotation.tet_cols[i] << height);
	and	WORD PTR [r12], ax	# *_905, tmp551
# src/../include/Board.hpp:108:         board[board_col + i] &= ~(tetrimino_rotation.tet_cols[i] << height);
	movzx	eax, WORD PTR 4[rbx]	# MEM[(const value_type &)_2(D)], MEM[(const value_type &)_2(D)]
	shlx	eax, eax, ebp	# tmp553, MEM[(const value_type &)_2(D)], _63
# src/../include/Board.hpp:108:         board[board_col + i] &= ~(tetrimino_rotation.tet_cols[i] << height);
	not	eax	# tmp554
# src/../include/Board.hpp:108:         board[board_col + i] &= ~(tetrimino_rotation.tet_cols[i] << height);
	and	WORD PTR 2[r12], ax	# MEM[(value_type &)_905 + 2], tmp554
# src/../include/Board.hpp:108:         board[board_col + i] &= ~(tetrimino_rotation.tet_cols[i] << height);
	movzx	eax, WORD PTR 6[rbx]	# MEM[(const value_type &)_2(D)], MEM[(const value_type &)_2(D)]
	shlx	ebp, eax, ebp	# tmp556, MEM[(const value_type &)_2(D)], _63
# src/../include/Board.hpp:108:         board[board_col + i] &= ~(tetrimino_rotation.tet_cols[i] << height);
	not	ebp	# tmp557
# src/../include/Board.hpp:108:         board[board_col + i] &= ~(tetrimino_rotation.tet_cols[i] << height);
	and	WORD PTR 4[r12], bp	# MEM[(value_type &)_905 + 4], tmp557
	jmp	.L44	#
	.cfi_endproc
	.section	.text.unlikely
	.cfi_startproc
	.type	_ZZN23gen_functor_array_innerI28find_best_board_tuple_switchvUlvE_7types_tIJPKSt5arrayItLm10EERPS4_S8_RdRKSt6vectorIdSaIdEEEES2_IJ9TetriminoIJ17TetriminoRotationIJtEEEESG_IJSI_SH_IJttEESI_SK_EESL_SG_IJSI_SK_EESM_SG_IJSK_SK_SI_SI_EESG_IJSH_IJEESH_IJtttEEEEEES2_IJSJ_SL_SM_SN_SQ_EESt16integer_sequenceImJLm0ELm1ELm2ELm3ELm4ELm5ELm6EEEEclES1_ENUlRKSt7variantIJSJ_SL_SM_SN_SQ_EEOS6_S8_S8_S9_SE_E5_4_FUNESZ_S10_S8_S8_S9_SE_.cold.102, @function
_ZZN23gen_functor_array_innerI28find_best_board_tuple_switchvUlvE_7types_tIJPKSt5arrayItLm10EERPS4_S8_RdRKSt6vectorIdSaIdEEEES2_IJ9TetriminoIJ17TetriminoRotationIJtEEEESG_IJSI_SH_IJttEESI_SK_EESL_SG_IJSI_SK_EESM_SG_IJSK_SK_SI_SI_EESG_IJSH_IJEESH_IJtttEEEEEES2_IJSJ_SL_SM_SN_SQ_EESt16integer_sequenceImJLm0ELm1ELm2ELm3ELm4ELm5ELm6EEEEclES1_ENUlRKSt7variantIJSJ_SL_SM_SN_SQ_EEOS6_S8_S8_S9_SE_E5_4_FUNESZ_S10_S8_S8_S9_SE_.cold.102:
.LFSB10407:
.L48:
	.cfi_def_cfa_offset 112
	.cfi_offset 3, -56
	.cfi_offset 6, -48
	.cfi_offset 12, -40
	.cfi_offset 13, -32
	.cfi_offset 14, -24
	.cfi_offset 15, -16
# /usr/include/c++/8/variant:1023:   { _GLIBCXX_THROW_OR_ABORT(bad_variant_access(__what)); }
	call	abort@PLT	#
	.cfi_endproc
.LFE10407:
	.text
	.size	_ZZN23gen_functor_array_innerI28find_best_board_tuple_switchvUlvE_7types_tIJPKSt5arrayItLm10EERPS4_S8_RdRKSt6vectorIdSaIdEEEES2_IJ9TetriminoIJ17TetriminoRotationIJtEEEESG_IJSI_SH_IJttEESI_SK_EESL_SG_IJSI_SK_EESM_SG_IJSK_SK_SI_SI_EESG_IJSH_IJEESH_IJtttEEEEEES2_IJSJ_SL_SM_SN_SQ_EESt16integer_sequenceImJLm0ELm1ELm2ELm3ELm4ELm5ELm6EEEEclES1_ENUlRKSt7variantIJSJ_SL_SM_SN_SQ_EEOS6_S8_S8_S9_SE_E5_4_FUNESZ_S10_S8_S8_S9_SE_, .-_ZZN23gen_functor_array_innerI28find_best_board_tuple_switchvUlvE_7types_tIJPKSt5arrayItLm10EERPS4_S8_RdRKSt6vectorIdSaIdEEEES2_IJ9TetriminoIJ17TetriminoRotationIJtEEEESG_IJSI_SH_IJttEESI_SK_EESL_SG_IJSI_SK_EESM_SG_IJSK_SK_SI_SI_EESG_IJSH_IJEESH_IJtttEEEEEES2_IJSJ_SL_SM_SN_SQ_EESt16integer_sequenceImJLm0ELm1ELm2ELm3ELm4ELm5ELm6EEEEclES1_ENUlRKSt7variantIJSJ_SL_SM_SN_SQ_EEOS6_S8_S8_S9_SE_E5_4_FUNESZ_S10_S8_S8_S9_SE_
	.section	.text.unlikely
	.size	_ZZN23gen_functor_array_innerI28find_best_board_tuple_switchvUlvE_7types_tIJPKSt5arrayItLm10EERPS4_S8_RdRKSt6vectorIdSaIdEEEES2_IJ9TetriminoIJ17TetriminoRotationIJtEEEESG_IJSI_SH_IJttEESI_SK_EESL_SG_IJSI_SK_EESM_SG_IJSK_SK_SI_SI_EESG_IJSH_IJEESH_IJtttEEEEEES2_IJSJ_SL_SM_SN_SQ_EESt16integer_sequenceImJLm0ELm1ELm2ELm3ELm4ELm5ELm6EEEEclES1_ENUlRKSt7variantIJSJ_SL_SM_SN_SQ_EEOS6_S8_S8_S9_SE_E5_4_FUNESZ_S10_S8_S8_S9_SE_.cold.102, .-_ZZN23gen_functor_array_innerI28find_best_board_tuple_switchvUlvE_7types_tIJPKSt5arrayItLm10EERPS4_S8_RdRKSt6vectorIdSaIdEEEES2_IJ9TetriminoIJ17TetriminoRotationIJtEEEESG_IJSI_SH_IJttEESI_SK_EESL_SG_IJSI_SK_EESM_SG_IJSK_SK_SI_SI_EESG_IJSH_IJEESH_IJtttEEEEEES2_IJSJ_SL_SM_SN_SQ_EESt16integer_sequenceImJLm0ELm1ELm2ELm3ELm4ELm5ELm6EEEEclES1_ENUlRKSt7variantIJSJ_SL_SM_SN_SQ_EEOS6_S8_S8_S9_SE_E5_4_FUNESZ_S10_S8_S8_S9_SE_.cold.102
.LCOLDE2:
	.text
.LHOTE2:
	.section	.text.unlikely
.LCOLDB3:
	.text
.LHOTB3:
	.p2align 4,,15
	.type	_ZZN23gen_functor_array_innerI28find_best_board_tuple_switchvUlvE_7types_tIJPKSt5arrayItLm10EERPS4_S8_RdRKSt6vectorIdSaIdEEEES2_IJ9TetriminoIJ17TetriminoRotationIJtEEEESG_IJSI_SH_IJttEESI_SK_EESL_SG_IJSI_SK_EESM_SG_IJSK_SK_SI_SI_EESG_IJSH_IJEESH_IJtttEEEEEES2_IJSJ_SL_SM_SN_SQ_EESt16integer_sequenceImJLm0ELm1ELm2ELm3ELm4ELm5ELm6EEEEclES1_ENUlRKSt7variantIJSJ_SL_SM_SN_SQ_EEOS6_S8_S8_S9_SE_E_4_FUNESZ_S10_S8_S8_S9_SE_, @function
_ZZN23gen_functor_array_innerI28find_best_board_tuple_switchvUlvE_7types_tIJPKSt5arrayItLm10EERPS4_S8_RdRKSt6vectorIdSaIdEEEES2_IJ9TetriminoIJ17TetriminoRotationIJtEEEESG_IJSI_SH_IJttEESI_SK_EESL_SG_IJSI_SK_EESM_SG_IJSK_SK_SI_SI_EESG_IJSH_IJEESH_IJtttEEEEEES2_IJSJ_SL_SM_SN_SQ_EESt16integer_sequenceImJLm0ELm1ELm2ELm3ELm4ELm5ELm6EEEEclES1_ENUlRKSt7variantIJSJ_SL_SM_SN_SQ_EEOS6_S8_S8_S9_SE_E_4_FUNESZ_S10_S8_S8_S9_SE_:
.LFB10281:
	.cfi_startproc
	push	r15	#
	.cfi_def_cfa_offset 16
	.cfi_offset 15, -16
	push	r14	#
	.cfi_def_cfa_offset 24
	.cfi_offset 14, -24
	push	r13	#
	.cfi_def_cfa_offset 32
	.cfi_offset 13, -32
	push	r12	#
	.cfi_def_cfa_offset 40
	.cfi_offset 12, -40
	push	rbp	#
	.cfi_def_cfa_offset 48
	.cfi_offset 6, -48
	push	rbx	#
	.cfi_def_cfa_offset 56
	.cfi_offset 3, -56
	sub	rsp, 56	#,
	.cfi_def_cfa_offset 112
# /usr/include/c++/8/variant:1355:       if (__v.index() != _Np)
	cmp	BYTE PTR 28[rdi], 0	# MEM[(unsigned char *)_2(D) + 28B],
# src/../include/constexpr_func_arr.hpp:239: 		};
	mov	r15, QWORD PTR [rsi]	# _9, *_3(D)
# src/../include/constexpr_func_arr.hpp:233: 				[](variant_t const& vrnt, Args&&... args) noexcept-> Ret
	mov	QWORD PTR 8[rsp], r8	# %sfp, D.152700
# /usr/include/c++/8/variant:1355:       if (__v.index() != _Np)
	jne	.L64	#,
# src/../include/Board.hpp:391:         *test_board = *input_board;
	movdqu	xmm2, XMMWORD PTR [r15]	# tmp315, *_9
	mov	rbx, rdi	# D.152696, D.152696
	mov	rdi, QWORD PTR [rcx]	# prephitmp_155, MEM[(struct Board * &)_5(D)]
	mov	r13, rdx	# D.152698, D.152698
# src/../include/Board.hpp:390:         best_score = -INFINITY;
	mov	rsi, QWORD PTR .LC1[rip]	# tmp314,
	mov	r12, rcx	# D.152699, D.152699
# src/../include/Board.hpp:391:         *test_board = *input_board;
	mov	r14d, 1	# ivtmp.228,
# src/../include/Board.hpp:390:         best_score = -INFINITY;
	mov	QWORD PTR [r8], rsi	# *_6(D), tmp314
# src/../include/Board.hpp:391:         *test_board = *input_board;
	movups	XMMWORD PTR [rdi], xmm2	# *_12, tmp315
	mov	eax, DWORD PTR 16[r15]	# *_9, *_9
	mov	DWORD PTR 16[rdi], eax	# *_12, *_9
# src/../include/Board.hpp:419:                 test_board_score = evaluate_board_GA_internet_no_params(*test_board, line_mask);
	lea	rax, 46[rsp]	# tmp306,
	mov	QWORD PTR 24[rsp], rax	# %sfp, tmp306
	jmp	.L62	#
	.p2align 4,,10
	.p2align 3
.L61:
	add	r14, 1	# ivtmp.228,
# src/../include/Board.hpp:395:             for (width_t i = 0; i < BLOCKS_W - tetrimino_rotation.tet_cols.size() + 1 ; i++)
	cmp	r14, 10	# ivtmp.228,
	je	.L67	#,
.L62:
	lea	rbp, [r14+r14]	# _117,
# src/../include/Tetrimino.hpp:18:         return __builtin_ffsll(tet_cols[col]) - 1;
	movzx	esi, WORD PTR [rbx]	#, MEM[(const value_type &)_2(D)]
	mov	rcx, -1	# tmp317,
	lea	r9, [rdi+rbp]	# _115,
# src/../include/Board.hpp:91:     return static_cast<int>(col_height(board[board_col])) - static_cast<int>(tetrimino_rotation.bottom_empty_spaces(tetrimino_col));
	movzx	eax, WORD PTR -2[r9]	#, MEM[(const value_type &)_115 + 18446744073709551614]
	movzx	edx, WORD PTR [r9]	#, *_115
# src/../include/Tetrimino.hpp:18:         return __builtin_ffsll(tet_cols[col]) - 1;
	mov	r8, rsi	#,
# src/../include/Board.hpp:91:     return static_cast<int>(col_height(board[board_col])) - static_cast<int>(tetrimino_rotation.bottom_empty_spaces(tetrimino_col));
	mov	r11d, eax	#,
# src/../include/Board.hpp:22:     return static_cast<height_t>(63 - __builtin_clzll(static_cast<unsigned long long>((col << 1) | 1)));
	lea	eax, 1[rax+rax]	# tmp218,
# src/../include/Board.hpp:91:     return static_cast<int>(col_height(board[board_col])) - static_cast<int>(tetrimino_rotation.bottom_empty_spaces(tetrimino_col));
	mov	r10d, edx	#,
# src/../include/Board.hpp:22:     return static_cast<height_t>(63 - __builtin_clzll(static_cast<unsigned long long>((col << 1) | 1)));
	cdqe
# src/../include/Board.hpp:22:     return static_cast<height_t>(63 - __builtin_clzll(static_cast<unsigned long long>((col << 1) | 1)));
	lea	edx, 1[rdx+rdx]	# tmp226,
# src/../include/Board.hpp:22:     return static_cast<height_t>(63 - __builtin_clzll(static_cast<unsigned long long>((col << 1) | 1)));
	bsr	rax, rax	# tmp220, tmp219
	movsx	rdx, edx	# tmp227, tmp226
	xor	rax, 63	# tmp220,
# src/../include/Tetrimino.hpp:18:         return __builtin_ffsll(tet_cols[col]) - 1;
	bsf	rsi, rsi	# tmp222, _28
	cmove	rsi, rcx	# tmp317,, tmp222
# src/../include/Board.hpp:22:     return static_cast<height_t>(63 - __builtin_clzll(static_cast<unsigned long long>((col << 1) | 1)));
	mov	QWORD PTR 16[rsp], rax	# %sfp, tmp220
# src/../include/Tetrimino.hpp:18:         return __builtin_ffsll(tet_cols[col]) - 1;
	mov	rax, rcx	# tmp317, tmp317
	movzx	ecx, WORD PTR 2[rbx]	# MEM[(const value_type &)_2(D)], MEM[(const value_type &)_2(D)]
# src/../include/Board.hpp:22:     return static_cast<height_t>(63 - __builtin_clzll(static_cast<unsigned long long>((col << 1) | 1)));
	bsr	rdx, rdx	# tmp228, tmp227
	xor	rdx, 63	# tmp228,
# src/../include/Tetrimino.hpp:18:         return __builtin_ffsll(tet_cols[col]) - 1;
	bsf	rcx, rcx	# tmp230, MEM[(const value_type &)_2(D)]
# src/../include/Board.hpp:91:     return static_cast<int>(col_height(board[board_col])) - static_cast<int>(tetrimino_rotation.bottom_empty_spaces(tetrimino_col));
	movzx	esi, si	# tmp236, tmp222
# src/../include/Tetrimino.hpp:18:         return __builtin_ffsll(tet_cols[col]) - 1;
	cmove	rcx, rax	# tmp318,, tmp230
# src/../include/Board.hpp:22:     return static_cast<height_t>(63 - __builtin_clzll(static_cast<unsigned long long>((col << 1) | 1)));
	mov	eax, 63	# tmp232,
	sub	ax, WORD PTR 16[rsp]	# tmp232, %sfp
# src/../include/Board.hpp:91:     return static_cast<int>(col_height(board[board_col])) - static_cast<int>(tetrimino_rotation.bottom_empty_spaces(tetrimino_col));
	movzx	eax, ax	# tmp234, tmp232
# src/../include/Board.hpp:91:     return static_cast<int>(col_height(board[board_col])) - static_cast<int>(tetrimino_rotation.bottom_empty_spaces(tetrimino_col));
	sub	eax, esi	# tmp237, tmp236
# src/../include/Board.hpp:22:     return static_cast<height_t>(63 - __builtin_clzll(static_cast<unsigned long long>((col << 1) | 1)));
	mov	esi, 63	# tmp238,
# src/../include/Board.hpp:91:     return static_cast<int>(col_height(board[board_col])) - static_cast<int>(tetrimino_rotation.bottom_empty_spaces(tetrimino_col));
	movzx	ecx, cx	# tmp242, tmp230
# src/../include/Board.hpp:22:     return static_cast<height_t>(63 - __builtin_clzll(static_cast<unsigned long long>((col << 1) | 1)));
	sub	esi, edx	# tmp238, tmp228
	movzx	edx, si	#, tmp238
# src/../include/Board.hpp:91:     return static_cast<int>(col_height(board[board_col])) - static_cast<int>(tetrimino_rotation.bottom_empty_spaces(tetrimino_col));
	sub	edx, ecx	# tmp243, tmp242
	cmp	eax, edx	# tmp237, tmp243
	cmovl	eax, edx	# tmp237,, highest_drop_height, tmp243
# src/../include/Board.hpp:410:                 if (highest_drop_height + tetrimino_rotation.height - 1 >= BLOCKS_H)
	movzx	edx, WORD PTR 4[rbx]	# MEM[(const struct TetriminoRotation &)_2(D)].height, MEM[(const struct TetriminoRotation &)_2(D)].height
	add	edx, eax	# tmp245, highest_drop_height
# src/../include/Board.hpp:410:                 if (highest_drop_height + tetrimino_rotation.height - 1 >= BLOCKS_H)
	cmp	edx, 16	# tmp245,
	jg	.L61	#,
	movzx	eax, ax	# _59, highest_drop_height
# src/../include/Board.hpp:419:                 test_board_score = evaluate_board_GA_internet_no_params(*test_board, line_mask);
	mov	rsi, QWORD PTR 24[rsp]	#, %sfp
# src/../include/Board.hpp:99:         board[board_col + i] |= static_cast<height_t>(tetrimino_rotation.tet_cols[i] << height);
	shlx	r8d, r8d, eax	# tmp247, _28, _59
# src/../include/Board.hpp:99:         board[board_col + i] |= static_cast<height_t>(tetrimino_rotation.tet_cols[i] << height);
	or	r8d, r11d	# tmp248, _19
# src/../include/Board.hpp:99:         board[board_col + i] |= static_cast<height_t>(tetrimino_rotation.tet_cols[i] << height);
	mov	DWORD PTR 16[rsp], eax	# %sfp, _59
# src/../include/Board.hpp:99:         board[board_col + i] |= static_cast<height_t>(tetrimino_rotation.tet_cols[i] << height);
	mov	WORD PTR -2[r9], r8w	# MEM[(value_type &)_115 + 18446744073709551614], tmp248
# src/../include/Board.hpp:99:         board[board_col + i] |= static_cast<height_t>(tetrimino_rotation.tet_cols[i] << height);
	movzx	edx, WORD PTR 2[rbx]	# MEM[(const value_type &)_2(D)], MEM[(const value_type &)_2(D)]
	shlx	edx, edx, eax	# tmp250, MEM[(const value_type &)_2(D)], _59
# src/../include/Board.hpp:99:         board[board_col + i] |= static_cast<height_t>(tetrimino_rotation.tet_cols[i] << height);
	or	r10d, edx	# tmp251, tmp250
	mov	WORD PTR [r9], r10w	# MEM[(value_type &)_115], tmp251
# src/../include/Board.hpp:419:                 test_board_score = evaluate_board_GA_internet_no_params(*test_board, line_mask);
	call	_Z36evaluate_board_GA_internet_no_paramsRKSt5arrayItLm10EERt	#
# src/../include/Board.hpp:421:                 if (test_board_score > best_score)
	mov	rdi, QWORD PTR 8[rsp]	# D.152700, %sfp
	mov	eax, DWORD PTR 16[rsp]	# _59, %sfp
	comisd	xmm0, QWORD PTR [rdi]	# test_board_score, *_6(D)
	jbe	.L65	#,
# src/../include/Board.hpp:424:                     destroy_lines_internet(*test_board, line_mask);
	mov	rax, QWORD PTR [r12]	# _77, MEM[(struct Board * &)_5(D)]
# src/../include/Board.hpp:135:     mask =~ mask;
	movzx	edx, WORD PTR 46[rsp]	# mask, line_mask
# src/../include/Board.hpp:423:                     best_score = test_board_score;
	movsd	QWORD PTR [rdi], xmm0	# *_6(D), test_board_score
	add	r14, 1	# ivtmp.228,
# src/../include/Board.hpp:138:         board[i] = static_cast<height_t>(_pext_u32(board[i], mask));
	movzx	ecx, WORD PTR [rax]	# MEM[(value_type &)_77], MEM[(value_type &)_77]
# src/../include/Board.hpp:135:     mask =~ mask;
	not	edx	# mask
# src/../include/Board.hpp:138:         board[i] = static_cast<height_t>(_pext_u32(board[i], mask));
	movzx	edx, dx	# _138, mask
# /usr/lib/gcc/x86_64-linux-gnu/8/include/bmi2intrin.h:55:   return __builtin_ia32_pext_si (__X, __Y);
	pext	ecx, ecx, edx	# tmp255, MEM[(value_type &)_77], _138
# src/../include/Board.hpp:138:         board[i] = static_cast<height_t>(_pext_u32(board[i], mask));
	mov	WORD PTR [rax], cx	# MEM[(value_type &)_77], tmp255
# src/../include/Board.hpp:138:         board[i] = static_cast<height_t>(_pext_u32(board[i], mask));
	movzx	ecx, WORD PTR 2[rax]	# MEM[(value_type &)_77], MEM[(value_type &)_77]
# /usr/lib/gcc/x86_64-linux-gnu/8/include/bmi2intrin.h:55:   return __builtin_ia32_pext_si (__X, __Y);
	pext	ecx, ecx, edx	# tmp259, MEM[(value_type &)_77], _138
# src/../include/Board.hpp:138:         board[i] = static_cast<height_t>(_pext_u32(board[i], mask));
	mov	WORD PTR 2[rax], cx	# MEM[(value_type &)_77], tmp259
# src/../include/Board.hpp:138:         board[i] = static_cast<height_t>(_pext_u32(board[i], mask));
	movzx	ecx, WORD PTR 4[rax]	# MEM[(value_type &)_77], MEM[(value_type &)_77]
# /usr/lib/gcc/x86_64-linux-gnu/8/include/bmi2intrin.h:55:   return __builtin_ia32_pext_si (__X, __Y);
	pext	ecx, ecx, edx	# tmp263, MEM[(value_type &)_77], _138
# src/../include/Board.hpp:138:         board[i] = static_cast<height_t>(_pext_u32(board[i], mask));
	mov	WORD PTR 4[rax], cx	# MEM[(value_type &)_77], tmp263
# src/../include/Board.hpp:138:         board[i] = static_cast<height_t>(_pext_u32(board[i], mask));
	movzx	ecx, WORD PTR 6[rax]	# MEM[(value_type &)_77], MEM[(value_type &)_77]
# /usr/lib/gcc/x86_64-linux-gnu/8/include/bmi2intrin.h:55:   return __builtin_ia32_pext_si (__X, __Y);
	pext	ecx, ecx, edx	# tmp267, MEM[(value_type &)_77], _138
# src/../include/Board.hpp:138:         board[i] = static_cast<height_t>(_pext_u32(board[i], mask));
	mov	WORD PTR 6[rax], cx	# MEM[(value_type &)_77], tmp267
# src/../include/Board.hpp:138:         board[i] = static_cast<height_t>(_pext_u32(board[i], mask));
	movzx	ecx, WORD PTR 8[rax]	# MEM[(value_type &)_77], MEM[(value_type &)_77]
# /usr/lib/gcc/x86_64-linux-gnu/8/include/bmi2intrin.h:55:   return __builtin_ia32_pext_si (__X, __Y);
	pext	ecx, ecx, edx	# tmp271, MEM[(value_type &)_77], _138
# src/../include/Board.hpp:138:         board[i] = static_cast<height_t>(_pext_u32(board[i], mask));
	mov	WORD PTR 8[rax], cx	# MEM[(value_type &)_77], tmp271
# src/../include/Board.hpp:138:         board[i] = static_cast<height_t>(_pext_u32(board[i], mask));
	movzx	ecx, WORD PTR 10[rax]	# MEM[(value_type &)_77], MEM[(value_type &)_77]
# /usr/lib/gcc/x86_64-linux-gnu/8/include/bmi2intrin.h:55:   return __builtin_ia32_pext_si (__X, __Y);
	pext	ecx, ecx, edx	# tmp275, MEM[(value_type &)_77], _138
# src/../include/Board.hpp:138:         board[i] = static_cast<height_t>(_pext_u32(board[i], mask));
	mov	WORD PTR 10[rax], cx	# MEM[(value_type &)_77], tmp275
# src/../include/Board.hpp:138:         board[i] = static_cast<height_t>(_pext_u32(board[i], mask));
	movzx	ecx, WORD PTR 12[rax]	# MEM[(value_type &)_77], MEM[(value_type &)_77]
# /usr/lib/gcc/x86_64-linux-gnu/8/include/bmi2intrin.h:55:   return __builtin_ia32_pext_si (__X, __Y);
	pext	ecx, ecx, edx	# tmp279, MEM[(value_type &)_77], _138
# src/../include/Board.hpp:138:         board[i] = static_cast<height_t>(_pext_u32(board[i], mask));
	mov	WORD PTR 12[rax], cx	# MEM[(value_type &)_77], tmp279
# src/../include/Board.hpp:138:         board[i] = static_cast<height_t>(_pext_u32(board[i], mask));
	movzx	ecx, WORD PTR 14[rax]	# MEM[(value_type &)_77], MEM[(value_type &)_77]
# /usr/lib/gcc/x86_64-linux-gnu/8/include/bmi2intrin.h:55:   return __builtin_ia32_pext_si (__X, __Y);
	pext	ecx, ecx, edx	# tmp283, MEM[(value_type &)_77], _138
# src/../include/Board.hpp:138:         board[i] = static_cast<height_t>(_pext_u32(board[i], mask));
	mov	WORD PTR 14[rax], cx	# MEM[(value_type &)_77], tmp283
# src/../include/Board.hpp:138:         board[i] = static_cast<height_t>(_pext_u32(board[i], mask));
	movzx	ecx, WORD PTR 16[rax]	# MEM[(value_type &)_77], MEM[(value_type &)_77]
# /usr/lib/gcc/x86_64-linux-gnu/8/include/bmi2intrin.h:55:   return __builtin_ia32_pext_si (__X, __Y);
	pext	ecx, ecx, edx	# tmp287, MEM[(value_type &)_77], _138
# src/../include/Board.hpp:138:         board[i] = static_cast<height_t>(_pext_u32(board[i], mask));
	mov	WORD PTR 16[rax], cx	# MEM[(value_type &)_77], tmp287
# src/../include/Board.hpp:138:         board[i] = static_cast<height_t>(_pext_u32(board[i], mask));
	movzx	ecx, WORD PTR 18[rax]	# MEM[(value_type &)_77], MEM[(value_type &)_77]
# /usr/lib/gcc/x86_64-linux-gnu/8/include/bmi2intrin.h:55:   return __builtin_ia32_pext_si (__X, __Y);
	pext	edx, ecx, edx	# tmp291, MEM[(value_type &)_77], _138
# src/../include/Board.hpp:138:         board[i] = static_cast<height_t>(_pext_u32(board[i], mask));
	mov	WORD PTR 18[rax], dx	# MEM[(value_type &)_77], tmp291
# /usr/include/c++/8/bits/move.h:194:       __a = _GLIBCXX_MOVE(__b);
	mov	rdx, QWORD PTR 0[r13]	# _88, MEM[(struct array * &)_4(D)]
# src/../include/Board.hpp:426:                     *test_board = *input_board;
	movdqu	xmm1, XMMWORD PTR [r15]	# tmp324, *_9
# /usr/include/c++/8/bits/move.h:194:       __a = _GLIBCXX_MOVE(__b);
	mov	QWORD PTR [r12], rdx	# *_5(D), _88
# /usr/include/c++/8/bits/move.h:195:       __b = _GLIBCXX_MOVE(__tmp);
	mov	QWORD PTR 0[r13], rax	# *_4(D), _77
# src/../include/Board.hpp:426:                     *test_board = *input_board;
	mov	rdi, QWORD PTR [r12]	# prephitmp_155, MEM[(struct Board * &)_5(D)]
	movups	XMMWORD PTR [rdi], xmm1	# *_91, tmp324
	mov	eax, DWORD PTR 16[r15]	# *_9, *_9
	mov	DWORD PTR 16[rdi], eax	# *_91, *_9
# src/../include/Board.hpp:395:             for (width_t i = 0; i < BLOCKS_W - tetrimino_rotation.tet_cols.size() + 1 ; i++)
	cmp	r14, 10	# ivtmp.228,
	jne	.L62	#,
.L67:
# src/../include/constexpr_func_arr.hpp:239: 		};
	add	rsp, 56	#,
	.cfi_remember_state
	.cfi_def_cfa_offset 56
	pop	rbx	#
	.cfi_def_cfa_offset 48
	pop	rbp	#
	.cfi_def_cfa_offset 40
	pop	r12	#
	.cfi_def_cfa_offset 32
	pop	r13	#
	.cfi_def_cfa_offset 24
	pop	r14	#
	.cfi_def_cfa_offset 16
	pop	r15	#
	.cfi_def_cfa_offset 8
	ret	
	.p2align 4,,10
	.p2align 3
.L65:
	.cfi_restore_state
	mov	rdi, QWORD PTR [r12]	# prephitmp_155, MEM[(struct Board * &)_5(D)]
# src/../include/Board.hpp:108:         board[board_col + i] &= ~(tetrimino_rotation.tet_cols[i] << height);
	movzx	edx, WORD PTR [rbx]	# MEM[(const value_type &)_2(D)], MEM[(const value_type &)_2(D)]
	add	rbp, rdi	# _282, prephitmp_155
	shlx	edx, edx, eax	# tmp300, MEM[(const value_type &)_2(D)], _59
# src/../include/Board.hpp:108:         board[board_col + i] &= ~(tetrimino_rotation.tet_cols[i] << height);
	not	edx	# tmp301
# src/../include/Board.hpp:108:         board[board_col + i] &= ~(tetrimino_rotation.tet_cols[i] << height);
	and	WORD PTR -2[rbp], dx	# MEM[(value_type &)_282 + 18446744073709551614], tmp301
# src/../include/Board.hpp:108:         board[board_col + i] &= ~(tetrimino_rotation.tet_cols[i] << height);
	movzx	edx, WORD PTR 2[rbx]	# MEM[(const value_type &)_2(D)], MEM[(const value_type &)_2(D)]
	shlx	eax, edx, eax	# tmp303, MEM[(const value_type &)_2(D)], _59
# src/../include/Board.hpp:108:         board[board_col + i] &= ~(tetrimino_rotation.tet_cols[i] << height);
	not	eax	# tmp304
# src/../include/Board.hpp:108:         board[board_col + i] &= ~(tetrimino_rotation.tet_cols[i] << height);
	and	WORD PTR 0[rbp], ax	# *_282, tmp304
	jmp	.L61	#
	.cfi_endproc
	.section	.text.unlikely
	.cfi_startproc
	.type	_ZZN23gen_functor_array_innerI28find_best_board_tuple_switchvUlvE_7types_tIJPKSt5arrayItLm10EERPS4_S8_RdRKSt6vectorIdSaIdEEEES2_IJ9TetriminoIJ17TetriminoRotationIJtEEEESG_IJSI_SH_IJttEESI_SK_EESL_SG_IJSI_SK_EESM_SG_IJSK_SK_SI_SI_EESG_IJSH_IJEESH_IJtttEEEEEES2_IJSJ_SL_SM_SN_SQ_EESt16integer_sequenceImJLm0ELm1ELm2ELm3ELm4ELm5ELm6EEEEclES1_ENUlRKSt7variantIJSJ_SL_SM_SN_SQ_EEOS6_S8_S8_S9_SE_E_4_FUNESZ_S10_S8_S8_S9_SE_.cold.103, @function
_ZZN23gen_functor_array_innerI28find_best_board_tuple_switchvUlvE_7types_tIJPKSt5arrayItLm10EERPS4_S8_RdRKSt6vectorIdSaIdEEEES2_IJ9TetriminoIJ17TetriminoRotationIJtEEEESG_IJSI_SH_IJttEESI_SK_EESL_SG_IJSI_SK_EESM_SG_IJSK_SK_SI_SI_EESG_IJSH_IJEESH_IJtttEEEEEES2_IJSJ_SL_SM_SN_SQ_EESt16integer_sequenceImJLm0ELm1ELm2ELm3ELm4ELm5ELm6EEEEclES1_ENUlRKSt7variantIJSJ_SL_SM_SN_SQ_EEOS6_S8_S8_S9_SE_E_4_FUNESZ_S10_S8_S8_S9_SE_.cold.103:
.LFSB10281:
.L64:
	.cfi_def_cfa_offset 112
	.cfi_offset 3, -56
	.cfi_offset 6, -48
	.cfi_offset 12, -40
	.cfi_offset 13, -32
	.cfi_offset 14, -24
	.cfi_offset 15, -16
# /usr/include/c++/8/variant:1023:   { _GLIBCXX_THROW_OR_ABORT(bad_variant_access(__what)); }
	call	abort@PLT	#
	.cfi_endproc
.LFE10281:
	.text
	.size	_ZZN23gen_functor_array_innerI28find_best_board_tuple_switchvUlvE_7types_tIJPKSt5arrayItLm10EERPS4_S8_RdRKSt6vectorIdSaIdEEEES2_IJ9TetriminoIJ17TetriminoRotationIJtEEEESG_IJSI_SH_IJttEESI_SK_EESL_SG_IJSI_SK_EESM_SG_IJSK_SK_SI_SI_EESG_IJSH_IJEESH_IJtttEEEEEES2_IJSJ_SL_SM_SN_SQ_EESt16integer_sequenceImJLm0ELm1ELm2ELm3ELm4ELm5ELm6EEEEclES1_ENUlRKSt7variantIJSJ_SL_SM_SN_SQ_EEOS6_S8_S8_S9_SE_E_4_FUNESZ_S10_S8_S8_S9_SE_, .-_ZZN23gen_functor_array_innerI28find_best_board_tuple_switchvUlvE_7types_tIJPKSt5arrayItLm10EERPS4_S8_RdRKSt6vectorIdSaIdEEEES2_IJ9TetriminoIJ17TetriminoRotationIJtEEEESG_IJSI_SH_IJttEESI_SK_EESL_SG_IJSI_SK_EESM_SG_IJSK_SK_SI_SI_EESG_IJSH_IJEESH_IJtttEEEEEES2_IJSJ_SL_SM_SN_SQ_EESt16integer_sequenceImJLm0ELm1ELm2ELm3ELm4ELm5ELm6EEEEclES1_ENUlRKSt7variantIJSJ_SL_SM_SN_SQ_EEOS6_S8_S8_S9_SE_E_4_FUNESZ_S10_S8_S8_S9_SE_
	.section	.text.unlikely
	.size	_ZZN23gen_functor_array_innerI28find_best_board_tuple_switchvUlvE_7types_tIJPKSt5arrayItLm10EERPS4_S8_RdRKSt6vectorIdSaIdEEEES2_IJ9TetriminoIJ17TetriminoRotationIJtEEEESG_IJSI_SH_IJttEESI_SK_EESL_SG_IJSI_SK_EESM_SG_IJSK_SK_SI_SI_EESG_IJSH_IJEESH_IJtttEEEEEES2_IJSJ_SL_SM_SN_SQ_EESt16integer_sequenceImJLm0ELm1ELm2ELm3ELm4ELm5ELm6EEEEclES1_ENUlRKSt7variantIJSJ_SL_SM_SN_SQ_EEOS6_S8_S8_S9_SE_E_4_FUNESZ_S10_S8_S8_S9_SE_.cold.103, .-_ZZN23gen_functor_array_innerI28find_best_board_tuple_switchvUlvE_7types_tIJPKSt5arrayItLm10EERPS4_S8_RdRKSt6vectorIdSaIdEEEES2_IJ9TetriminoIJ17TetriminoRotationIJtEEEESG_IJSI_SH_IJttEESI_SK_EESL_SG_IJSI_SK_EESM_SG_IJSK_SK_SI_SI_EESG_IJSH_IJEESH_IJtttEEEEEES2_IJSJ_SL_SM_SN_SQ_EESt16integer_sequenceImJLm0ELm1ELm2ELm3ELm4ELm5ELm6EEEEclES1_ENUlRKSt7variantIJSJ_SL_SM_SN_SQ_EEOS6_S8_S8_S9_SE_E_4_FUNESZ_S10_S8_S8_S9_SE_.cold.103
.LCOLDE3:
	.text
.LHOTE3:
	.section	.text.unlikely
.LCOLDB4:
	.text
.LHOTB4:
	.p2align 4,,15
	.type	_ZZN23gen_functor_array_innerI28find_best_board_tuple_switchvUlvE_7types_tIJPKSt5arrayItLm10EERPS4_S8_RdRKSt6vectorIdSaIdEEEES2_IJ9TetriminoIJ17TetriminoRotationIJtEEEESG_IJSI_SH_IJttEESI_SK_EESL_SG_IJSI_SK_EESM_SG_IJSK_SK_SI_SI_EESG_IJSH_IJEESH_IJtttEEEEEES2_IJSJ_SL_SM_SN_SQ_EESt16integer_sequenceImJLm0ELm1ELm2ELm3ELm4ELm5ELm6EEEEclES1_ENUlRKSt7variantIJSJ_SL_SM_SN_SQ_EEOS6_S8_S8_S9_SE_E3_4_FUNESZ_S10_S8_S8_S9_SE_, @function
_ZZN23gen_functor_array_innerI28find_best_board_tuple_switchvUlvE_7types_tIJPKSt5arrayItLm10EERPS4_S8_RdRKSt6vectorIdSaIdEEEES2_IJ9TetriminoIJ17TetriminoRotationIJtEEEESG_IJSI_SH_IJttEESI_SK_EESL_SG_IJSI_SK_EESM_SG_IJSK_SK_SI_SI_EESG_IJSH_IJEESH_IJtttEEEEEES2_IJSJ_SL_SM_SN_SQ_EESt16integer_sequenceImJLm0ELm1ELm2ELm3ELm4ELm5ELm6EEEEclES1_ENUlRKSt7variantIJSJ_SL_SM_SN_SQ_EEOS6_S8_S8_S9_SE_E3_4_FUNESZ_S10_S8_S8_S9_SE_:
.LFB10356:
	.cfi_startproc
	push	r15	#
	.cfi_def_cfa_offset 16
	.cfi_offset 15, -16
	push	r14	#
	.cfi_def_cfa_offset 24
	.cfi_offset 14, -24
	push	r13	#
	.cfi_def_cfa_offset 32
	.cfi_offset 13, -32
	push	r12	#
	.cfi_def_cfa_offset 40
	.cfi_offset 12, -40
	push	rbp	#
	.cfi_def_cfa_offset 48
	.cfi_offset 6, -48
	push	rbx	#
	.cfi_def_cfa_offset 56
	.cfi_offset 3, -56
	sub	rsp, 56	#,
	.cfi_def_cfa_offset 112
# /usr/include/c++/8/variant:1355:       if (__v.index() != _Np)
	cmp	BYTE PTR 28[rdi], 2	# MEM[(unsigned char *)_2(D) + 28B],
# src/../include/constexpr_func_arr.hpp:239: 		};
	mov	r13, QWORD PTR [rsi]	# _9, *_3(D)
# src/../include/constexpr_func_arr.hpp:233: 				[](variant_t const& vrnt, Args&&... args) noexcept-> Ret
	mov	QWORD PTR [rsp], r8	# %sfp, D.153733
# /usr/include/c++/8/variant:1355:       if (__v.index() != _Np)
	jne	.L86	#,
	mov	rbx, rdi	# D.153729, D.153729
# src/../include/Board.hpp:390:         best_score = -INFINITY;
	mov	rdi, QWORD PTR .LC1[rip]	# tmp575,
	mov	r14, rdx	# D.153731, D.153731
	mov	rbp, rcx	# D.153732, D.153732
# src/../include/Board.hpp:391:         *test_board = *input_board;
	movdqu	xmm3, XMMWORD PTR 0[r13]	# tmp576, *_9
	mov	r15d, 1	# ivtmp.265,
# src/../include/Board.hpp:390:         best_score = -INFINITY;
	mov	QWORD PTR [r8], rdi	# *_6(D), tmp575
# src/../include/Board.hpp:391:         *test_board = *input_board;
	mov	rdi, QWORD PTR [rcx]	# prephitmp_767, MEM[(struct Board * &)_5(D)]
	movups	XMMWORD PTR [rdi], xmm3	# *_12, tmp576
	mov	eax, DWORD PTR 16[r13]	# *_9, *_9
	mov	DWORD PTR 16[rdi], eax	# *_12, *_9
# src/../include/Board.hpp:419:                 test_board_score = evaluate_board_GA_internet_no_params(*test_board, line_mask);
	lea	rax, 46[rsp]	# tmp560,
	mov	QWORD PTR 16[rsp], rax	# %sfp, tmp560
	jmp	.L76	#
	.p2align 4,,10
	.p2align 3
.L71:
	add	r15, 1	# ivtmp.265,
# src/../include/Board.hpp:395:             for (width_t i = 0; i < BLOCKS_W - tetrimino_rotation.tet_cols.size() + 1 ; i++)
	cmp	r15, 10	# ivtmp.265,
	je	.L90	#,
.L76:
	lea	r12, [r15+r15]	# _113,
# src/../include/Tetrimino.hpp:18:         return __builtin_ffsll(tet_cols[col]) - 1;
	movzx	esi, WORD PTR 8[rbx]	#, MEM[(const value_type &)_2(D) + 8]
	mov	rdx, -1	# tmp578,
	movzx	ecx, WORD PTR 10[rbx]	# MEM[(const value_type &)_2(D) + 8], MEM[(const value_type &)_2(D) + 8]
	lea	r9, [rdi+r12]	# _116,
# src/../include/Board.hpp:91:     return static_cast<int>(col_height(board[board_col])) - static_cast<int>(tetrimino_rotation.bottom_empty_spaces(tetrimino_col));
	movzx	eax, WORD PTR -2[r9]	#, MEM[(const value_type &)_116 + 18446744073709551614]
# src/../include/Tetrimino.hpp:18:         return __builtin_ffsll(tet_cols[col]) - 1;
	mov	r8, rsi	#,
# src/../include/Board.hpp:91:     return static_cast<int>(col_height(board[board_col])) - static_cast<int>(tetrimino_rotation.bottom_empty_spaces(tetrimino_col));
	mov	r11d, eax	#,
# src/../include/Board.hpp:22:     return static_cast<height_t>(63 - __builtin_clzll(static_cast<unsigned long long>((col << 1) | 1)));
	lea	eax, 1[rax+rax]	# tmp364,
# src/../include/Board.hpp:22:     return static_cast<height_t>(63 - __builtin_clzll(static_cast<unsigned long long>((col << 1) | 1)));
	cdqe
	bsr	rax, rax	# tmp366, tmp365
	xor	rax, 63	# tmp366,
# src/../include/Tetrimino.hpp:18:         return __builtin_ffsll(tet_cols[col]) - 1;
	bsf	rsi, rsi	# tmp368, _129
	cmove	rsi, rdx	# tmp578,, tmp368
# src/../include/Board.hpp:22:     return static_cast<height_t>(63 - __builtin_clzll(static_cast<unsigned long long>((col << 1) | 1)));
	mov	QWORD PTR 8[rsp], rax	# %sfp, tmp366
# src/../include/Tetrimino.hpp:18:         return __builtin_ffsll(tet_cols[col]) - 1;
	mov	rax, rdx	# tmp578, tmp578
# src/../include/Board.hpp:91:     return static_cast<int>(col_height(board[board_col])) - static_cast<int>(tetrimino_rotation.bottom_empty_spaces(tetrimino_col));
	movzx	edx, WORD PTR [r9]	#, *_116
	mov	r10d, edx	#,
# src/../include/Board.hpp:22:     return static_cast<height_t>(63 - __builtin_clzll(static_cast<unsigned long long>((col << 1) | 1)));
	lea	edx, 1[rdx+rdx]	# tmp372,
# src/../include/Board.hpp:91:     return static_cast<int>(col_height(board[board_col])) - static_cast<int>(tetrimino_rotation.bottom_empty_spaces(tetrimino_col));
	movzx	esi, si	# tmp382, tmp368
# src/../include/Board.hpp:22:     return static_cast<height_t>(63 - __builtin_clzll(static_cast<unsigned long long>((col << 1) | 1)));
	movsx	rdx, edx	# tmp373, tmp372
	bsr	rdx, rdx	# tmp374, tmp373
	xor	rdx, 63	# tmp374,
# src/../include/Tetrimino.hpp:18:         return __builtin_ffsll(tet_cols[col]) - 1;
	bsf	rcx, rcx	# tmp376, MEM[(const value_type &)_2(D) + 8]
	cmove	rcx, rax	# tmp579,, tmp376
# src/../include/Board.hpp:22:     return static_cast<height_t>(63 - __builtin_clzll(static_cast<unsigned long long>((col << 1) | 1)));
	mov	eax, 63	# tmp378,
	sub	ax, WORD PTR 8[rsp]	# tmp378, %sfp
# src/../include/Board.hpp:91:     return static_cast<int>(col_height(board[board_col])) - static_cast<int>(tetrimino_rotation.bottom_empty_spaces(tetrimino_col));
	movzx	eax, ax	# tmp380, tmp378
# src/../include/Board.hpp:91:     return static_cast<int>(col_height(board[board_col])) - static_cast<int>(tetrimino_rotation.bottom_empty_spaces(tetrimino_col));
	sub	eax, esi	# tmp383, tmp382
# src/../include/Board.hpp:22:     return static_cast<height_t>(63 - __builtin_clzll(static_cast<unsigned long long>((col << 1) | 1)));
	mov	esi, 63	# tmp384,
# src/../include/Board.hpp:91:     return static_cast<int>(col_height(board[board_col])) - static_cast<int>(tetrimino_rotation.bottom_empty_spaces(tetrimino_col));
	movzx	ecx, cx	# tmp388, tmp376
# src/../include/Board.hpp:22:     return static_cast<height_t>(63 - __builtin_clzll(static_cast<unsigned long long>((col << 1) | 1)));
	sub	esi, edx	# tmp384, tmp374
	movzx	edx, si	#, tmp384
# src/../include/Board.hpp:91:     return static_cast<int>(col_height(board[board_col])) - static_cast<int>(tetrimino_rotation.bottom_empty_spaces(tetrimino_col));
	sub	edx, ecx	# tmp389, tmp388
	cmp	eax, edx	# tmp383, tmp389
	cmovl	eax, edx	# tmp383,, highest_drop_height, tmp389
# src/../include/Board.hpp:410:                 if (highest_drop_height + tetrimino_rotation.height - 1 >= BLOCKS_H)
	movzx	edx, WORD PTR 12[rbx]	# MEM[(const struct TetriminoRotation &)_2(D) + 8].height, MEM[(const struct TetriminoRotation &)_2(D) + 8].height
	add	edx, eax	# tmp391, highest_drop_height
# src/../include/Board.hpp:410:                 if (highest_drop_height + tetrimino_rotation.height - 1 >= BLOCKS_H)
	cmp	edx, 16	# tmp391,
	jg	.L71	#,
	movzx	eax, ax	# _160, highest_drop_height
# src/../include/Board.hpp:419:                 test_board_score = evaluate_board_GA_internet_no_params(*test_board, line_mask);
	mov	rsi, QWORD PTR 16[rsp]	#, %sfp
# src/../include/Board.hpp:99:         board[board_col + i] |= static_cast<height_t>(tetrimino_rotation.tet_cols[i] << height);
	shlx	r8d, r8d, eax	# tmp393, _129, _160
# src/../include/Board.hpp:99:         board[board_col + i] |= static_cast<height_t>(tetrimino_rotation.tet_cols[i] << height);
	or	r8d, r11d	# tmp394, _120
# src/../include/Board.hpp:99:         board[board_col + i] |= static_cast<height_t>(tetrimino_rotation.tet_cols[i] << height);
	mov	DWORD PTR 8[rsp], eax	# %sfp, _160
# src/../include/Board.hpp:99:         board[board_col + i] |= static_cast<height_t>(tetrimino_rotation.tet_cols[i] << height);
	mov	WORD PTR -2[r9], r8w	# MEM[(value_type &)_116 + 18446744073709551614], tmp394
# src/../include/Board.hpp:99:         board[board_col + i] |= static_cast<height_t>(tetrimino_rotation.tet_cols[i] << height);
	movzx	edx, WORD PTR 10[rbx]	# MEM[(const value_type &)_2(D) + 8], MEM[(const value_type &)_2(D) + 8]
	shlx	edx, edx, eax	# tmp396, MEM[(const value_type &)_2(D) + 8], _160
# src/../include/Board.hpp:99:         board[board_col + i] |= static_cast<height_t>(tetrimino_rotation.tet_cols[i] << height);
	or	r10d, edx	# tmp397, tmp396
	mov	WORD PTR [r9], r10w	# MEM[(value_type &)_116], tmp397
# src/../include/Board.hpp:419:                 test_board_score = evaluate_board_GA_internet_no_params(*test_board, line_mask);
	call	_Z36evaluate_board_GA_internet_no_paramsRKSt5arrayItLm10EERt	#
# src/../include/Board.hpp:421:                 if (test_board_score > best_score)
	mov	rdi, QWORD PTR [rsp]	# D.153733, %sfp
	mov	eax, DWORD PTR 8[rsp]	# _160, %sfp
	comisd	xmm0, QWORD PTR [rdi]	# test_board_score, *_6(D)
	jbe	.L87	#,
# src/../include/Board.hpp:424:                     destroy_lines_internet(*test_board, line_mask);
	mov	rax, QWORD PTR 0[rbp]	# _178, MEM[(struct Board * &)_5(D)]
# src/../include/Board.hpp:135:     mask =~ mask;
	movzx	edx, WORD PTR 46[rsp]	# mask, line_mask
# src/../include/Board.hpp:423:                     best_score = test_board_score;
	movsd	QWORD PTR [rdi], xmm0	# *_6(D), test_board_score
	add	r15, 1	# ivtmp.265,
# src/../include/Board.hpp:138:         board[i] = static_cast<height_t>(_pext_u32(board[i], mask));
	movzx	ecx, WORD PTR [rax]	# MEM[(value_type &)_178], MEM[(value_type &)_178]
# src/../include/Board.hpp:135:     mask =~ mask;
	not	edx	# mask
# src/../include/Board.hpp:138:         board[i] = static_cast<height_t>(_pext_u32(board[i], mask));
	movzx	edx, dx	# _495, mask
# /usr/lib/gcc/x86_64-linux-gnu/8/include/bmi2intrin.h:55:   return __builtin_ia32_pext_si (__X, __Y);
	pext	ecx, ecx, edx	# tmp401, MEM[(value_type &)_178], _495
# src/../include/Board.hpp:138:         board[i] = static_cast<height_t>(_pext_u32(board[i], mask));
	mov	WORD PTR [rax], cx	# MEM[(value_type &)_178], tmp401
# src/../include/Board.hpp:138:         board[i] = static_cast<height_t>(_pext_u32(board[i], mask));
	movzx	ecx, WORD PTR 2[rax]	# MEM[(value_type &)_178], MEM[(value_type &)_178]
# /usr/lib/gcc/x86_64-linux-gnu/8/include/bmi2intrin.h:55:   return __builtin_ia32_pext_si (__X, __Y);
	pext	ecx, ecx, edx	# tmp405, MEM[(value_type &)_178], _495
# src/../include/Board.hpp:138:         board[i] = static_cast<height_t>(_pext_u32(board[i], mask));
	mov	WORD PTR 2[rax], cx	# MEM[(value_type &)_178], tmp405
# src/../include/Board.hpp:138:         board[i] = static_cast<height_t>(_pext_u32(board[i], mask));
	movzx	ecx, WORD PTR 4[rax]	# MEM[(value_type &)_178], MEM[(value_type &)_178]
# /usr/lib/gcc/x86_64-linux-gnu/8/include/bmi2intrin.h:55:   return __builtin_ia32_pext_si (__X, __Y);
	pext	ecx, ecx, edx	# tmp409, MEM[(value_type &)_178], _495
# src/../include/Board.hpp:138:         board[i] = static_cast<height_t>(_pext_u32(board[i], mask));
	mov	WORD PTR 4[rax], cx	# MEM[(value_type &)_178], tmp409
# src/../include/Board.hpp:138:         board[i] = static_cast<height_t>(_pext_u32(board[i], mask));
	movzx	ecx, WORD PTR 6[rax]	# MEM[(value_type &)_178], MEM[(value_type &)_178]
# /usr/lib/gcc/x86_64-linux-gnu/8/include/bmi2intrin.h:55:   return __builtin_ia32_pext_si (__X, __Y);
	pext	ecx, ecx, edx	# tmp413, MEM[(value_type &)_178], _495
# src/../include/Board.hpp:138:         board[i] = static_cast<height_t>(_pext_u32(board[i], mask));
	mov	WORD PTR 6[rax], cx	# MEM[(value_type &)_178], tmp413
# src/../include/Board.hpp:138:         board[i] = static_cast<height_t>(_pext_u32(board[i], mask));
	movzx	ecx, WORD PTR 8[rax]	# MEM[(value_type &)_178], MEM[(value_type &)_178]
# /usr/lib/gcc/x86_64-linux-gnu/8/include/bmi2intrin.h:55:   return __builtin_ia32_pext_si (__X, __Y);
	pext	ecx, ecx, edx	# tmp417, MEM[(value_type &)_178], _495
# src/../include/Board.hpp:138:         board[i] = static_cast<height_t>(_pext_u32(board[i], mask));
	mov	WORD PTR 8[rax], cx	# MEM[(value_type &)_178], tmp417
# src/../include/Board.hpp:138:         board[i] = static_cast<height_t>(_pext_u32(board[i], mask));
	movzx	ecx, WORD PTR 10[rax]	# MEM[(value_type &)_178], MEM[(value_type &)_178]
# /usr/lib/gcc/x86_64-linux-gnu/8/include/bmi2intrin.h:55:   return __builtin_ia32_pext_si (__X, __Y);
	pext	ecx, ecx, edx	# tmp421, MEM[(value_type &)_178], _495
# src/../include/Board.hpp:138:         board[i] = static_cast<height_t>(_pext_u32(board[i], mask));
	mov	WORD PTR 10[rax], cx	# MEM[(value_type &)_178], tmp421
# src/../include/Board.hpp:138:         board[i] = static_cast<height_t>(_pext_u32(board[i], mask));
	movzx	ecx, WORD PTR 12[rax]	# MEM[(value_type &)_178], MEM[(value_type &)_178]
# /usr/lib/gcc/x86_64-linux-gnu/8/include/bmi2intrin.h:55:   return __builtin_ia32_pext_si (__X, __Y);
	pext	ecx, ecx, edx	# tmp425, MEM[(value_type &)_178], _495
# src/../include/Board.hpp:138:         board[i] = static_cast<height_t>(_pext_u32(board[i], mask));
	mov	WORD PTR 12[rax], cx	# MEM[(value_type &)_178], tmp425
# src/../include/Board.hpp:138:         board[i] = static_cast<height_t>(_pext_u32(board[i], mask));
	movzx	ecx, WORD PTR 14[rax]	# MEM[(value_type &)_178], MEM[(value_type &)_178]
# /usr/lib/gcc/x86_64-linux-gnu/8/include/bmi2intrin.h:55:   return __builtin_ia32_pext_si (__X, __Y);
	pext	ecx, ecx, edx	# tmp429, MEM[(value_type &)_178], _495
# src/../include/Board.hpp:138:         board[i] = static_cast<height_t>(_pext_u32(board[i], mask));
	mov	WORD PTR 14[rax], cx	# MEM[(value_type &)_178], tmp429
# src/../include/Board.hpp:138:         board[i] = static_cast<height_t>(_pext_u32(board[i], mask));
	movzx	ecx, WORD PTR 16[rax]	# MEM[(value_type &)_178], MEM[(value_type &)_178]
# /usr/lib/gcc/x86_64-linux-gnu/8/include/bmi2intrin.h:55:   return __builtin_ia32_pext_si (__X, __Y);
	pext	ecx, ecx, edx	# tmp433, MEM[(value_type &)_178], _495
# src/../include/Board.hpp:138:         board[i] = static_cast<height_t>(_pext_u32(board[i], mask));
	mov	WORD PTR 16[rax], cx	# MEM[(value_type &)_178], tmp433
# src/../include/Board.hpp:138:         board[i] = static_cast<height_t>(_pext_u32(board[i], mask));
	movzx	ecx, WORD PTR 18[rax]	# MEM[(value_type &)_178], MEM[(value_type &)_178]
# /usr/lib/gcc/x86_64-linux-gnu/8/include/bmi2intrin.h:55:   return __builtin_ia32_pext_si (__X, __Y);
	pext	edx, ecx, edx	# tmp437, MEM[(value_type &)_178], _495
# src/../include/Board.hpp:138:         board[i] = static_cast<height_t>(_pext_u32(board[i], mask));
	mov	WORD PTR 18[rax], dx	# MEM[(value_type &)_178], tmp437
# /usr/include/c++/8/bits/move.h:194:       __a = _GLIBCXX_MOVE(__b);
	mov	rdx, QWORD PTR [r14]	# _189, MEM[(struct array * &)_4(D)]
# src/../include/Board.hpp:426:                     *test_board = *input_board;
	movdqu	xmm1, XMMWORD PTR 0[r13]	# tmp585, *_9
# /usr/include/c++/8/bits/move.h:194:       __a = _GLIBCXX_MOVE(__b);
	mov	QWORD PTR 0[rbp], rdx	# *_5(D), _189
# /usr/include/c++/8/bits/move.h:195:       __b = _GLIBCXX_MOVE(__tmp);
	mov	QWORD PTR [r14], rax	# *_4(D), _178
# src/../include/Board.hpp:426:                     *test_board = *input_board;
	mov	rdi, QWORD PTR 0[rbp]	# prephitmp_767, MEM[(struct Board * &)_5(D)]
	movups	XMMWORD PTR [rdi], xmm1	# *_192, tmp585
	mov	eax, DWORD PTR 16[r13]	# *_9, *_9
	mov	DWORD PTR 16[rdi], eax	# *_192, *_9
# src/../include/Board.hpp:395:             for (width_t i = 0; i < BLOCKS_W - tetrimino_rotation.tet_cols.size() + 1 ; i++)
	cmp	r15, 10	# ivtmp.265,
	jne	.L76	#,
.L90:
# src/../include/Board.hpp:419:                 test_board_score = evaluate_board_GA_internet_no_params(*test_board, line_mask);
	lea	rax, 46[rsp]	# tmp559,
# src/../include/Board.hpp:395:             for (width_t i = 0; i < BLOCKS_W - tetrimino_rotation.tet_cols.size() + 1 ; i++)
	mov	r8d, 1	# ivtmp.252,
# src/../include/Board.hpp:419:                 test_board_score = evaluate_board_GA_internet_no_params(*test_board, line_mask);
	mov	QWORD PTR 24[rsp], r13	# %sfp, _9
	mov	QWORD PTR 16[rsp], rax	# %sfp, tmp559
	mov	rax, rbp	# D.153732, D.153732
	mov	rbp, r8	# ivtmp.252, ivtmp.252
	mov	r8, r14	# D.153731, D.153731
	mov	r13, rax	# D.153732, D.153732
	jmp	.L75	#
	.p2align 4,,10
	.p2align 3
.L82:
# src/../include/Board.hpp:395:             for (width_t i = 0; i < BLOCKS_W - tetrimino_rotation.tet_cols.size() + 1 ; i++)
	cmp	rbp, 9	# ivtmp.252,
	je	.L91	#,
.L75:
	lea	r15, [rbp+rbp]	# _842,
# src/../include/Tetrimino.hpp:18:         return __builtin_ffsll(tet_cols[col]) - 1;
	movzx	r12d, WORD PTR [rbx]	#, MEM[(const value_type &)_2(D)]
	movzx	r11d, WORD PTR 2[rbx]	# MEM[(const value_type &)_2(D)], MEM[(const value_type &)_2(D)]
	mov	rsi, -1	# tmp587,
	lea	rdx, [rdi+r15]	# _841,
	mov	r14, rsi	# tmp587, tmp587
# src/../include/Board.hpp:91:     return static_cast<int>(col_height(board[board_col])) - static_cast<int>(tetrimino_rotation.bottom_empty_spaces(tetrimino_col));
	movzx	eax, WORD PTR -2[rdx]	#, MEM[(const value_type &)_841 + 18446744073709551614]
# src/../include/Tetrimino.hpp:18:         return __builtin_ffsll(tet_cols[col]) - 1;
	mov	rcx, r12	#,
# src/../include/Board.hpp:91:     return static_cast<int>(col_height(board[board_col])) - static_cast<int>(tetrimino_rotation.bottom_empty_spaces(tetrimino_col));
	mov	r10d, eax	#,
# src/../include/Board.hpp:22:     return static_cast<height_t>(63 - __builtin_clzll(static_cast<unsigned long long>((col << 1) | 1)));
	lea	eax, 1[rax+rax]	# tmp451,
# src/../include/Board.hpp:22:     return static_cast<height_t>(63 - __builtin_clzll(static_cast<unsigned long long>((col << 1) | 1)));
	cdqe
	bsr	rax, rax	# tmp453, tmp452
	xor	rax, 63	# tmp453,
# src/../include/Tetrimino.hpp:18:         return __builtin_ffsll(tet_cols[col]) - 1;
	bsf	r12, r12	# tmp455, _30
	cmove	r12, rsi	# tmp587,, tmp455
# src/../include/Board.hpp:91:     return static_cast<int>(col_height(board[board_col])) - static_cast<int>(tetrimino_rotation.bottom_empty_spaces(tetrimino_col));
	movzx	esi, WORD PTR [rdx]	#, *_841
	mov	r9d, esi	#,
# src/../include/Board.hpp:22:     return static_cast<height_t>(63 - __builtin_clzll(static_cast<unsigned long long>((col << 1) | 1)));
	lea	esi, 1[rsi+rsi]	# tmp459,
# src/../include/Board.hpp:91:     return static_cast<int>(col_height(board[board_col])) - static_cast<int>(tetrimino_rotation.bottom_empty_spaces(tetrimino_col));
	movzx	r12d, r12w	# tmp469, tmp455
# src/../include/Board.hpp:22:     return static_cast<height_t>(63 - __builtin_clzll(static_cast<unsigned long long>((col << 1) | 1)));
	movsx	rsi, esi	# tmp460, tmp459
	bsr	rsi, rsi	# tmp461, tmp460
	xor	rsi, 63	# tmp461,
# src/../include/Tetrimino.hpp:18:         return __builtin_ffsll(tet_cols[col]) - 1;
	bsf	r11, r11	# tmp463, MEM[(const value_type &)_2(D)]
	cmove	r11, r14	# tmp588,, tmp463
# src/../include/Board.hpp:22:     return static_cast<height_t>(63 - __builtin_clzll(static_cast<unsigned long long>((col << 1) | 1)));
	mov	r14d, 63	# tmp465,
	sub	r14d, eax	# tmp465, tmp453
	movzx	eax, r14w	#, tmp465
# src/../include/Board.hpp:91:     return static_cast<int>(col_height(board[board_col])) - static_cast<int>(tetrimino_rotation.bottom_empty_spaces(tetrimino_col));
	movzx	r11d, r11w	# tmp475, tmp463
# src/../include/Tetrimino.hpp:18:         return __builtin_ffsll(tet_cols[col]) - 1;
	mov	r14, -1	# tmp591,
# src/../include/Board.hpp:91:     return static_cast<int>(col_height(board[board_col])) - static_cast<int>(tetrimino_rotation.bottom_empty_spaces(tetrimino_col));
	sub	eax, r12d	# tmp470, tmp469
# src/../include/Board.hpp:22:     return static_cast<height_t>(63 - __builtin_clzll(static_cast<unsigned long long>((col << 1) | 1)));
	mov	r12d, 63	# tmp471,
	sub	r12d, esi	# tmp471, tmp461
# src/../include/Board.hpp:91:     return static_cast<int>(col_height(board[board_col])) - static_cast<int>(tetrimino_rotation.bottom_empty_spaces(tetrimino_col));
	movzx	r12d, r12w	# tmp473, tmp471
# src/../include/Board.hpp:91:     return static_cast<int>(col_height(board[board_col])) - static_cast<int>(tetrimino_rotation.bottom_empty_spaces(tetrimino_col));
	sub	r12d, r11d	# tmp476, tmp475
# src/../include/Tetrimino.hpp:18:         return __builtin_ffsll(tet_cols[col]) - 1;
	movzx	r11d, WORD PTR 4[rbx]	# MEM[(const value_type &)_2(D)], MEM[(const value_type &)_2(D)]
	cmp	eax, r12d	# tmp470, tmp476
	cmovl	eax, r12d	# tmp470,, highest_drop_height, tmp476
# src/../include/Board.hpp:91:     return static_cast<int>(col_height(board[board_col])) - static_cast<int>(tetrimino_rotation.bottom_empty_spaces(tetrimino_col));
	movzx	r12d, WORD PTR 2[rdx]	#, MEM[(const value_type &)_841 + 2]
	add	rbp, 1	# ivtmp.252,
	mov	esi, r12d	#,
# src/../include/Board.hpp:22:     return static_cast<height_t>(63 - __builtin_clzll(static_cast<unsigned long long>((col << 1) | 1)));
	lea	r12d, 1[r12+r12]	# tmp479,
# src/../include/Board.hpp:22:     return static_cast<height_t>(63 - __builtin_clzll(static_cast<unsigned long long>((col << 1) | 1)));
	movsx	r12, r12d	# tmp480, tmp479
	bsr	r12, r12	# tmp481, tmp480
	xor	r12, 63	# tmp481,
# src/../include/Tetrimino.hpp:18:         return __builtin_ffsll(tet_cols[col]) - 1;
	bsf	r11, r11	# tmp483, MEM[(const value_type &)_2(D)]
	cmove	r11, r14	# tmp591,, tmp483
# src/../include/Board.hpp:22:     return static_cast<height_t>(63 - __builtin_clzll(static_cast<unsigned long long>((col << 1) | 1)));
	mov	r14d, 63	# tmp485,
	sub	r14d, r12d	# tmp485, tmp481
	movzx	r12d, r14w	#, tmp485
# src/../include/Board.hpp:91:     return static_cast<int>(col_height(board[board_col])) - static_cast<int>(tetrimino_rotation.bottom_empty_spaces(tetrimino_col));
	movzx	r11d, r11w	# tmp489, tmp483
# src/../include/Board.hpp:91:     return static_cast<int>(col_height(board[board_col])) - static_cast<int>(tetrimino_rotation.bottom_empty_spaces(tetrimino_col));
	sub	r12d, r11d	# tmp490, tmp489
	cmp	r12d, eax	# tmp490, highest_drop_height
	cmovl	r12d, eax	# tmp490,, highest_drop_height, highest_drop_height
# src/../include/Board.hpp:410:                 if (highest_drop_height + tetrimino_rotation.height - 1 >= BLOCKS_H)
	movzx	eax, WORD PTR 6[rbx]	# MEM[(const struct TetriminoRotation &)_2(D)].height, MEM[(const struct TetriminoRotation &)_2(D)].height
	add	eax, r12d	# tmp492, highest_drop_height
# src/../include/Board.hpp:410:                 if (highest_drop_height + tetrimino_rotation.height - 1 >= BLOCKS_H)
	cmp	eax, 16	# tmp492,
	jg	.L82	#,
	movzx	r12d, r12w	# _63, highest_drop_height
	mov	QWORD PTR 8[rsp], r8	# %sfp, D.153731
# src/../include/Board.hpp:99:         board[board_col + i] |= static_cast<height_t>(tetrimino_rotation.tet_cols[i] << height);
	shlx	ecx, ecx, r12d	# tmp494, _30, _63
# src/../include/Board.hpp:99:         board[board_col + i] |= static_cast<height_t>(tetrimino_rotation.tet_cols[i] << height);
	or	ecx, r10d	# tmp495, _21
	mov	WORD PTR -2[rdx], cx	# MEM[(value_type &)_841 + 18446744073709551614], tmp495
# src/../include/Board.hpp:99:         board[board_col + i] |= static_cast<height_t>(tetrimino_rotation.tet_cols[i] << height);
	movzx	eax, WORD PTR 2[rbx]	# MEM[(const value_type &)_2(D)], MEM[(const value_type &)_2(D)]
	shlx	eax, eax, r12d	# tmp497, MEM[(const value_type &)_2(D)], _63
# src/../include/Board.hpp:99:         board[board_col + i] |= static_cast<height_t>(tetrimino_rotation.tet_cols[i] << height);
	or	r9d, eax	# tmp498, tmp497
	mov	WORD PTR [rdx], r9w	# MEM[(value_type &)_841], tmp498
# src/../include/Board.hpp:99:         board[board_col + i] |= static_cast<height_t>(tetrimino_rotation.tet_cols[i] << height);
	movzx	eax, WORD PTR 4[rbx]	# MEM[(const value_type &)_2(D)], MEM[(const value_type &)_2(D)]
	shlx	eax, eax, r12d	# tmp500, MEM[(const value_type &)_2(D)], _63
# src/../include/Board.hpp:99:         board[board_col + i] |= static_cast<height_t>(tetrimino_rotation.tet_cols[i] << height);
	or	esi, eax	# tmp501, tmp500
	mov	WORD PTR 2[rdx], si	# MEM[(value_type &)_841 + 2], tmp501
# src/../include/Board.hpp:419:                 test_board_score = evaluate_board_GA_internet_no_params(*test_board, line_mask);
	mov	rsi, QWORD PTR 16[rsp]	#, %sfp
	call	_Z36evaluate_board_GA_internet_no_paramsRKSt5arrayItLm10EERt	#
# src/../include/Board.hpp:421:                 if (test_board_score > best_score)
	mov	rax, QWORD PTR [rsp]	# D.153733, %sfp
	mov	r8, QWORD PTR 8[rsp]	# D.153731, %sfp
	comisd	xmm0, QWORD PTR [rax]	# test_board_score, *_6(D)
	jbe	.L88	#,
# src/../include/Board.hpp:423:                     best_score = test_board_score;
	movsd	QWORD PTR [rax], xmm0	# *_6(D), test_board_score
# src/../include/Board.hpp:135:     mask =~ mask;
	movzx	edx, WORD PTR 46[rsp]	# mask, line_mask
# src/../include/Board.hpp:424:                     destroy_lines_internet(*test_board, line_mask);
	mov	rax, QWORD PTR 0[r13]	# _81, MEM[(struct Board * &)_5(D)]
# src/../include/Board.hpp:135:     mask =~ mask;
	not	edx	# mask
# src/../include/Board.hpp:138:         board[i] = static_cast<height_t>(_pext_u32(board[i], mask));
	movzx	ecx, WORD PTR [rax]	# MEM[(value_type &)_81], MEM[(value_type &)_81]
	movzx	edx, dx	# _8, mask
# /usr/lib/gcc/x86_64-linux-gnu/8/include/bmi2intrin.h:55:   return __builtin_ia32_pext_si (__X, __Y);
	pext	ecx, ecx, edx	# tmp505, MEM[(value_type &)_81], _8
# src/../include/Board.hpp:138:         board[i] = static_cast<height_t>(_pext_u32(board[i], mask));
	mov	WORD PTR [rax], cx	# MEM[(value_type &)_81], tmp505
# src/../include/Board.hpp:138:         board[i] = static_cast<height_t>(_pext_u32(board[i], mask));
	movzx	ecx, WORD PTR 2[rax]	# MEM[(value_type &)_81], MEM[(value_type &)_81]
# /usr/lib/gcc/x86_64-linux-gnu/8/include/bmi2intrin.h:55:   return __builtin_ia32_pext_si (__X, __Y);
	pext	ecx, ecx, edx	# tmp509, MEM[(value_type &)_81], _8
# src/../include/Board.hpp:138:         board[i] = static_cast<height_t>(_pext_u32(board[i], mask));
	mov	WORD PTR 2[rax], cx	# MEM[(value_type &)_81], tmp509
# src/../include/Board.hpp:138:         board[i] = static_cast<height_t>(_pext_u32(board[i], mask));
	movzx	ecx, WORD PTR 4[rax]	# MEM[(value_type &)_81], MEM[(value_type &)_81]
# /usr/lib/gcc/x86_64-linux-gnu/8/include/bmi2intrin.h:55:   return __builtin_ia32_pext_si (__X, __Y);
	pext	ecx, ecx, edx	# tmp513, MEM[(value_type &)_81], _8
# src/../include/Board.hpp:138:         board[i] = static_cast<height_t>(_pext_u32(board[i], mask));
	mov	WORD PTR 4[rax], cx	# MEM[(value_type &)_81], tmp513
# src/../include/Board.hpp:138:         board[i] = static_cast<height_t>(_pext_u32(board[i], mask));
	movzx	ecx, WORD PTR 6[rax]	# MEM[(value_type &)_81], MEM[(value_type &)_81]
# /usr/lib/gcc/x86_64-linux-gnu/8/include/bmi2intrin.h:55:   return __builtin_ia32_pext_si (__X, __Y);
	pext	ecx, ecx, edx	# tmp517, MEM[(value_type &)_81], _8
# src/../include/Board.hpp:138:         board[i] = static_cast<height_t>(_pext_u32(board[i], mask));
	mov	WORD PTR 6[rax], cx	# MEM[(value_type &)_81], tmp517
# src/../include/Board.hpp:138:         board[i] = static_cast<height_t>(_pext_u32(board[i], mask));
	movzx	ecx, WORD PTR 8[rax]	# MEM[(value_type &)_81], MEM[(value_type &)_81]
# /usr/lib/gcc/x86_64-linux-gnu/8/include/bmi2intrin.h:55:   return __builtin_ia32_pext_si (__X, __Y);
	pext	ecx, ecx, edx	# tmp521, MEM[(value_type &)_81], _8
# src/../include/Board.hpp:138:         board[i] = static_cast<height_t>(_pext_u32(board[i], mask));
	mov	WORD PTR 8[rax], cx	# MEM[(value_type &)_81], tmp521
# src/../include/Board.hpp:138:         board[i] = static_cast<height_t>(_pext_u32(board[i], mask));
	movzx	ecx, WORD PTR 10[rax]	# MEM[(value_type &)_81], MEM[(value_type &)_81]
# /usr/lib/gcc/x86_64-linux-gnu/8/include/bmi2intrin.h:55:   return __builtin_ia32_pext_si (__X, __Y);
	pext	ecx, ecx, edx	# tmp525, MEM[(value_type &)_81], _8
# src/../include/Board.hpp:138:         board[i] = static_cast<height_t>(_pext_u32(board[i], mask));
	mov	WORD PTR 10[rax], cx	# MEM[(value_type &)_81], tmp525
# src/../include/Board.hpp:138:         board[i] = static_cast<height_t>(_pext_u32(board[i], mask));
	movzx	ecx, WORD PTR 12[rax]	# MEM[(value_type &)_81], MEM[(value_type &)_81]
# /usr/lib/gcc/x86_64-linux-gnu/8/include/bmi2intrin.h:55:   return __builtin_ia32_pext_si (__X, __Y);
	pext	ecx, ecx, edx	# tmp529, MEM[(value_type &)_81], _8
# src/../include/Board.hpp:138:         board[i] = static_cast<height_t>(_pext_u32(board[i], mask));
	mov	WORD PTR 12[rax], cx	# MEM[(value_type &)_81], tmp529
# src/../include/Board.hpp:138:         board[i] = static_cast<height_t>(_pext_u32(board[i], mask));
	movzx	ecx, WORD PTR 14[rax]	# MEM[(value_type &)_81], MEM[(value_type &)_81]
# /usr/lib/gcc/x86_64-linux-gnu/8/include/bmi2intrin.h:55:   return __builtin_ia32_pext_si (__X, __Y);
	pext	ecx, ecx, edx	# tmp533, MEM[(value_type &)_81], _8
# src/../include/Board.hpp:138:         board[i] = static_cast<height_t>(_pext_u32(board[i], mask));
	mov	WORD PTR 14[rax], cx	# MEM[(value_type &)_81], tmp533
# src/../include/Board.hpp:138:         board[i] = static_cast<height_t>(_pext_u32(board[i], mask));
	movzx	ecx, WORD PTR 16[rax]	# MEM[(value_type &)_81], MEM[(value_type &)_81]
# /usr/lib/gcc/x86_64-linux-gnu/8/include/bmi2intrin.h:55:   return __builtin_ia32_pext_si (__X, __Y);
	pext	ecx, ecx, edx	# tmp537, MEM[(value_type &)_81], _8
# src/../include/Board.hpp:138:         board[i] = static_cast<height_t>(_pext_u32(board[i], mask));
	mov	WORD PTR 16[rax], cx	# MEM[(value_type &)_81], tmp537
# src/../include/Board.hpp:138:         board[i] = static_cast<height_t>(_pext_u32(board[i], mask));
	movzx	ecx, WORD PTR 18[rax]	# MEM[(value_type &)_81], MEM[(value_type &)_81]
# /usr/lib/gcc/x86_64-linux-gnu/8/include/bmi2intrin.h:55:   return __builtin_ia32_pext_si (__X, __Y);
	pext	edx, ecx, edx	# tmp541, MEM[(value_type &)_81], _8
# src/../include/Board.hpp:138:         board[i] = static_cast<height_t>(_pext_u32(board[i], mask));
	mov	WORD PTR 18[rax], dx	# MEM[(value_type &)_81], tmp541
# /usr/include/c++/8/bits/move.h:194:       __a = _GLIBCXX_MOVE(__b);
	mov	rdx, QWORD PTR [r8]	# _92, MEM[(struct array * &)_4(D)]
	mov	QWORD PTR 0[r13], rdx	# *_5(D), _92
# /usr/include/c++/8/bits/move.h:195:       __b = _GLIBCXX_MOVE(__tmp);
	mov	QWORD PTR [r8], rax	# *_4(D), _81
# src/../include/Board.hpp:426:                     *test_board = *input_board;
	mov	rax, QWORD PTR 24[rsp]	# _9, %sfp
	mov	rdi, QWORD PTR 0[r13]	# prephitmp_767, MEM[(struct Board * &)_5(D)]
	movdqu	xmm2, XMMWORD PTR [rax]	# tmp596, *_9
	movups	XMMWORD PTR [rdi], xmm2	# *_95, tmp596
	mov	eax, DWORD PTR 16[rax]	# *_9, *_9
	mov	DWORD PTR 16[rdi], eax	# *_95, *_9
# src/../include/Board.hpp:395:             for (width_t i = 0; i < BLOCKS_W - tetrimino_rotation.tet_cols.size() + 1 ; i++)
	cmp	rbp, 9	# ivtmp.252,
	jne	.L75	#,
.L91:
# src/../include/constexpr_func_arr.hpp:239: 		};
	add	rsp, 56	#,
	.cfi_remember_state
	.cfi_def_cfa_offset 56
	pop	rbx	#
	.cfi_def_cfa_offset 48
	pop	rbp	#
	.cfi_def_cfa_offset 40
	pop	r12	#
	.cfi_def_cfa_offset 32
	pop	r13	#
	.cfi_def_cfa_offset 24
	pop	r14	#
	.cfi_def_cfa_offset 16
	pop	r15	#
	.cfi_def_cfa_offset 8
	ret	
	.p2align 4,,10
	.p2align 3
.L88:
	.cfi_restore_state
	mov	rdi, QWORD PTR 0[r13]	# prephitmp_767, MEM[(struct Board * &)_5(D)]
# src/../include/Board.hpp:108:         board[board_col + i] &= ~(tetrimino_rotation.tet_cols[i] << height);
	movzx	eax, WORD PTR [rbx]	# MEM[(const value_type &)_2(D)], MEM[(const value_type &)_2(D)]
	add	r15, rdi	# _825, prephitmp_767
	shlx	eax, eax, r12d	# tmp550, MEM[(const value_type &)_2(D)], _63
# src/../include/Board.hpp:108:         board[board_col + i] &= ~(tetrimino_rotation.tet_cols[i] << height);
	not	eax	# tmp551
# src/../include/Board.hpp:108:         board[board_col + i] &= ~(tetrimino_rotation.tet_cols[i] << height);
	and	WORD PTR -2[r15], ax	# MEM[(value_type &)_825 + 18446744073709551614], tmp551
# src/../include/Board.hpp:108:         board[board_col + i] &= ~(tetrimino_rotation.tet_cols[i] << height);
	movzx	eax, WORD PTR 2[rbx]	# MEM[(const value_type &)_2(D)], MEM[(const value_type &)_2(D)]
	shlx	eax, eax, r12d	# tmp553, MEM[(const value_type &)_2(D)], _63
# src/../include/Board.hpp:108:         board[board_col + i] &= ~(tetrimino_rotation.tet_cols[i] << height);
	not	eax	# tmp554
# src/../include/Board.hpp:108:         board[board_col + i] &= ~(tetrimino_rotation.tet_cols[i] << height);
	and	WORD PTR [r15], ax	# *_825, tmp554
# src/../include/Board.hpp:108:         board[board_col + i] &= ~(tetrimino_rotation.tet_cols[i] << height);
	movzx	eax, WORD PTR 4[rbx]	# MEM[(const value_type &)_2(D)], MEM[(const value_type &)_2(D)]
	shlx	r12d, eax, r12d	# tmp556, MEM[(const value_type &)_2(D)], _63
# src/../include/Board.hpp:108:         board[board_col + i] &= ~(tetrimino_rotation.tet_cols[i] << height);
	not	r12d	# tmp557
# src/../include/Board.hpp:108:         board[board_col + i] &= ~(tetrimino_rotation.tet_cols[i] << height);
	and	WORD PTR 2[r15], r12w	# MEM[(value_type &)_825 + 2], tmp557
	jmp	.L82	#
	.p2align 4,,10
	.p2align 3
.L87:
# src/../include/Board.hpp:430:                     unplace_tetrimino(*test_board, tetrimino_rotation, i, highest_drop_height);
	mov	rdi, QWORD PTR 0[rbp]	# prephitmp_767, MEM[(struct Board * &)_5(D)]
# src/../include/Board.hpp:108:         board[board_col + i] &= ~(tetrimino_rotation.tet_cols[i] << height);
	movzx	edx, WORD PTR 8[rbx]	# MEM[(const value_type &)_2(D) + 8], MEM[(const value_type &)_2(D) + 8]
	add	r12, rdi	# _448, prephitmp_767
	shlx	edx, edx, eax	# tmp444, MEM[(const value_type &)_2(D) + 8], _160
# src/../include/Board.hpp:108:         board[board_col + i] &= ~(tetrimino_rotation.tet_cols[i] << height);
	not	edx	# tmp445
# src/../include/Board.hpp:108:         board[board_col + i] &= ~(tetrimino_rotation.tet_cols[i] << height);
	and	WORD PTR -2[r12], dx	# MEM[(value_type &)_448 + 18446744073709551614], tmp445
# src/../include/Board.hpp:108:         board[board_col + i] &= ~(tetrimino_rotation.tet_cols[i] << height);
	movzx	edx, WORD PTR 10[rbx]	# MEM[(const value_type &)_2(D) + 8], MEM[(const value_type &)_2(D) + 8]
	shlx	eax, edx, eax	# tmp447, MEM[(const value_type &)_2(D) + 8], _160
# src/../include/Board.hpp:108:         board[board_col + i] &= ~(tetrimino_rotation.tet_cols[i] << height);
	not	eax	# tmp448
# src/../include/Board.hpp:108:         board[board_col + i] &= ~(tetrimino_rotation.tet_cols[i] << height);
	and	WORD PTR [r12], ax	# *_448, tmp448
	jmp	.L71	#
	.cfi_endproc
	.section	.text.unlikely
	.cfi_startproc
	.type	_ZZN23gen_functor_array_innerI28find_best_board_tuple_switchvUlvE_7types_tIJPKSt5arrayItLm10EERPS4_S8_RdRKSt6vectorIdSaIdEEEES2_IJ9TetriminoIJ17TetriminoRotationIJtEEEESG_IJSI_SH_IJttEESI_SK_EESL_SG_IJSI_SK_EESM_SG_IJSK_SK_SI_SI_EESG_IJSH_IJEESH_IJtttEEEEEES2_IJSJ_SL_SM_SN_SQ_EESt16integer_sequenceImJLm0ELm1ELm2ELm3ELm4ELm5ELm6EEEEclES1_ENUlRKSt7variantIJSJ_SL_SM_SN_SQ_EEOS6_S8_S8_S9_SE_E3_4_FUNESZ_S10_S8_S8_S9_SE_.cold.104, @function
_ZZN23gen_functor_array_innerI28find_best_board_tuple_switchvUlvE_7types_tIJPKSt5arrayItLm10EERPS4_S8_RdRKSt6vectorIdSaIdEEEES2_IJ9TetriminoIJ17TetriminoRotationIJtEEEESG_IJSI_SH_IJttEESI_SK_EESL_SG_IJSI_SK_EESM_SG_IJSK_SK_SI_SI_EESG_IJSH_IJEESH_IJtttEEEEEES2_IJSJ_SL_SM_SN_SQ_EESt16integer_sequenceImJLm0ELm1ELm2ELm3ELm4ELm5ELm6EEEEclES1_ENUlRKSt7variantIJSJ_SL_SM_SN_SQ_EEOS6_S8_S8_S9_SE_E3_4_FUNESZ_S10_S8_S8_S9_SE_.cold.104:
.LFSB10356:
.L86:
	.cfi_def_cfa_offset 112
	.cfi_offset 3, -56
	.cfi_offset 6, -48
	.cfi_offset 12, -40
	.cfi_offset 13, -32
	.cfi_offset 14, -24
	.cfi_offset 15, -16
# /usr/include/c++/8/variant:1023:   { _GLIBCXX_THROW_OR_ABORT(bad_variant_access(__what)); }
	call	abort@PLT	#
	.cfi_endproc
.LFE10356:
	.text
	.size	_ZZN23gen_functor_array_innerI28find_best_board_tuple_switchvUlvE_7types_tIJPKSt5arrayItLm10EERPS4_S8_RdRKSt6vectorIdSaIdEEEES2_IJ9TetriminoIJ17TetriminoRotationIJtEEEESG_IJSI_SH_IJttEESI_SK_EESL_SG_IJSI_SK_EESM_SG_IJSK_SK_SI_SI_EESG_IJSH_IJEESH_IJtttEEEEEES2_IJSJ_SL_SM_SN_SQ_EESt16integer_sequenceImJLm0ELm1ELm2ELm3ELm4ELm5ELm6EEEEclES1_ENUlRKSt7variantIJSJ_SL_SM_SN_SQ_EEOS6_S8_S8_S9_SE_E3_4_FUNESZ_S10_S8_S8_S9_SE_, .-_ZZN23gen_functor_array_innerI28find_best_board_tuple_switchvUlvE_7types_tIJPKSt5arrayItLm10EERPS4_S8_RdRKSt6vectorIdSaIdEEEES2_IJ9TetriminoIJ17TetriminoRotationIJtEEEESG_IJSI_SH_IJttEESI_SK_EESL_SG_IJSI_SK_EESM_SG_IJSK_SK_SI_SI_EESG_IJSH_IJEESH_IJtttEEEEEES2_IJSJ_SL_SM_SN_SQ_EESt16integer_sequenceImJLm0ELm1ELm2ELm3ELm4ELm5ELm6EEEEclES1_ENUlRKSt7variantIJSJ_SL_SM_SN_SQ_EEOS6_S8_S8_S9_SE_E3_4_FUNESZ_S10_S8_S8_S9_SE_
	.section	.text.unlikely
	.size	_ZZN23gen_functor_array_innerI28find_best_board_tuple_switchvUlvE_7types_tIJPKSt5arrayItLm10EERPS4_S8_RdRKSt6vectorIdSaIdEEEES2_IJ9TetriminoIJ17TetriminoRotationIJtEEEESG_IJSI_SH_IJttEESI_SK_EESL_SG_IJSI_SK_EESM_SG_IJSK_SK_SI_SI_EESG_IJSH_IJEESH_IJtttEEEEEES2_IJSJ_SL_SM_SN_SQ_EESt16integer_sequenceImJLm0ELm1ELm2ELm3ELm4ELm5ELm6EEEEclES1_ENUlRKSt7variantIJSJ_SL_SM_SN_SQ_EEOS6_S8_S8_S9_SE_E3_4_FUNESZ_S10_S8_S8_S9_SE_.cold.104, .-_ZZN23gen_functor_array_innerI28find_best_board_tuple_switchvUlvE_7types_tIJPKSt5arrayItLm10EERPS4_S8_RdRKSt6vectorIdSaIdEEEES2_IJ9TetriminoIJ17TetriminoRotationIJtEEEESG_IJSI_SH_IJttEESI_SK_EESL_SG_IJSI_SK_EESM_SG_IJSK_SK_SI_SI_EESG_IJSH_IJEESH_IJtttEEEEEES2_IJSJ_SL_SM_SN_SQ_EESt16integer_sequenceImJLm0ELm1ELm2ELm3ELm4ELm5ELm6EEEEclES1_ENUlRKSt7variantIJSJ_SL_SM_SN_SQ_EEOS6_S8_S8_S9_SE_E3_4_FUNESZ_S10_S8_S8_S9_SE_.cold.104
.LCOLDE4:
	.text
.LHOTE4:
	.section	.text.unlikely
.LCOLDB5:
	.text
.LHOTB5:
	.p2align 4,,15
	.type	_ZZN23gen_functor_array_innerI28find_best_board_tuple_switchvUlvE_7types_tIJPKSt5arrayItLm10EERPS4_S8_RdRKSt6vectorIdSaIdEEEES2_IJ9TetriminoIJ17TetriminoRotationIJtEEEESG_IJSI_SH_IJttEESI_SK_EESL_SG_IJSI_SK_EESM_SG_IJSK_SK_SI_SI_EESG_IJSH_IJEESH_IJtttEEEEEES2_IJSJ_SL_SM_SN_SQ_EESt16integer_sequenceImJLm0ELm1ELm2ELm3ELm4ELm5ELm6EEEEclES1_ENUlRKSt7variantIJSJ_SL_SM_SN_SQ_EEOS6_S8_S8_S9_SE_E2_4_FUNESZ_S10_S8_S8_S9_SE_, @function
_ZZN23gen_functor_array_innerI28find_best_board_tuple_switchvUlvE_7types_tIJPKSt5arrayItLm10EERPS4_S8_RdRKSt6vectorIdSaIdEEEES2_IJ9TetriminoIJ17TetriminoRotationIJtEEEESG_IJSI_SH_IJttEESI_SK_EESL_SG_IJSI_SK_EESM_SG_IJSK_SK_SI_SI_EESG_IJSH_IJEESH_IJtttEEEEEES2_IJSJ_SL_SM_SN_SQ_EESt16integer_sequenceImJLm0ELm1ELm2ELm3ELm4ELm5ELm6EEEEclES1_ENUlRKSt7variantIJSJ_SL_SM_SN_SQ_EEOS6_S8_S8_S9_SE_E2_4_FUNESZ_S10_S8_S8_S9_SE_:
.LFB10341:
	.cfi_startproc
	push	r15	#
	.cfi_def_cfa_offset 16
	.cfi_offset 15, -16
	push	r14	#
	.cfi_def_cfa_offset 24
	.cfi_offset 14, -24
	push	r13	#
	.cfi_def_cfa_offset 32
	.cfi_offset 13, -32
	push	r12	#
	.cfi_def_cfa_offset 40
	.cfi_offset 12, -40
	push	rbp	#
	.cfi_def_cfa_offset 48
	.cfi_offset 6, -48
	push	rbx	#
	.cfi_def_cfa_offset 56
	.cfi_offset 3, -56
	sub	rsp, 56	#,
	.cfi_def_cfa_offset 112
# /usr/include/c++/8/variant:1355:       if (__v.index() != _Np)
	cmp	BYTE PTR 28[rdi], 2	# MEM[(unsigned char *)_2(D) + 28B],
# src/../include/constexpr_func_arr.hpp:239: 		};
	mov	r13, QWORD PTR [rsi]	# _9, *_3(D)
# src/../include/constexpr_func_arr.hpp:233: 				[](variant_t const& vrnt, Args&&... args) noexcept-> Ret
	mov	QWORD PTR [rsp], r8	# %sfp, D.153627
# /usr/include/c++/8/variant:1355:       if (__v.index() != _Np)
	jne	.L110	#,
	mov	rbx, rdi	# D.153623, D.153623
# src/../include/Board.hpp:390:         best_score = -INFINITY;
	mov	rdi, QWORD PTR .LC1[rip]	# tmp575,
	mov	r14, rdx	# D.153625, D.153625
	mov	rbp, rcx	# D.153626, D.153626
# src/../include/Board.hpp:391:         *test_board = *input_board;
	movdqu	xmm3, XMMWORD PTR 0[r13]	# tmp576, *_9
	mov	r15d, 1	# ivtmp.296,
# src/../include/Board.hpp:390:         best_score = -INFINITY;
	mov	QWORD PTR [r8], rdi	# *_6(D), tmp575
# src/../include/Board.hpp:391:         *test_board = *input_board;
	mov	rdi, QWORD PTR [rcx]	# prephitmp_767, MEM[(struct Board * &)_5(D)]
	movups	XMMWORD PTR [rdi], xmm3	# *_12, tmp576
	mov	eax, DWORD PTR 16[r13]	# *_9, *_9
	mov	DWORD PTR 16[rdi], eax	# *_12, *_9
# src/../include/Board.hpp:419:                 test_board_score = evaluate_board_GA_internet_no_params(*test_board, line_mask);
	lea	rax, 46[rsp]	# tmp560,
	mov	QWORD PTR 16[rsp], rax	# %sfp, tmp560
	jmp	.L100	#
	.p2align 4,,10
	.p2align 3
.L95:
	add	r15, 1	# ivtmp.296,
# src/../include/Board.hpp:395:             for (width_t i = 0; i < BLOCKS_W - tetrimino_rotation.tet_cols.size() + 1 ; i++)
	cmp	r15, 10	# ivtmp.296,
	je	.L114	#,
.L100:
	lea	r12, [r15+r15]	# _113,
# src/../include/Tetrimino.hpp:18:         return __builtin_ffsll(tet_cols[col]) - 1;
	movzx	esi, WORD PTR 8[rbx]	#, MEM[(const value_type &)_2(D) + 8]
	mov	rdx, -1	# tmp578,
	movzx	ecx, WORD PTR 10[rbx]	# MEM[(const value_type &)_2(D) + 8], MEM[(const value_type &)_2(D) + 8]
	lea	r9, [rdi+r12]	# _116,
# src/../include/Board.hpp:91:     return static_cast<int>(col_height(board[board_col])) - static_cast<int>(tetrimino_rotation.bottom_empty_spaces(tetrimino_col));
	movzx	eax, WORD PTR -2[r9]	#, MEM[(const value_type &)_116 + 18446744073709551614]
# src/../include/Tetrimino.hpp:18:         return __builtin_ffsll(tet_cols[col]) - 1;
	mov	r8, rsi	#,
# src/../include/Board.hpp:91:     return static_cast<int>(col_height(board[board_col])) - static_cast<int>(tetrimino_rotation.bottom_empty_spaces(tetrimino_col));
	mov	r11d, eax	#,
# src/../include/Board.hpp:22:     return static_cast<height_t>(63 - __builtin_clzll(static_cast<unsigned long long>((col << 1) | 1)));
	lea	eax, 1[rax+rax]	# tmp364,
# src/../include/Board.hpp:22:     return static_cast<height_t>(63 - __builtin_clzll(static_cast<unsigned long long>((col << 1) | 1)));
	cdqe
	bsr	rax, rax	# tmp366, tmp365
	xor	rax, 63	# tmp366,
# src/../include/Tetrimino.hpp:18:         return __builtin_ffsll(tet_cols[col]) - 1;
	bsf	rsi, rsi	# tmp368, _129
	cmove	rsi, rdx	# tmp578,, tmp368
# src/../include/Board.hpp:22:     return static_cast<height_t>(63 - __builtin_clzll(static_cast<unsigned long long>((col << 1) | 1)));
	mov	QWORD PTR 8[rsp], rax	# %sfp, tmp366
# src/../include/Tetrimino.hpp:18:         return __builtin_ffsll(tet_cols[col]) - 1;
	mov	rax, rdx	# tmp578, tmp578
# src/../include/Board.hpp:91:     return static_cast<int>(col_height(board[board_col])) - static_cast<int>(tetrimino_rotation.bottom_empty_spaces(tetrimino_col));
	movzx	edx, WORD PTR [r9]	#, *_116
	mov	r10d, edx	#,
# src/../include/Board.hpp:22:     return static_cast<height_t>(63 - __builtin_clzll(static_cast<unsigned long long>((col << 1) | 1)));
	lea	edx, 1[rdx+rdx]	# tmp372,
# src/../include/Board.hpp:91:     return static_cast<int>(col_height(board[board_col])) - static_cast<int>(tetrimino_rotation.bottom_empty_spaces(tetrimino_col));
	movzx	esi, si	# tmp382, tmp368
# src/../include/Board.hpp:22:     return static_cast<height_t>(63 - __builtin_clzll(static_cast<unsigned long long>((col << 1) | 1)));
	movsx	rdx, edx	# tmp373, tmp372
	bsr	rdx, rdx	# tmp374, tmp373
	xor	rdx, 63	# tmp374,
# src/../include/Tetrimino.hpp:18:         return __builtin_ffsll(tet_cols[col]) - 1;
	bsf	rcx, rcx	# tmp376, MEM[(const value_type &)_2(D) + 8]
	cmove	rcx, rax	# tmp579,, tmp376
# src/../include/Board.hpp:22:     return static_cast<height_t>(63 - __builtin_clzll(static_cast<unsigned long long>((col << 1) | 1)));
	mov	eax, 63	# tmp378,
	sub	ax, WORD PTR 8[rsp]	# tmp378, %sfp
# src/../include/Board.hpp:91:     return static_cast<int>(col_height(board[board_col])) - static_cast<int>(tetrimino_rotation.bottom_empty_spaces(tetrimino_col));
	movzx	eax, ax	# tmp380, tmp378
# src/../include/Board.hpp:91:     return static_cast<int>(col_height(board[board_col])) - static_cast<int>(tetrimino_rotation.bottom_empty_spaces(tetrimino_col));
	sub	eax, esi	# tmp383, tmp382
# src/../include/Board.hpp:22:     return static_cast<height_t>(63 - __builtin_clzll(static_cast<unsigned long long>((col << 1) | 1)));
	mov	esi, 63	# tmp384,
# src/../include/Board.hpp:91:     return static_cast<int>(col_height(board[board_col])) - static_cast<int>(tetrimino_rotation.bottom_empty_spaces(tetrimino_col));
	movzx	ecx, cx	# tmp388, tmp376
# src/../include/Board.hpp:22:     return static_cast<height_t>(63 - __builtin_clzll(static_cast<unsigned long long>((col << 1) | 1)));
	sub	esi, edx	# tmp384, tmp374
	movzx	edx, si	#, tmp384
# src/../include/Board.hpp:91:     return static_cast<int>(col_height(board[board_col])) - static_cast<int>(tetrimino_rotation.bottom_empty_spaces(tetrimino_col));
	sub	edx, ecx	# tmp389, tmp388
	cmp	eax, edx	# tmp383, tmp389
	cmovl	eax, edx	# tmp383,, highest_drop_height, tmp389
# src/../include/Board.hpp:410:                 if (highest_drop_height + tetrimino_rotation.height - 1 >= BLOCKS_H)
	movzx	edx, WORD PTR 12[rbx]	# MEM[(const struct TetriminoRotation &)_2(D) + 8].height, MEM[(const struct TetriminoRotation &)_2(D) + 8].height
	add	edx, eax	# tmp391, highest_drop_height
# src/../include/Board.hpp:410:                 if (highest_drop_height + tetrimino_rotation.height - 1 >= BLOCKS_H)
	cmp	edx, 16	# tmp391,
	jg	.L95	#,
	movzx	eax, ax	# _160, highest_drop_height
# src/../include/Board.hpp:419:                 test_board_score = evaluate_board_GA_internet_no_params(*test_board, line_mask);
	mov	rsi, QWORD PTR 16[rsp]	#, %sfp
# src/../include/Board.hpp:99:         board[board_col + i] |= static_cast<height_t>(tetrimino_rotation.tet_cols[i] << height);
	shlx	r8d, r8d, eax	# tmp393, _129, _160
# src/../include/Board.hpp:99:         board[board_col + i] |= static_cast<height_t>(tetrimino_rotation.tet_cols[i] << height);
	or	r8d, r11d	# tmp394, _120
# src/../include/Board.hpp:99:         board[board_col + i] |= static_cast<height_t>(tetrimino_rotation.tet_cols[i] << height);
	mov	DWORD PTR 8[rsp], eax	# %sfp, _160
# src/../include/Board.hpp:99:         board[board_col + i] |= static_cast<height_t>(tetrimino_rotation.tet_cols[i] << height);
	mov	WORD PTR -2[r9], r8w	# MEM[(value_type &)_116 + 18446744073709551614], tmp394
# src/../include/Board.hpp:99:         board[board_col + i] |= static_cast<height_t>(tetrimino_rotation.tet_cols[i] << height);
	movzx	edx, WORD PTR 10[rbx]	# MEM[(const value_type &)_2(D) + 8], MEM[(const value_type &)_2(D) + 8]
	shlx	edx, edx, eax	# tmp396, MEM[(const value_type &)_2(D) + 8], _160
# src/../include/Board.hpp:99:         board[board_col + i] |= static_cast<height_t>(tetrimino_rotation.tet_cols[i] << height);
	or	r10d, edx	# tmp397, tmp396
	mov	WORD PTR [r9], r10w	# MEM[(value_type &)_116], tmp397
# src/../include/Board.hpp:419:                 test_board_score = evaluate_board_GA_internet_no_params(*test_board, line_mask);
	call	_Z36evaluate_board_GA_internet_no_paramsRKSt5arrayItLm10EERt	#
# src/../include/Board.hpp:421:                 if (test_board_score > best_score)
	mov	rdi, QWORD PTR [rsp]	# D.153627, %sfp
	mov	eax, DWORD PTR 8[rsp]	# _160, %sfp
	comisd	xmm0, QWORD PTR [rdi]	# test_board_score, *_6(D)
	jbe	.L111	#,
# src/../include/Board.hpp:424:                     destroy_lines_internet(*test_board, line_mask);
	mov	rax, QWORD PTR 0[rbp]	# _178, MEM[(struct Board * &)_5(D)]
# src/../include/Board.hpp:135:     mask =~ mask;
	movzx	edx, WORD PTR 46[rsp]	# mask, line_mask
# src/../include/Board.hpp:423:                     best_score = test_board_score;
	movsd	QWORD PTR [rdi], xmm0	# *_6(D), test_board_score
	add	r15, 1	# ivtmp.296,
# src/../include/Board.hpp:138:         board[i] = static_cast<height_t>(_pext_u32(board[i], mask));
	movzx	ecx, WORD PTR [rax]	# MEM[(value_type &)_178], MEM[(value_type &)_178]
# src/../include/Board.hpp:135:     mask =~ mask;
	not	edx	# mask
# src/../include/Board.hpp:138:         board[i] = static_cast<height_t>(_pext_u32(board[i], mask));
	movzx	edx, dx	# _495, mask
# /usr/lib/gcc/x86_64-linux-gnu/8/include/bmi2intrin.h:55:   return __builtin_ia32_pext_si (__X, __Y);
	pext	ecx, ecx, edx	# tmp401, MEM[(value_type &)_178], _495
# src/../include/Board.hpp:138:         board[i] = static_cast<height_t>(_pext_u32(board[i], mask));
	mov	WORD PTR [rax], cx	# MEM[(value_type &)_178], tmp401
# src/../include/Board.hpp:138:         board[i] = static_cast<height_t>(_pext_u32(board[i], mask));
	movzx	ecx, WORD PTR 2[rax]	# MEM[(value_type &)_178], MEM[(value_type &)_178]
# /usr/lib/gcc/x86_64-linux-gnu/8/include/bmi2intrin.h:55:   return __builtin_ia32_pext_si (__X, __Y);
	pext	ecx, ecx, edx	# tmp405, MEM[(value_type &)_178], _495
# src/../include/Board.hpp:138:         board[i] = static_cast<height_t>(_pext_u32(board[i], mask));
	mov	WORD PTR 2[rax], cx	# MEM[(value_type &)_178], tmp405
# src/../include/Board.hpp:138:         board[i] = static_cast<height_t>(_pext_u32(board[i], mask));
	movzx	ecx, WORD PTR 4[rax]	# MEM[(value_type &)_178], MEM[(value_type &)_178]
# /usr/lib/gcc/x86_64-linux-gnu/8/include/bmi2intrin.h:55:   return __builtin_ia32_pext_si (__X, __Y);
	pext	ecx, ecx, edx	# tmp409, MEM[(value_type &)_178], _495
# src/../include/Board.hpp:138:         board[i] = static_cast<height_t>(_pext_u32(board[i], mask));
	mov	WORD PTR 4[rax], cx	# MEM[(value_type &)_178], tmp409
# src/../include/Board.hpp:138:         board[i] = static_cast<height_t>(_pext_u32(board[i], mask));
	movzx	ecx, WORD PTR 6[rax]	# MEM[(value_type &)_178], MEM[(value_type &)_178]
# /usr/lib/gcc/x86_64-linux-gnu/8/include/bmi2intrin.h:55:   return __builtin_ia32_pext_si (__X, __Y);
	pext	ecx, ecx, edx	# tmp413, MEM[(value_type &)_178], _495
# src/../include/Board.hpp:138:         board[i] = static_cast<height_t>(_pext_u32(board[i], mask));
	mov	WORD PTR 6[rax], cx	# MEM[(value_type &)_178], tmp413
# src/../include/Board.hpp:138:         board[i] = static_cast<height_t>(_pext_u32(board[i], mask));
	movzx	ecx, WORD PTR 8[rax]	# MEM[(value_type &)_178], MEM[(value_type &)_178]
# /usr/lib/gcc/x86_64-linux-gnu/8/include/bmi2intrin.h:55:   return __builtin_ia32_pext_si (__X, __Y);
	pext	ecx, ecx, edx	# tmp417, MEM[(value_type &)_178], _495
# src/../include/Board.hpp:138:         board[i] = static_cast<height_t>(_pext_u32(board[i], mask));
	mov	WORD PTR 8[rax], cx	# MEM[(value_type &)_178], tmp417
# src/../include/Board.hpp:138:         board[i] = static_cast<height_t>(_pext_u32(board[i], mask));
	movzx	ecx, WORD PTR 10[rax]	# MEM[(value_type &)_178], MEM[(value_type &)_178]
# /usr/lib/gcc/x86_64-linux-gnu/8/include/bmi2intrin.h:55:   return __builtin_ia32_pext_si (__X, __Y);
	pext	ecx, ecx, edx	# tmp421, MEM[(value_type &)_178], _495
# src/../include/Board.hpp:138:         board[i] = static_cast<height_t>(_pext_u32(board[i], mask));
	mov	WORD PTR 10[rax], cx	# MEM[(value_type &)_178], tmp421
# src/../include/Board.hpp:138:         board[i] = static_cast<height_t>(_pext_u32(board[i], mask));
	movzx	ecx, WORD PTR 12[rax]	# MEM[(value_type &)_178], MEM[(value_type &)_178]
# /usr/lib/gcc/x86_64-linux-gnu/8/include/bmi2intrin.h:55:   return __builtin_ia32_pext_si (__X, __Y);
	pext	ecx, ecx, edx	# tmp425, MEM[(value_type &)_178], _495
# src/../include/Board.hpp:138:         board[i] = static_cast<height_t>(_pext_u32(board[i], mask));
	mov	WORD PTR 12[rax], cx	# MEM[(value_type &)_178], tmp425
# src/../include/Board.hpp:138:         board[i] = static_cast<height_t>(_pext_u32(board[i], mask));
	movzx	ecx, WORD PTR 14[rax]	# MEM[(value_type &)_178], MEM[(value_type &)_178]
# /usr/lib/gcc/x86_64-linux-gnu/8/include/bmi2intrin.h:55:   return __builtin_ia32_pext_si (__X, __Y);
	pext	ecx, ecx, edx	# tmp429, MEM[(value_type &)_178], _495
# src/../include/Board.hpp:138:         board[i] = static_cast<height_t>(_pext_u32(board[i], mask));
	mov	WORD PTR 14[rax], cx	# MEM[(value_type &)_178], tmp429
# src/../include/Board.hpp:138:         board[i] = static_cast<height_t>(_pext_u32(board[i], mask));
	movzx	ecx, WORD PTR 16[rax]	# MEM[(value_type &)_178], MEM[(value_type &)_178]
# /usr/lib/gcc/x86_64-linux-gnu/8/include/bmi2intrin.h:55:   return __builtin_ia32_pext_si (__X, __Y);
	pext	ecx, ecx, edx	# tmp433, MEM[(value_type &)_178], _495
# src/../include/Board.hpp:138:         board[i] = static_cast<height_t>(_pext_u32(board[i], mask));
	mov	WORD PTR 16[rax], cx	# MEM[(value_type &)_178], tmp433
# src/../include/Board.hpp:138:         board[i] = static_cast<height_t>(_pext_u32(board[i], mask));
	movzx	ecx, WORD PTR 18[rax]	# MEM[(value_type &)_178], MEM[(value_type &)_178]
# /usr/lib/gcc/x86_64-linux-gnu/8/include/bmi2intrin.h:55:   return __builtin_ia32_pext_si (__X, __Y);
	pext	edx, ecx, edx	# tmp437, MEM[(value_type &)_178], _495
# src/../include/Board.hpp:138:         board[i] = static_cast<height_t>(_pext_u32(board[i], mask));
	mov	WORD PTR 18[rax], dx	# MEM[(value_type &)_178], tmp437
# /usr/include/c++/8/bits/move.h:194:       __a = _GLIBCXX_MOVE(__b);
	mov	rdx, QWORD PTR [r14]	# _189, MEM[(struct array * &)_4(D)]
# src/../include/Board.hpp:426:                     *test_board = *input_board;
	movdqu	xmm1, XMMWORD PTR 0[r13]	# tmp585, *_9
# /usr/include/c++/8/bits/move.h:194:       __a = _GLIBCXX_MOVE(__b);
	mov	QWORD PTR 0[rbp], rdx	# *_5(D), _189
# /usr/include/c++/8/bits/move.h:195:       __b = _GLIBCXX_MOVE(__tmp);
	mov	QWORD PTR [r14], rax	# *_4(D), _178
# src/../include/Board.hpp:426:                     *test_board = *input_board;
	mov	rdi, QWORD PTR 0[rbp]	# prephitmp_767, MEM[(struct Board * &)_5(D)]
	movups	XMMWORD PTR [rdi], xmm1	# *_192, tmp585
	mov	eax, DWORD PTR 16[r13]	# *_9, *_9
	mov	DWORD PTR 16[rdi], eax	# *_192, *_9
# src/../include/Board.hpp:395:             for (width_t i = 0; i < BLOCKS_W - tetrimino_rotation.tet_cols.size() + 1 ; i++)
	cmp	r15, 10	# ivtmp.296,
	jne	.L100	#,
.L114:
# src/../include/Board.hpp:419:                 test_board_score = evaluate_board_GA_internet_no_params(*test_board, line_mask);
	lea	rax, 46[rsp]	# tmp559,
# src/../include/Board.hpp:395:             for (width_t i = 0; i < BLOCKS_W - tetrimino_rotation.tet_cols.size() + 1 ; i++)
	mov	r8d, 1	# ivtmp.283,
# src/../include/Board.hpp:419:                 test_board_score = evaluate_board_GA_internet_no_params(*test_board, line_mask);
	mov	QWORD PTR 24[rsp], r13	# %sfp, _9
	mov	QWORD PTR 16[rsp], rax	# %sfp, tmp559
	mov	rax, rbp	# D.153626, D.153626
	mov	rbp, r8	# ivtmp.283, ivtmp.283
	mov	r8, r14	# D.153625, D.153625
	mov	r13, rax	# D.153626, D.153626
	jmp	.L99	#
	.p2align 4,,10
	.p2align 3
.L106:
# src/../include/Board.hpp:395:             for (width_t i = 0; i < BLOCKS_W - tetrimino_rotation.tet_cols.size() + 1 ; i++)
	cmp	rbp, 9	# ivtmp.283,
	je	.L115	#,
.L99:
	lea	r15, [rbp+rbp]	# _842,
# src/../include/Tetrimino.hpp:18:         return __builtin_ffsll(tet_cols[col]) - 1;
	movzx	r12d, WORD PTR [rbx]	#, MEM[(const value_type &)_2(D)]
	movzx	r11d, WORD PTR 2[rbx]	# MEM[(const value_type &)_2(D)], MEM[(const value_type &)_2(D)]
	mov	rsi, -1	# tmp587,
	lea	rdx, [rdi+r15]	# _841,
	mov	r14, rsi	# tmp587, tmp587
# src/../include/Board.hpp:91:     return static_cast<int>(col_height(board[board_col])) - static_cast<int>(tetrimino_rotation.bottom_empty_spaces(tetrimino_col));
	movzx	eax, WORD PTR -2[rdx]	#, MEM[(const value_type &)_841 + 18446744073709551614]
# src/../include/Tetrimino.hpp:18:         return __builtin_ffsll(tet_cols[col]) - 1;
	mov	rcx, r12	#,
# src/../include/Board.hpp:91:     return static_cast<int>(col_height(board[board_col])) - static_cast<int>(tetrimino_rotation.bottom_empty_spaces(tetrimino_col));
	mov	r10d, eax	#,
# src/../include/Board.hpp:22:     return static_cast<height_t>(63 - __builtin_clzll(static_cast<unsigned long long>((col << 1) | 1)));
	lea	eax, 1[rax+rax]	# tmp451,
# src/../include/Board.hpp:22:     return static_cast<height_t>(63 - __builtin_clzll(static_cast<unsigned long long>((col << 1) | 1)));
	cdqe
	bsr	rax, rax	# tmp453, tmp452
	xor	rax, 63	# tmp453,
# src/../include/Tetrimino.hpp:18:         return __builtin_ffsll(tet_cols[col]) - 1;
	bsf	r12, r12	# tmp455, _30
	cmove	r12, rsi	# tmp587,, tmp455
# src/../include/Board.hpp:91:     return static_cast<int>(col_height(board[board_col])) - static_cast<int>(tetrimino_rotation.bottom_empty_spaces(tetrimino_col));
	movzx	esi, WORD PTR [rdx]	#, *_841
	mov	r9d, esi	#,
# src/../include/Board.hpp:22:     return static_cast<height_t>(63 - __builtin_clzll(static_cast<unsigned long long>((col << 1) | 1)));
	lea	esi, 1[rsi+rsi]	# tmp459,
# src/../include/Board.hpp:91:     return static_cast<int>(col_height(board[board_col])) - static_cast<int>(tetrimino_rotation.bottom_empty_spaces(tetrimino_col));
	movzx	r12d, r12w	# tmp469, tmp455
# src/../include/Board.hpp:22:     return static_cast<height_t>(63 - __builtin_clzll(static_cast<unsigned long long>((col << 1) | 1)));
	movsx	rsi, esi	# tmp460, tmp459
	bsr	rsi, rsi	# tmp461, tmp460
	xor	rsi, 63	# tmp461,
# src/../include/Tetrimino.hpp:18:         return __builtin_ffsll(tet_cols[col]) - 1;
	bsf	r11, r11	# tmp463, MEM[(const value_type &)_2(D)]
	cmove	r11, r14	# tmp588,, tmp463
