	.file	"main.cpp"
# GNU C++17 (Debian 8.3.0-6) version 8.3.0 (x86_64-linux-gnu)
#	compiled by GNU C version 8.3.0, GMP version 6.1.2, MPFR version 4.0.2, MPC version 1.1.0, isl version isl-0.20-GMP

# GGC heuristics: --param ggc-min-expand=100 --param ggc-min-heapsize=131072
# options passed:  -imultiarch x86_64-linux-gnu -D_GNU_SOURCE -D_REENTRANT
# src/main.cpp -mbmi2 -mtune=generic -march=x86-64 -auxbase-strip main2.s
# -Ofast -Winline -std=c++2a -fopenmp -finline-functions -fno-exceptions
# -fverbose-asm
# options enabled:  -fPIC -fPIE -faggressive-loop-optimizations
# -falign-labels -fassociative-math -fasynchronous-unwind-tables
# -fauto-inc-dec -fbranch-count-reg -fcaller-saves
# -fchkp-check-incomplete-type -fchkp-check-read -fchkp-check-write
# -fchkp-instrument-calls -fchkp-narrow-bounds -fchkp-optimize
# -fchkp-store-bounds -fchkp-use-static-bounds
# -fchkp-use-static-const-bounds -fchkp-use-wrappers -fcode-hoisting
# -fcombine-stack-adjustments -fcommon -fcompare-elim -fcprop-registers
# -fcrossjumping -fcse-follow-jumps -fcx-limited-range -fdefer-pop
# -fdelete-null-pointer-checks -fdevirtualize -fdevirtualize-speculatively
# -fdwarf2-cfi-asm -fearly-inlining -feliminate-unused-debug-types
# -fexpensive-optimizations -ffinite-math-only -fforward-propagate
# -ffp-int-builtin-inexact -ffunction-cse -fgcse -fgcse-after-reload
# -fgcse-lm -fgnu-runtime -fgnu-unique -fguess-branch-probability
# -fhoist-adjacent-loads -fident -fif-conversion -fif-conversion2
# -findirect-inlining -finline -finline-atomics -finline-functions
# -finline-functions-called-once -finline-small-functions -fipa-bit-cp
# -fipa-cp -fipa-cp-clone -fipa-icf -fipa-icf-functions -fipa-icf-variables
# -fipa-profile -fipa-pure-const -fipa-ra -fipa-reference -fipa-sra
# -fipa-vrp -fira-hoist-pressure -fira-share-save-slots
# -fira-share-spill-slots -fisolate-erroneous-paths-dereference -fivopts
# -fkeep-static-consts -fleading-underscore -flifetime-dse
# -floop-interchange -floop-unroll-and-jam -flra-remat
# -flto-odr-type-merging -fmerge-constants -fmerge-debug-strings
# -fmove-loop-invariants -fomit-frame-pointer -foptimize-sibling-calls
# -foptimize-strlen -fpartial-inlining -fpeel-loops -fpeephole -fpeephole2
# -fplt -fpredictive-commoning -fprefetch-loop-arrays -freciprocal-math
# -free -freg-struct-return -freorder-blocks -freorder-blocks-and-partition
# -freorder-functions -frerun-cse-after-loop
# -fsched-critical-path-heuristic -fsched-dep-count-heuristic
# -fsched-group-heuristic -fsched-interblock -fsched-last-insn-heuristic
# -fsched-rank-heuristic -fsched-spec -fsched-spec-insn-heuristic
# -fsched-stalled-insns-dep -fschedule-fusion -fschedule-insns2
# -fsemantic-interposition -fshow-column -fshrink-wrap
# -fshrink-wrap-separate -fsplit-ivs-in-unroller -fsplit-loops
# -fsplit-paths -fsplit-wide-types -fssa-backprop -fssa-phiopt -fstdarg-opt
# -fstore-merging -fstrict-aliasing -fstrict-volatile-bitfields
# -fsync-libcalls -fthread-jumps -ftoplevel-reorder -ftree-bit-ccp
# -ftree-builtin-call-dce -ftree-ccp -ftree-ch -ftree-coalesce-vars
# -ftree-copy-prop -ftree-cselim -ftree-dce -ftree-dominator-opts
# -ftree-dse -ftree-forwprop -ftree-fre -ftree-loop-distribute-patterns
# -ftree-loop-distribution -ftree-loop-if-convert -ftree-loop-im
# -ftree-loop-ivcanon -ftree-loop-optimize -ftree-loop-vectorize
# -ftree-parallelize-loops= -ftree-partial-pre -ftree-phiprop -ftree-pre
# -ftree-pta -ftree-reassoc -ftree-scev-cprop -ftree-sink
# -ftree-slp-vectorize -ftree-slsr -ftree-sra -ftree-switch-conversion
# -ftree-tail-merge -ftree-ter -ftree-vrp -funit-at-a-time
# -funsafe-math-optimizations -funswitch-loops -funwind-tables
# -fverbose-asm -fzero-initialized-in-bss -m128bit-long-double -m64 -m80387
# -malign-stringops -mavx256-split-unaligned-load
# -mavx256-split-unaligned-store -mbmi2 -mfancy-math-387 -mfp-ret-in-387
# -mfxsr -mglibc -mlong-double-80 -mmmx -mno-sse4 -mpush-args -mred-zone
# -msse -msse2 -mstv -mtls-direct-seg-refs -mvzeroupper

	.text
	.section	.text._ZNSt6vectorIdSaIdEED2Ev,"axG",@progbits,_ZNSt6vectorIdSaIdEED5Ev,comdat
	.align 2
	.p2align 4,,15
	.weak	_ZNSt6vectorIdSaIdEED2Ev
	.type	_ZNSt6vectorIdSaIdEED2Ev, @function
_ZNSt6vectorIdSaIdEED2Ev:
.LFB12111:
	.cfi_startproc
# /usr/include/c++/8/bits/stl_vector.h:567: 	std::_Destroy(this->_M_impl._M_start, this->_M_impl._M_finish,
	movq	(%rdi), %rdi	# this_2(D)->D.63468._M_impl._M_start, _1
# /usr/include/c++/8/bits/stl_vector.h:303: 	if (__p)
	testq	%rdi, %rdi	# _1
	je	.L1	#,
# /usr/include/c++/8/ext/new_allocator.h:125: 	::operator delete(__p);
	jmp	_ZdlPv@PLT	#
	.p2align 4,,10
	.p2align 3
.L1:
# /usr/include/c++/8/bits/stl_vector.h:570:       }
	ret	
	.cfi_endproc
.LFE12111:
	.size	_ZNSt6vectorIdSaIdEED2Ev, .-_ZNSt6vectorIdSaIdEED2Ev
	.weak	_ZNSt6vectorIdSaIdEED1Ev
	.set	_ZNSt6vectorIdSaIdEED1Ev,_ZNSt6vectorIdSaIdEED2Ev
	.section	.text._ZNSt13random_deviceD2Ev,"axG",@progbits,_ZNSt13random_deviceD5Ev,comdat
	.align 2
	.p2align 4,,15
	.weak	_ZNSt13random_deviceD2Ev
	.type	_ZNSt13random_deviceD2Ev, @function
_ZNSt13random_deviceD2Ev:
.LFB3096:
	.cfi_startproc
# /usr/include/c++/8/bits/random.h:1577:     { _M_fini(); }
	jmp	_ZNSt13random_device7_M_finiEv@PLT	#
	.cfi_endproc
.LFE3096:
	.size	_ZNSt13random_deviceD2Ev, .-_ZNSt13random_deviceD2Ev
	.weak	_ZNSt13random_deviceD1Ev
	.set	_ZNSt13random_deviceD1Ev,_ZNSt13random_deviceD2Ev
	.section	.text._ZNSt11char_traitsIcE6lengthEPKc,"axG",@progbits,_ZNSt11char_traitsIcE6lengthEPKc,comdat
	.p2align 4,,15
	.weak	_ZNSt11char_traitsIcE6lengthEPKc
	.type	_ZNSt11char_traitsIcE6lengthEPKc, @function
_ZNSt11char_traitsIcE6lengthEPKc:
.LFB406:
	.cfi_startproc
# /usr/include/c++/8/bits/char_traits.h:322: 	return __builtin_strlen(__s);
	jmp	strlen@PLT	#
	.cfi_endproc
.LFE406:
	.size	_ZNSt11char_traitsIcE6lengthEPKc, .-_ZNSt11char_traitsIcE6lengthEPKc
	.text
	.p2align 4,,15
	.globl	_Z5resetRSt5arrayItLm10EE
	.type	_Z5resetRSt5arrayItLm10EE, @function
_Z5resetRSt5arrayItLm10EE:
.LFB10152:
	.cfi_startproc
	pxor	%xmm0, %xmm0	# tmp88
	movl	$0, 16(%rdi)	#, MEM[(void *)board_5(D)]
	movups	%xmm0, (%rdi)	# tmp88, MEM[(void *)board_5(D)]
# src/../include/Board.hpp:18: }
	ret	
	.cfi_endproc
.LFE10152:
	.size	_Z5resetRSt5arrayItLm10EE, .-_Z5resetRSt5arrayItLm10EE
	.p2align 4,,15
	.globl	_Z10col_heightt
	.type	_Z10col_heightt, @function
_Z10col_heightt:
.LFB10154:
	.cfi_startproc
# src/../include/Board.hpp:22:     return static_cast<height_t>(63 - __builtin_clzll(static_cast<unsigned long long>((col << 1) | 1)));
	movzwl	%di, %edx	# col, col
# src/../include/Board.hpp:22:     return static_cast<height_t>(63 - __builtin_clzll(static_cast<unsigned long long>((col << 1) | 1)));
	movl	$63, %eax	#, tmp102
# src/../include/Board.hpp:22:     return static_cast<height_t>(63 - __builtin_clzll(static_cast<unsigned long long>((col << 1) | 1)));
	leal	1(%rdx,%rdx), %edx	#, tmp98
# src/../include/Board.hpp:22:     return static_cast<height_t>(63 - __builtin_clzll(static_cast<unsigned long long>((col << 1) | 1)));
	movslq	%edx, %rdx	# tmp98, tmp99
	bsrq	%rdx, %rdx	# tmp99, tmp100
	xorq	$63, %rdx	#, tmp100
# src/../include/Board.hpp:22:     return static_cast<height_t>(63 - __builtin_clzll(static_cast<unsigned long long>((col << 1) | 1)));
	subl	%edx, %eax	# tmp100, tmp101
# src/../include/Board.hpp:23: }
	ret	
	.cfi_endproc
.LFE10154:
	.size	_Z10col_heightt, .-_Z10col_heightt
	.globl	__popcountdi2
	.p2align 4,,15
	.globl	_Z17getRowTransitionsRKSt5arrayItLm10EE
	.type	_Z17getRowTransitionsRKSt5arrayItLm10EE, @function
_Z17getRowTransitionsRKSt5arrayItLm10EE:
.LFB10156:
	.cfi_startproc
	pushq	%r13	#
	.cfi_def_cfa_offset 16
	.cfi_offset 13, -16
	pushq	%r12	#
	.cfi_def_cfa_offset 24
	.cfi_offset 12, -24
	pushq	%rbp	#
	.cfi_def_cfa_offset 32
	.cfi_offset 6, -32
	movq	%rdi, %rbp	# board, board
	pushq	%rbx	#
	.cfi_def_cfa_offset 40
	.cfi_offset 3, -40
	subq	$8, %rsp	#,
	.cfi_def_cfa_offset 48
# src/../include/Board.hpp:40:     transitions += __builtin_popcount(FULL_COLUMN ^ board[0]);
	movzwl	(%rdi), %r12d	# MEM[(const value_type &)board_23(D)], _1
	movl	%r12d, %edi	# _1, tmp153
	notl	%edi	# tmp153
# src/../include/Board.hpp:40:     transitions += __builtin_popcount(FULL_COLUMN ^ board[0]);
	movzwl	%di, %edi	# tmp153, tmp155
	call	__popcountdi2@PLT	#
# src/../include/Board.hpp:44:         transitions += __builtin_popcount(board[col] ^ board[col + 1]);
	movzwl	2(%rbp), %r13d	# MEM[(const value_type &)board_23(D)], _34
# src/../include/Board.hpp:40:     transitions += __builtin_popcount(FULL_COLUMN ^ board[0]);
	movl	%eax, %ebx	#, tmp156
# src/../include/Board.hpp:44:         transitions += __builtin_popcount(board[col] ^ board[col + 1]);
	xorl	%r13d, %r12d	# _34, tmp157
# src/../include/Board.hpp:44:         transitions += __builtin_popcount(board[col] ^ board[col + 1]);
	movzwl	%r12w, %edi	# tmp157, tmp159
	call	__popcountdi2@PLT	#
# src/../include/Board.hpp:44:         transitions += __builtin_popcount(board[col] ^ board[col + 1]);
	movzwl	4(%rbp), %r12d	# MEM[(const value_type &)board_23(D)], _61
# src/../include/Board.hpp:44:         transitions += __builtin_popcount(board[col] ^ board[col + 1]);
	addl	%eax, %ebx	# tmp160, transitions
# src/../include/Board.hpp:44:         transitions += __builtin_popcount(board[col] ^ board[col + 1]);
	xorl	%r12d, %r13d	# _61, tmp161
# src/../include/Board.hpp:44:         transitions += __builtin_popcount(board[col] ^ board[col + 1]);
	movzwl	%r13w, %edi	# tmp161, tmp163
	call	__popcountdi2@PLT	#
# src/../include/Board.hpp:44:         transitions += __builtin_popcount(board[col] ^ board[col + 1]);
	movzwl	6(%rbp), %r13d	# MEM[(const value_type &)board_23(D)], _79
# src/../include/Board.hpp:44:         transitions += __builtin_popcount(board[col] ^ board[col + 1]);
	addl	%eax, %ebx	# tmp164, transitions
# src/../include/Board.hpp:44:         transitions += __builtin_popcount(board[col] ^ board[col + 1]);
	xorl	%r13d, %r12d	# _79, tmp165
# src/../include/Board.hpp:44:         transitions += __builtin_popcount(board[col] ^ board[col + 1]);
	movzwl	%r12w, %edi	# tmp165, tmp167
	call	__popcountdi2@PLT	#
# src/../include/Board.hpp:44:         transitions += __builtin_popcount(board[col] ^ board[col + 1]);
	movzwl	8(%rbp), %r12d	# MEM[(const value_type &)board_23(D)], _97
# src/../include/Board.hpp:44:         transitions += __builtin_popcount(board[col] ^ board[col + 1]);
	addl	%eax, %ebx	# tmp168, transitions
# src/../include/Board.hpp:44:         transitions += __builtin_popcount(board[col] ^ board[col + 1]);
	xorl	%r12d, %r13d	# _97, tmp169
# src/../include/Board.hpp:44:         transitions += __builtin_popcount(board[col] ^ board[col + 1]);
	movzwl	%r13w, %edi	# tmp169, tmp171
	call	__popcountdi2@PLT	#
# src/../include/Board.hpp:44:         transitions += __builtin_popcount(board[col] ^ board[col + 1]);
	movzwl	10(%rbp), %r13d	# MEM[(const value_type &)board_23(D)], _115
# src/../include/Board.hpp:44:         transitions += __builtin_popcount(board[col] ^ board[col + 1]);
	addl	%eax, %ebx	# tmp172, transitions
# src/../include/Board.hpp:44:         transitions += __builtin_popcount(board[col] ^ board[col + 1]);
	xorl	%r13d, %r12d	# _115, tmp173
# src/../include/Board.hpp:44:         transitions += __builtin_popcount(board[col] ^ board[col + 1]);
	movzwl	%r12w, %edi	# tmp173, tmp175
	call	__popcountdi2@PLT	#
# src/../include/Board.hpp:44:         transitions += __builtin_popcount(board[col] ^ board[col + 1]);
	movzwl	12(%rbp), %r12d	# MEM[(const value_type &)board_23(D)], _133
# src/../include/Board.hpp:44:         transitions += __builtin_popcount(board[col] ^ board[col + 1]);
	addl	%eax, %ebx	# tmp176, transitions
# src/../include/Board.hpp:44:         transitions += __builtin_popcount(board[col] ^ board[col + 1]);
	xorl	%r12d, %r13d	# _133, tmp177
# src/../include/Board.hpp:44:         transitions += __builtin_popcount(board[col] ^ board[col + 1]);
	movzwl	%r13w, %edi	# tmp177, tmp179
	call	__popcountdi2@PLT	#
# src/../include/Board.hpp:44:         transitions += __builtin_popcount(board[col] ^ board[col + 1]);
	movzwl	14(%rbp), %r13d	# MEM[(const value_type &)board_23(D)], _151
# src/../include/Board.hpp:44:         transitions += __builtin_popcount(board[col] ^ board[col + 1]);
	addl	%eax, %ebx	# tmp180, transitions
# src/../include/Board.hpp:44:         transitions += __builtin_popcount(board[col] ^ board[col + 1]);
	xorl	%r13d, %r12d	# _151, tmp181
# src/../include/Board.hpp:44:         transitions += __builtin_popcount(board[col] ^ board[col + 1]);
	movzwl	%r12w, %edi	# tmp181, tmp183
	call	__popcountdi2@PLT	#
# src/../include/Board.hpp:44:         transitions += __builtin_popcount(board[col] ^ board[col + 1]);
	movzwl	16(%rbp), %r12d	# MEM[(const value_type &)board_23(D)], _169
# src/../include/Board.hpp:44:         transitions += __builtin_popcount(board[col] ^ board[col + 1]);
	addl	%eax, %ebx	# tmp184, transitions
# src/../include/Board.hpp:44:         transitions += __builtin_popcount(board[col] ^ board[col + 1]);
	xorl	%r12d, %r13d	# _169, tmp185
# src/../include/Board.hpp:44:         transitions += __builtin_popcount(board[col] ^ board[col + 1]);
	movzwl	%r13w, %edi	# tmp185, tmp187
	call	__popcountdi2@PLT	#
# src/../include/Board.hpp:44:         transitions += __builtin_popcount(board[col] ^ board[col + 1]);
	xorw	18(%rbp), %r12w	# MEM[(const value_type &)board_23(D)], tmp189
# src/../include/Board.hpp:44:         transitions += __builtin_popcount(board[col] ^ board[col + 1]);
	movzwl	%r12w, %edi	# tmp189, tmp191
# src/../include/Board.hpp:44:         transitions += __builtin_popcount(board[col] ^ board[col + 1]);
	addl	%eax, %ebx	# tmp188, transitions
# src/../include/Board.hpp:44:         transitions += __builtin_popcount(board[col] ^ board[col + 1]);
	call	__popcountdi2@PLT	#
# src/../include/Board.hpp:47:     transitions += __builtin_popcount(FULL_COLUMN ^ board[board.size() - 1]);
	movzwl	18(%rbp), %edi	# MEM[(const value_type &)board_23(D) + 18], MEM[(const value_type &)board_23(D) + 18]
# src/../include/Board.hpp:44:         transitions += __builtin_popcount(board[col] ^ board[col + 1]);
	addl	%eax, %ebx	# tmp192, transitions
# src/../include/Board.hpp:47:     transitions += __builtin_popcount(FULL_COLUMN ^ board[board.size() - 1]);
	notl	%edi	# tmp193
# src/../include/Board.hpp:47:     transitions += __builtin_popcount(FULL_COLUMN ^ board[board.size() - 1]);
	movzwl	%di, %edi	# tmp193, tmp196
	call	__popcountdi2@PLT	#
# src/../include/Board.hpp:50: }
	addq	$8, %rsp	#,
	.cfi_def_cfa_offset 40
# src/../include/Board.hpp:47:     transitions += __builtin_popcount(FULL_COLUMN ^ board[board.size() - 1]);
	addl	%ebx, %eax	# transitions, transitions
# src/../include/Board.hpp:50: }
	popq	%rbx	#
	.cfi_def_cfa_offset 32
	popq	%rbp	#
	.cfi_def_cfa_offset 24
	popq	%r12	#
	.cfi_def_cfa_offset 16
	popq	%r13	#
	.cfi_def_cfa_offset 8
	ret	
	.cfi_endproc
.LFE10156:
	.size	_Z17getRowTransitionsRKSt5arrayItLm10EE, .-_Z17getRowTransitionsRKSt5arrayItLm10EE
	.p2align 4,,15
	.globl	_Z20getColumnTransitionsRKSt5arrayItLm10EE
	.type	_Z20getColumnTransitionsRKSt5arrayItLm10EE, @function
_Z20getColumnTransitionsRKSt5arrayItLm10EE:
.LFB10159:
	.cfi_startproc
	pushq	%r15	#
	.cfi_def_cfa_offset 16
	.cfi_offset 15, -16
	pushq	%r14	#
	.cfi_def_cfa_offset 24
	.cfi_offset 14, -24
	pushq	%r13	#
	.cfi_def_cfa_offset 32
	.cfi_offset 13, -32
	pushq	%r12	#
	.cfi_def_cfa_offset 40
	.cfi_offset 12, -40
	pushq	%rbp	#
	.cfi_def_cfa_offset 48
	.cfi_offset 6, -48
	movq	%rdi, %rbp	# board, board
	pushq	%rbx	#
	.cfi_def_cfa_offset 56
	.cfi_offset 3, -56
	subq	$24, %rsp	#,
	.cfi_def_cfa_offset 80
# src/../include/Board.hpp:58:         transitions += __builtin_popcount(col ^ ((col << 1) + 1));
	movzwl	(%rdi), %eax	# MEM[(const value_type &)board_14(D)], _36
# src/../include/Board.hpp:58:         transitions += __builtin_popcount(col ^ ((col << 1) + 1));
	leal	1(%rax,%rax), %edi	#, tmp178
# src/../include/Board.hpp:58:         transitions += __builtin_popcount(col ^ ((col << 1) + 1));
	xorl	%eax, %edi	# _36,
# src/../include/Board.hpp:58:         transitions += __builtin_popcount(col ^ ((col << 1) + 1));
	call	__popcountdi2@PLT	#
	movl	%eax, (%rsp)	#, %sfp
# src/../include/Board.hpp:58:         transitions += __builtin_popcount(col ^ ((col << 1) + 1));
	movzwl	2(%rbp), %eax	# MEM[(const value_type &)board_14(D) + 2], _10
# src/../include/Board.hpp:58:         transitions += __builtin_popcount(col ^ ((col << 1) + 1));
	leal	1(%rax,%rax), %edi	#, tmp183
# src/../include/Board.hpp:58:         transitions += __builtin_popcount(col ^ ((col << 1) + 1));
	xorl	%eax, %edi	# _10,
# src/../include/Board.hpp:58:         transitions += __builtin_popcount(col ^ ((col << 1) + 1));
	call	__popcountdi2@PLT	#
	movl	%eax, %ebx	#, tmp186
# src/../include/Board.hpp:58:         transitions += __builtin_popcount(col ^ ((col << 1) + 1));
	movzwl	4(%rbp), %eax	# MEM[(const value_type &)board_14(D) + 4], _57
# src/../include/Board.hpp:58:         transitions += __builtin_popcount(col ^ ((col << 1) + 1));
	leal	1(%rax,%rax), %edi	#, tmp188
# src/../include/Board.hpp:58:         transitions += __builtin_popcount(col ^ ((col << 1) + 1));
	xorl	%eax, %edi	# _57,
# src/../include/Board.hpp:58:         transitions += __builtin_popcount(col ^ ((col << 1) + 1));
	call	__popcountdi2@PLT	#
	movl	%eax, %r15d	#, tmp191
# src/../include/Board.hpp:58:         transitions += __builtin_popcount(col ^ ((col << 1) + 1));
	movzwl	6(%rbp), %eax	# MEM[(const value_type &)board_14(D) + 6], _73
# src/../include/Board.hpp:58:         transitions += __builtin_popcount(col ^ ((col << 1) + 1));
	leal	1(%rax,%rax), %edi	#, tmp193
# src/../include/Board.hpp:58:         transitions += __builtin_popcount(col ^ ((col << 1) + 1));
	xorl	%eax, %edi	# _73,
# src/../include/Board.hpp:58:         transitions += __builtin_popcount(col ^ ((col << 1) + 1));
	call	__popcountdi2@PLT	#
	movl	%eax, %r14d	#, tmp196
# src/../include/Board.hpp:58:         transitions += __builtin_popcount(col ^ ((col << 1) + 1));
	movzwl	8(%rbp), %eax	# MEM[(const value_type &)board_14(D) + 8], _89
# src/../include/Board.hpp:58:         transitions += __builtin_popcount(col ^ ((col << 1) + 1));
	leal	1(%rax,%rax), %edi	#, tmp198
# src/../include/Board.hpp:58:         transitions += __builtin_popcount(col ^ ((col << 1) + 1));
	xorl	%eax, %edi	# _89,
# src/../include/Board.hpp:58:         transitions += __builtin_popcount(col ^ ((col << 1) + 1));
	call	__popcountdi2@PLT	#
	movl	%eax, %r13d	#, tmp201
# src/../include/Board.hpp:58:         transitions += __builtin_popcount(col ^ ((col << 1) + 1));
	movzwl	10(%rbp), %eax	# MEM[(const value_type &)board_14(D) + 10], _105
# src/../include/Board.hpp:58:         transitions += __builtin_popcount(col ^ ((col << 1) + 1));
	leal	1(%rax,%rax), %edi	#, tmp203
# src/../include/Board.hpp:58:         transitions += __builtin_popcount(col ^ ((col << 1) + 1));
	xorl	%eax, %edi	# _105,
# src/../include/Board.hpp:58:         transitions += __builtin_popcount(col ^ ((col << 1) + 1));
	call	__popcountdi2@PLT	#
	movl	%eax, %r12d	#, tmp206
# src/../include/Board.hpp:58:         transitions += __builtin_popcount(col ^ ((col << 1) + 1));
	movzwl	12(%rbp), %eax	# MEM[(const value_type &)board_14(D) + 12], _121
# src/../include/Board.hpp:58:         transitions += __builtin_popcount(col ^ ((col << 1) + 1));
	leal	1(%rax,%rax), %edi	#, tmp208
# src/../include/Board.hpp:58:         transitions += __builtin_popcount(col ^ ((col << 1) + 1));
	xorl	%eax, %edi	# _121,
# src/../include/Board.hpp:58:         transitions += __builtin_popcount(col ^ ((col << 1) + 1));
	call	__popcountdi2@PLT	#
	movl	%eax, 4(%rsp)	#, %sfp
# src/../include/Board.hpp:58:         transitions += __builtin_popcount(col ^ ((col << 1) + 1));
	movzwl	14(%rbp), %eax	# MEM[(const value_type &)board_14(D) + 14], _137
# src/../include/Board.hpp:58:         transitions += __builtin_popcount(col ^ ((col << 1) + 1));
	leal	1(%rax,%rax), %edi	#, tmp213
# src/../include/Board.hpp:58:         transitions += __builtin_popcount(col ^ ((col << 1) + 1));
	xorl	%eax, %edi	# _137,
# src/../include/Board.hpp:58:         transitions += __builtin_popcount(col ^ ((col << 1) + 1));
	call	__popcountdi2@PLT	#
	movl	%eax, 8(%rsp)	#, %sfp
# src/../include/Board.hpp:58:         transitions += __builtin_popcount(col ^ ((col << 1) + 1));
	movzwl	16(%rbp), %eax	# MEM[(const value_type &)board_14(D) + 16], _153
# src/../include/Board.hpp:58:         transitions += __builtin_popcount(col ^ ((col << 1) + 1));
	leal	1(%rax,%rax), %edi	#, tmp218
# src/../include/Board.hpp:58:         transitions += __builtin_popcount(col ^ ((col << 1) + 1));
	xorl	%eax, %edi	# _153,
# src/../include/Board.hpp:58:         transitions += __builtin_popcount(col ^ ((col << 1) + 1));
	call	__popcountdi2@PLT	#
	movl	%eax, 12(%rsp)	#, %sfp
# src/../include/Board.hpp:58:         transitions += __builtin_popcount(col ^ ((col << 1) + 1));
	movzwl	18(%rbp), %eax	# MEM[(const value_type &)board_14(D) + 18], _3
# src/../include/Board.hpp:58:         transitions += __builtin_popcount(col ^ ((col << 1) + 1));
	leal	1(%rax,%rax), %edi	#, tmp223
# src/../include/Board.hpp:58:         transitions += __builtin_popcount(col ^ ((col << 1) + 1));
	xorl	%eax, %edi	# _3,
# src/../include/Board.hpp:58:         transitions += __builtin_popcount(col ^ ((col << 1) + 1));
	call	__popcountdi2@PLT	#
# src/../include/Board.hpp:58:         transitions += __builtin_popcount(col ^ ((col << 1) + 1));
	leal	(%rbx,%r15), %edx	#, tmp228
	addl	%r14d, %edx	# tmp196, tmp229
	addl	%r13d, %edx	# tmp201, tmp230
	addl	%r12d, %edx	# tmp206, tmp231
	addw	4(%rsp), %dx	# %sfp, tmp232
	addw	8(%rsp), %dx	# %sfp, tmp233
	addw	12(%rsp), %dx	# %sfp, tmp234
	addl	%edx, %eax	# tmp234, tmp235
	addw	(%rsp), %ax	# %sfp, transitions
# src/../include/Board.hpp:61: }
	addq	$24, %rsp	#,
	.cfi_def_cfa_offset 56
	popq	%rbx	#
	.cfi_def_cfa_offset 48
	popq	%rbp	#
	.cfi_def_cfa_offset 40
	popq	%r12	#
	.cfi_def_cfa_offset 32
	popq	%r13	#
	.cfi_def_cfa_offset 24
	popq	%r14	#
	.cfi_def_cfa_offset 16
	popq	%r15	#
	.cfi_def_cfa_offset 8
	ret	
	.cfi_endproc
.LFE10159:
	.size	_Z20getColumnTransitionsRKSt5arrayItLm10EE, .-_Z20getColumnTransitionsRKSt5arrayItLm10EE
	.p2align 4,,15
	.globl	_Z16getNumberOfHolesRKSt5arrayItLm10EE
	.type	_Z16getNumberOfHolesRKSt5arrayItLm10EE, @function
_Z16getNumberOfHolesRKSt5arrayItLm10EE:
.LFB10160:
	.cfi_startproc
	pushq	%r15	#
	.cfi_def_cfa_offset 16
	.cfi_offset 15, -16
	pushq	%r14	#
	.cfi_def_cfa_offset 24
	.cfi_offset 14, -24
	pushq	%r13	#
	.cfi_def_cfa_offset 32
	.cfi_offset 13, -32
	pushq	%r12	#
	.cfi_def_cfa_offset 40
	.cfi_offset 12, -40
	pushq	%rbp	#
	.cfi_def_cfa_offset 48
	.cfi_offset 6, -48
	pushq	%rbx	#
	.cfi_def_cfa_offset 56
	.cfi_offset 3, -56
	movq	%rdi, %rbx	# board, board
	subq	$88, %rsp	#,
	.cfi_def_cfa_offset 144
# src/../include/Board.hpp:68:         holes += col_height(board[i]) - __builtin_popcount(board[i]);
	movzwl	(%rdi), %edi	# MEM[(const value_type &)board_13(D)],
# src/../include/Board.hpp:22:     return static_cast<height_t>(63 - __builtin_clzll(static_cast<unsigned long long>((col << 1) | 1)));
	leal	1(%rdi,%rdi), %ebp	#, tmp229
# src/../include/Board.hpp:68:         holes += col_height(board[i]) - __builtin_popcount(board[i]);
	call	__popcountdi2@PLT	#
# src/../include/Board.hpp:68:         holes += col_height(board[i]) - __builtin_popcount(board[i]);
	movzwl	2(%rbx), %edi	# MEM[(const value_type &)board_13(D) + 2],
# src/../include/Board.hpp:22:     return static_cast<height_t>(63 - __builtin_clzll(static_cast<unsigned long long>((col << 1) | 1)));
	movslq	%ebp, %rbp	# tmp229, tmp230
# src/../include/Board.hpp:68:         holes += col_height(board[i]) - __builtin_popcount(board[i]);
	movl	%eax, 12(%rsp)	#, %sfp
# src/../include/Board.hpp:22:     return static_cast<height_t>(63 - __builtin_clzll(static_cast<unsigned long long>((col << 1) | 1)));
	bsrq	%rbp, %rbp	# tmp230, tmp231
# src/../include/Board.hpp:22:     return static_cast<height_t>(63 - __builtin_clzll(static_cast<unsigned long long>((col << 1) | 1)));
	leal	1(%rdi,%rdi), %r11d	#, tmp237
# src/../include/Board.hpp:22:     return static_cast<height_t>(63 - __builtin_clzll(static_cast<unsigned long long>((col << 1) | 1)));
	xorq	$63, %rbp	#, tmp231
	movslq	%r11d, %r11	# tmp237, tmp238
	bsrq	%r11, %r11	# tmp238, tmp239
	xorq	$63, %r11	#, tmp239
	movq	%r11, 72(%rsp)	# tmp239, %sfp
# src/../include/Board.hpp:68:         holes += col_height(board[i]) - __builtin_popcount(board[i]);
	call	__popcountdi2@PLT	#
# src/../include/Board.hpp:68:         holes += col_height(board[i]) - __builtin_popcount(board[i]);
	movzwl	4(%rbx), %edi	# MEM[(const value_type &)board_13(D) + 4],
# src/../include/Board.hpp:68:         holes += col_height(board[i]) - __builtin_popcount(board[i]);
	movl	%eax, 16(%rsp)	#, %sfp
# src/../include/Board.hpp:22:     return static_cast<height_t>(63 - __builtin_clzll(static_cast<unsigned long long>((col << 1) | 1)));
	leal	1(%rdi,%rdi), %r10d	#, tmp245
# src/../include/Board.hpp:22:     return static_cast<height_t>(63 - __builtin_clzll(static_cast<unsigned long long>((col << 1) | 1)));
	movslq	%r10d, %r10	# tmp245, tmp246
	bsrq	%r10, %r10	# tmp246, tmp247
	xorq	$63, %r10	#, tmp247
	movq	%r10, 64(%rsp)	# tmp247, %sfp
# src/../include/Board.hpp:68:         holes += col_height(board[i]) - __builtin_popcount(board[i]);
	call	__popcountdi2@PLT	#
# src/../include/Board.hpp:68:         holes += col_height(board[i]) - __builtin_popcount(board[i]);
	movzwl	6(%rbx), %edi	# MEM[(const value_type &)board_13(D) + 6],
# src/../include/Board.hpp:68:         holes += col_height(board[i]) - __builtin_popcount(board[i]);
	movl	%eax, 20(%rsp)	#, %sfp
# src/../include/Board.hpp:22:     return static_cast<height_t>(63 - __builtin_clzll(static_cast<unsigned long long>((col << 1) | 1)));
	leal	1(%rdi,%rdi), %r9d	#, tmp253
# src/../include/Board.hpp:22:     return static_cast<height_t>(63 - __builtin_clzll(static_cast<unsigned long long>((col << 1) | 1)));
	movslq	%r9d, %r9	# tmp253, tmp254
	bsrq	%r9, %r9	# tmp254, tmp255
	xorq	$63, %r9	#, tmp255
	movq	%r9, 56(%rsp)	# tmp255, %sfp
# src/../include/Board.hpp:68:         holes += col_height(board[i]) - __builtin_popcount(board[i]);
	call	__popcountdi2@PLT	#
# src/../include/Board.hpp:68:         holes += col_height(board[i]) - __builtin_popcount(board[i]);
	movzwl	8(%rbx), %edi	# MEM[(const value_type &)board_13(D) + 8],
# src/../include/Board.hpp:68:         holes += col_height(board[i]) - __builtin_popcount(board[i]);
	movl	%eax, 24(%rsp)	#, %sfp
# src/../include/Board.hpp:22:     return static_cast<height_t>(63 - __builtin_clzll(static_cast<unsigned long long>((col << 1) | 1)));
	leal	1(%rdi,%rdi), %r8d	#, tmp261
# src/../include/Board.hpp:22:     return static_cast<height_t>(63 - __builtin_clzll(static_cast<unsigned long long>((col << 1) | 1)));
	movslq	%r8d, %r8	# tmp261, tmp262
	bsrq	%r8, %r8	# tmp262, tmp263
	xorq	$63, %r8	#, tmp263
	movq	%r8, 48(%rsp)	# tmp263, %sfp
# src/../include/Board.hpp:68:         holes += col_height(board[i]) - __builtin_popcount(board[i]);
	call	__popcountdi2@PLT	#
# src/../include/Board.hpp:68:         holes += col_height(board[i]) - __builtin_popcount(board[i]);
	movzwl	10(%rbx), %edi	# MEM[(const value_type &)board_13(D) + 10],
# src/../include/Board.hpp:68:         holes += col_height(board[i]) - __builtin_popcount(board[i]);
	movl	%eax, 28(%rsp)	#, %sfp
# src/../include/Board.hpp:22:     return static_cast<height_t>(63 - __builtin_clzll(static_cast<unsigned long long>((col << 1) | 1)));
	leal	1(%rdi,%rdi), %esi	#, tmp269
# src/../include/Board.hpp:22:     return static_cast<height_t>(63 - __builtin_clzll(static_cast<unsigned long long>((col << 1) | 1)));
	movslq	%esi, %rsi	# tmp269, tmp270
	bsrq	%rsi, %r15	# tmp270, tmp271
# src/../include/Board.hpp:68:         holes += col_height(board[i]) - __builtin_popcount(board[i]);
	call	__popcountdi2@PLT	#
# src/../include/Board.hpp:68:         holes += col_height(board[i]) - __builtin_popcount(board[i]);
	movzwl	12(%rbx), %edi	# MEM[(const value_type &)board_13(D) + 12],
# src/../include/Board.hpp:22:     return static_cast<height_t>(63 - __builtin_clzll(static_cast<unsigned long long>((col << 1) | 1)));
	xorq	$63, %r15	#, tmp271
# src/../include/Board.hpp:68:         holes += col_height(board[i]) - __builtin_popcount(board[i]);
	movl	%eax, 32(%rsp)	#, %sfp
# src/../include/Board.hpp:22:     return static_cast<height_t>(63 - __builtin_clzll(static_cast<unsigned long long>((col << 1) | 1)));
	leal	1(%rdi,%rdi), %ecx	#, tmp277
# src/../include/Board.hpp:22:     return static_cast<height_t>(63 - __builtin_clzll(static_cast<unsigned long long>((col << 1) | 1)));
	movslq	%ecx, %rcx	# tmp277, tmp278
	bsrq	%rcx, %r14	# tmp278, tmp279
# src/../include/Board.hpp:68:         holes += col_height(board[i]) - __builtin_popcount(board[i]);
	call	__popcountdi2@PLT	#
# src/../include/Board.hpp:68:         holes += col_height(board[i]) - __builtin_popcount(board[i]);
	movzwl	14(%rbx), %edi	# MEM[(const value_type &)board_13(D) + 14],
# src/../include/Board.hpp:22:     return static_cast<height_t>(63 - __builtin_clzll(static_cast<unsigned long long>((col << 1) | 1)));
	xorq	$63, %r14	#, tmp279
# src/../include/Board.hpp:68:         holes += col_height(board[i]) - __builtin_popcount(board[i]);
	movl	%eax, 36(%rsp)	#, %sfp
# src/../include/Board.hpp:22:     return static_cast<height_t>(63 - __builtin_clzll(static_cast<unsigned long long>((col << 1) | 1)));
	leal	1(%rdi,%rdi), %eax	#, tmp285
# src/../include/Board.hpp:22:     return static_cast<height_t>(63 - __builtin_clzll(static_cast<unsigned long long>((col << 1) | 1)));
	cltq
	bsrq	%rax, %r13	# tmp286, tmp287
# src/../include/Board.hpp:68:         holes += col_height(board[i]) - __builtin_popcount(board[i]);
	call	__popcountdi2@PLT	#
# src/../include/Board.hpp:68:         holes += col_height(board[i]) - __builtin_popcount(board[i]);
	movzwl	16(%rbx), %edi	# MEM[(const value_type &)board_13(D) + 16],
# src/../include/Board.hpp:22:     return static_cast<height_t>(63 - __builtin_clzll(static_cast<unsigned long long>((col << 1) | 1)));
	xorq	$63, %r13	#, tmp287
# src/../include/Board.hpp:68:         holes += col_height(board[i]) - __builtin_popcount(board[i]);
	movl	%eax, 40(%rsp)	#, %sfp
# src/../include/Board.hpp:22:     return static_cast<height_t>(63 - __builtin_clzll(static_cast<unsigned long long>((col << 1) | 1)));
	leal	1(%rdi,%rdi), %edx	#, tmp293
# src/../include/Board.hpp:22:     return static_cast<height_t>(63 - __builtin_clzll(static_cast<unsigned long long>((col << 1) | 1)));
	movslq	%edx, %rdx	# tmp293, tmp294
	bsrq	%rdx, %r12	# tmp294, tmp295
# src/../include/Board.hpp:68:         holes += col_height(board[i]) - __builtin_popcount(board[i]);
	call	__popcountdi2@PLT	#
# src/../include/Board.hpp:68:         holes += col_height(board[i]) - __builtin_popcount(board[i]);
	movzwl	18(%rbx), %edi	# MEM[(const value_type &)board_13(D) + 18],
# src/../include/Board.hpp:22:     return static_cast<height_t>(63 - __builtin_clzll(static_cast<unsigned long long>((col << 1) | 1)));
	xorq	$63, %r12	#, tmp295
# src/../include/Board.hpp:68:         holes += col_height(board[i]) - __builtin_popcount(board[i]);
	movl	%eax, 44(%rsp)	#, %sfp
# src/../include/Board.hpp:22:     return static_cast<height_t>(63 - __builtin_clzll(static_cast<unsigned long long>((col << 1) | 1)));
	leal	1(%rdi,%rdi), %ebx	#, tmp301
# src/../include/Board.hpp:68:         holes += col_height(board[i]) - __builtin_popcount(board[i]);
	call	__popcountdi2@PLT	#
# src/../include/Board.hpp:22:     return static_cast<height_t>(63 - __builtin_clzll(static_cast<unsigned long long>((col << 1) | 1)));
	movl	$63, %edi	#, tmp309
	movq	72(%rsp), %r11	# %sfp, tmp239
	movq	64(%rsp), %r10	# %sfp, tmp247
	movl	%edi, %esi	# tmp309, tmp308
# src/../include/Board.hpp:22:     return static_cast<height_t>(63 - __builtin_clzll(static_cast<unsigned long long>((col << 1) | 1)));
	movslq	%ebx, %rbx	# tmp301, tmp302
# src/../include/Board.hpp:22:     return static_cast<height_t>(63 - __builtin_clzll(static_cast<unsigned long long>((col << 1) | 1)));
	movq	56(%rsp), %r9	# %sfp, tmp255
	movq	48(%rsp), %r8	# %sfp, tmp263
	subl	%r11d, %esi	# tmp239, tmp308
# src/../include/Board.hpp:22:     return static_cast<height_t>(63 - __builtin_clzll(static_cast<unsigned long long>((col << 1) | 1)));
	bsrq	%rbx, %rbx	# tmp302, tmp303
# src/../include/Board.hpp:22:     return static_cast<height_t>(63 - __builtin_clzll(static_cast<unsigned long long>((col << 1) | 1)));
	movl	%edi, %ecx	# tmp309, tmp332
	movl	%edi, %edx	# tmp309, tmp342
	movl	%esi, %r11d	# tmp308, tmp308
	movl	%edi, %esi	# tmp309, tmp312
# src/../include/Board.hpp:22:     return static_cast<height_t>(63 - __builtin_clzll(static_cast<unsigned long long>((col << 1) | 1)));
	xorq	$63, %rbx	#, tmp303
# src/../include/Board.hpp:68:         holes += col_height(board[i]) - __builtin_popcount(board[i]);
	subw	16(%rsp), %r11w	# %sfp, tmp311
# src/../include/Board.hpp:22:     return static_cast<height_t>(63 - __builtin_clzll(static_cast<unsigned long long>((col << 1) | 1)));
	subl	%r10d, %esi	# tmp247, tmp312
	subl	%r14d, %ecx	# tmp279, tmp332
	subl	%r12d, %edx	# tmp295, tmp342
	movl	%esi, %r10d	# tmp312, tmp312
	movl	%edi, %esi	# tmp309, tmp337
# src/../include/Board.hpp:68:         holes += col_height(board[i]) - __builtin_popcount(board[i]);
	addl	%r10d, %r11d	# tmp312, tmp315
# src/../include/Board.hpp:22:     return static_cast<height_t>(63 - __builtin_clzll(static_cast<unsigned long long>((col << 1) | 1)));
	movl	%edi, %r10d	# tmp309, tmp317
# src/../include/Board.hpp:68:         holes += col_height(board[i]) - __builtin_popcount(board[i]);
	subw	20(%rsp), %r11w	# %sfp, tmp316
# src/../include/Board.hpp:22:     return static_cast<height_t>(63 - __builtin_clzll(static_cast<unsigned long long>((col << 1) | 1)));
	subl	%r13d, %esi	# tmp287, tmp337
	subl	%r9d, %r10d	# tmp255, tmp317
# src/../include/Board.hpp:68:         holes += col_height(board[i]) - __builtin_popcount(board[i]);
	addl	%r10d, %r11d	# tmp317, tmp320
# src/../include/Board.hpp:22:     return static_cast<height_t>(63 - __builtin_clzll(static_cast<unsigned long long>((col << 1) | 1)));
	movl	%edi, %r10d	# tmp309, tmp322
# src/../include/Board.hpp:68:         holes += col_height(board[i]) - __builtin_popcount(board[i]);
	subw	24(%rsp), %r11w	# %sfp, tmp321
# src/../include/Board.hpp:22:     return static_cast<height_t>(63 - __builtin_clzll(static_cast<unsigned long long>((col << 1) | 1)));
	subl	%r8d, %r10d	# tmp263, tmp322
# src/../include/Board.hpp:68:         holes += col_height(board[i]) - __builtin_popcount(board[i]);
	addl	%r10d, %r11d	# tmp322, tmp325
# src/../include/Board.hpp:22:     return static_cast<height_t>(63 - __builtin_clzll(static_cast<unsigned long long>((col << 1) | 1)));
	movl	%edi, %r10d	# tmp309, tmp327
# src/../include/Board.hpp:68:         holes += col_height(board[i]) - __builtin_popcount(board[i]);
	subw	28(%rsp), %r11w	# %sfp, tmp326
# src/../include/Board.hpp:22:     return static_cast<height_t>(63 - __builtin_clzll(static_cast<unsigned long long>((col << 1) | 1)));
	subl	%r15d, %r10d	# tmp271, tmp327
# src/../include/Board.hpp:68:         holes += col_height(board[i]) - __builtin_popcount(board[i]);
	addl	%r10d, %r11d	# tmp327, tmp330
# src/../include/Board.hpp:68:         holes += col_height(board[i]) - __builtin_popcount(board[i]);
	subw	32(%rsp), %r11w	# %sfp, tmp331
# src/../include/Board.hpp:68:         holes += col_height(board[i]) - __builtin_popcount(board[i]);
	addl	%r11d, %ecx	# tmp331, tmp335
# src/../include/Board.hpp:68:         holes += col_height(board[i]) - __builtin_popcount(board[i]);
	subw	36(%rsp), %cx	# %sfp, tmp336
# src/../include/Board.hpp:68:         holes += col_height(board[i]) - __builtin_popcount(board[i]);
	addl	%esi, %ecx	# tmp337, tmp340
# src/../include/Board.hpp:68:         holes += col_height(board[i]) - __builtin_popcount(board[i]);
	subw	40(%rsp), %cx	# %sfp, tmp341
# src/../include/Board.hpp:68:         holes += col_height(board[i]) - __builtin_popcount(board[i]);
	addl	%ecx, %edx	# tmp341, tmp345
# src/../include/Board.hpp:22:     return static_cast<height_t>(63 - __builtin_clzll(static_cast<unsigned long long>((col << 1) | 1)));
	movl	%edi, %ecx	# tmp309, tmp347
# src/../include/Board.hpp:68:         holes += col_height(board[i]) - __builtin_popcount(board[i]);
	subw	44(%rsp), %dx	# %sfp, tmp346
# src/../include/Board.hpp:22:     return static_cast<height_t>(63 - __builtin_clzll(static_cast<unsigned long long>((col << 1) | 1)));
	subl	%ebp, %edi	# tmp231, tmp352
	subl	%ebx, %ecx	# tmp303, tmp347
# src/../include/Board.hpp:68:         holes += col_height(board[i]) - __builtin_popcount(board[i]);
	addl	%ecx, %edx	# tmp347, tmp350
# src/../include/Board.hpp:68:         holes += col_height(board[i]) - __builtin_popcount(board[i]);
	subl	%eax, %edx	# tmp306, tmp351
# src/../include/Board.hpp:68:         holes += col_height(board[i]) - __builtin_popcount(board[i]);
	leal	(%rdx,%rdi), %eax	#, tmp355
# src/../include/Board.hpp:68:         holes += col_height(board[i]) - __builtin_popcount(board[i]);
	subw	12(%rsp), %ax	# %sfp, holes
# src/../include/Board.hpp:71: }
	addq	$88, %rsp	#,
	.cfi_def_cfa_offset 56
	popq	%rbx	#
	.cfi_def_cfa_offset 48
	popq	%rbp	#
	.cfi_def_cfa_offset 40
	popq	%r12	#
	.cfi_def_cfa_offset 32
	popq	%r13	#
	.cfi_def_cfa_offset 24
	popq	%r14	#
	.cfi_def_cfa_offset 16
	popq	%r15	#
	.cfi_def_cfa_offset 8
	ret	
	.cfi_endproc
.LFE10160:
	.size	_Z16getNumberOfHolesRKSt5arrayItLm10EE, .-_Z16getNumberOfHolesRKSt5arrayItLm10EE
	.p2align 4,,15
	.globl	_Z21getColumnsDifferencesRKSt5arrayItLm10EE
	.type	_Z21getColumnsDifferencesRKSt5arrayItLm10EE, @function
_Z21getColumnsDifferencesRKSt5arrayItLm10EE:
.LFB10161:
	.cfi_startproc
# src/../include/Board.hpp:78:         differences += sqrt(abs(col_height(board[i]) - col_height(board[i+1])));
	movzwl	2(%rdi), %eax	# MEM[(const value_type &)board_20(D) + 2], MEM[(const value_type &)board_20(D) + 2]
	movzwl	(%rdi), %ecx	# MEM[(const value_type &)board_20(D)], MEM[(const value_type &)board_20(D)]
# src/../include/Board.hpp:22:     return static_cast<height_t>(63 - __builtin_clzll(static_cast<unsigned long long>((col << 1) | 1)));
	movl	$63, %edx	#, tmp258
# /usr/include/c++/8/cmath:476:     { return __builtin_sqrt(__x); }
	pxor	%xmm0, %xmm0	# tmp266
# src/../include/Board.hpp:22:     return static_cast<height_t>(63 - __builtin_clzll(static_cast<unsigned long long>((col << 1) | 1)));
	movl	%edx, %esi	# tmp258, tmp257
# /usr/include/c++/8/cmath:476:     { return __builtin_sqrt(__x); }
	pxor	%xmm1, %xmm1	# tmp278
# src/../include/Board.hpp:22:     return static_cast<height_t>(63 - __builtin_clzll(static_cast<unsigned long long>((col << 1) | 1)));
	leal	1(%rax,%rax), %eax	#, tmp254
	leal	1(%rcx,%rcx), %ecx	#, tmp249
# src/../include/Board.hpp:22:     return static_cast<height_t>(63 - __builtin_clzll(static_cast<unsigned long long>((col << 1) | 1)));
	cltq
	movslq	%ecx, %rcx	# tmp249, tmp250
	bsrq	%rax, %rax	# tmp255, tmp256
	bsrq	%rcx, %rcx	# tmp250, tmp251
	xorq	$63, %rax	#, tmp256
	xorq	$63, %rcx	#, tmp251
# src/../include/Board.hpp:22:     return static_cast<height_t>(63 - __builtin_clzll(static_cast<unsigned long long>((col << 1) | 1)));
	subl	%eax, %esi	# tmp256, tmp257
	movl	%edx, %eax	# tmp258, tmp259
	subl	%ecx, %eax	# tmp251, tmp259
# src/../include/Board.hpp:78:         differences += sqrt(abs(col_height(board[i]) - col_height(board[i+1])));
	movzwl	%si, %esi	# tmp257, _92
# src/../include/Board.hpp:78:         differences += sqrt(abs(col_height(board[i]) - col_height(board[i+1])));
	movzwl	%ax, %eax	# tmp259, tmp261
# src/../include/Board.hpp:78:         differences += sqrt(abs(col_height(board[i]) - col_height(board[i+1])));
	subl	%esi, %eax	# _92, tmp262
# src/../include/Board.hpp:78:         differences += sqrt(abs(col_height(board[i]) - col_height(board[i+1])));
	movl	%eax, %ecx	# tmp262, tmp263
	sarl	$31, %ecx	#, tmp263
	xorl	%ecx, %eax	# tmp263, tmp264
	subl	%ecx, %eax	# tmp263, tmp265
# src/../include/Board.hpp:22:     return static_cast<height_t>(63 - __builtin_clzll(static_cast<unsigned long long>((col << 1) | 1)));
	movl	%edx, %ecx	# tmp258, tmp272
# /usr/include/c++/8/cmath:476:     { return __builtin_sqrt(__x); }
	cvtsi2sd	%eax, %xmm0	# tmp265, tmp266
# src/../include/Board.hpp:78:         differences += sqrt(abs(col_height(board[i]) - col_height(board[i+1])));
	movzwl	4(%rdi), %eax	# MEM[(const value_type &)board_20(D) + 4], MEM[(const value_type &)board_20(D) + 4]
# src/../include/Board.hpp:22:     return static_cast<height_t>(63 - __builtin_clzll(static_cast<unsigned long long>((col << 1) | 1)));
	leal	1(%rax,%rax), %eax	#, tmp269
# src/../include/Board.hpp:22:     return static_cast<height_t>(63 - __builtin_clzll(static_cast<unsigned long long>((col << 1) | 1)));
	cltq
	bsrq	%rax, %rax	# tmp270, tmp271
# /usr/include/c++/8/cmath:476:     { return __builtin_sqrt(__x); }
	sqrtsd	%xmm0, %xmm0	# tmp266, _74
# src/../include/Board.hpp:22:     return static_cast<height_t>(63 - __builtin_clzll(static_cast<unsigned long long>((col << 1) | 1)));
	xorq	$63, %rax	#, tmp271
# src/../include/Board.hpp:22:     return static_cast<height_t>(63 - __builtin_clzll(static_cast<unsigned long long>((col << 1) | 1)));
	subl	%eax, %ecx	# tmp271, tmp272
# src/../include/Board.hpp:78:         differences += sqrt(abs(col_height(board[i]) - col_height(board[i+1])));
	movl	%esi, %eax	# _92, _92
# src/../include/Board.hpp:78:         differences += sqrt(abs(col_height(board[i]) - col_height(board[i+1])));
	movzwl	%cx, %ecx	# tmp272, _51
# src/../include/Board.hpp:78:         differences += sqrt(abs(col_height(board[i]) - col_height(board[i+1])));
	subl	%ecx, %eax	# _51, _92
# src/../include/Board.hpp:78:         differences += sqrt(abs(col_height(board[i]) - col_height(board[i+1])));
	movl	%eax, %esi	# tmp274, tmp275
	sarl	$31, %esi	#, tmp275
	xorl	%esi, %eax	# tmp275, tmp276
	subl	%esi, %eax	# tmp275, tmp277
# src/../include/Board.hpp:22:     return static_cast<height_t>(63 - __builtin_clzll(static_cast<unsigned long long>((col << 1) | 1)));
	movl	%edx, %esi	# tmp258, tmp288
# /usr/include/c++/8/cmath:476:     { return __builtin_sqrt(__x); }
	cvtsi2sd	%eax, %xmm1	# tmp277, tmp278
# src/../include/Board.hpp:78:         differences += sqrt(abs(col_height(board[i]) - col_height(board[i+1])));
	cvttsd2si	%xmm0, %eax	# _74, tmp280
# /usr/include/c++/8/cmath:476:     { return __builtin_sqrt(__x); }
	pxor	%xmm0, %xmm0	# tmp294
	sqrtsd	%xmm1, %xmm2	# tmp278, _47
# src/../include/Board.hpp:78:         differences += sqrt(abs(col_height(board[i]) - col_height(board[i+1])));
	pxor	%xmm1, %xmm1	# tmp282
	movzwl	%ax, %eax	# tmp280, differences
	cvtsi2sd	%eax, %xmm1	# differences, tmp282
# src/../include/Board.hpp:78:         differences += sqrt(abs(col_height(board[i]) - col_height(board[i+1])));
	movzwl	6(%rdi), %eax	# MEM[(const value_type &)board_20(D) + 6], MEM[(const value_type &)board_20(D) + 6]
# src/../include/Board.hpp:22:     return static_cast<height_t>(63 - __builtin_clzll(static_cast<unsigned long long>((col << 1) | 1)));
	leal	1(%rax,%rax), %eax	#, tmp285
# src/../include/Board.hpp:22:     return static_cast<height_t>(63 - __builtin_clzll(static_cast<unsigned long long>((col << 1) | 1)));
	cltq
	bsrq	%rax, %rax	# tmp286, tmp287
# src/../include/Board.hpp:78:         differences += sqrt(abs(col_height(board[i]) - col_height(board[i+1])));
	addsd	%xmm2, %xmm1	# _47, _44
# src/../include/Board.hpp:22:     return static_cast<height_t>(63 - __builtin_clzll(static_cast<unsigned long long>((col << 1) | 1)));
	xorq	$63, %rax	#, tmp287
# src/../include/Board.hpp:22:     return static_cast<height_t>(63 - __builtin_clzll(static_cast<unsigned long long>((col << 1) | 1)));
	subl	%eax, %esi	# tmp287, tmp288
# src/../include/Board.hpp:78:         differences += sqrt(abs(col_height(board[i]) - col_height(board[i+1])));
	movl	%ecx, %eax	# _51, _51
# src/../include/Board.hpp:78:         differences += sqrt(abs(col_height(board[i]) - col_height(board[i+1])));
	movzwl	%si, %esi	# tmp288, _108
# src/../include/Board.hpp:78:         differences += sqrt(abs(col_height(board[i]) - col_height(board[i+1])));
	subl	%esi, %eax	# _108, _51
# src/../include/Board.hpp:78:         differences += sqrt(abs(col_height(board[i]) - col_height(board[i+1])));
	movl	%eax, %ecx	# tmp290, tmp291
	sarl	$31, %ecx	#, tmp291
	xorl	%ecx, %eax	# tmp291, tmp292
	subl	%ecx, %eax	# tmp291, tmp293
# src/../include/Board.hpp:22:     return static_cast<height_t>(63 - __builtin_clzll(static_cast<unsigned long long>((col << 1) | 1)));
	movl	%edx, %ecx	# tmp258, tmp304
# /usr/include/c++/8/cmath:476:     { return __builtin_sqrt(__x); }
	cvtsi2sd	%eax, %xmm0	# tmp293, tmp294
# src/../include/Board.hpp:78:         differences += sqrt(abs(col_height(board[i]) - col_height(board[i+1])));
	cvttsd2si	%xmm1, %eax	# _44, tmp296
# /usr/include/c++/8/cmath:476:     { return __builtin_sqrt(__x); }
	pxor	%xmm1, %xmm1	# tmp310
	sqrtsd	%xmm0, %xmm2	# tmp294, _112
# src/../include/Board.hpp:78:         differences += sqrt(abs(col_height(board[i]) - col_height(board[i+1])));
	pxor	%xmm0, %xmm0	# tmp298
	movzwl	%ax, %eax	# tmp296, differences
	cvtsi2sd	%eax, %xmm0	# differences, tmp298
# src/../include/Board.hpp:78:         differences += sqrt(abs(col_height(board[i]) - col_height(board[i+1])));
	movzwl	8(%rdi), %eax	# MEM[(const value_type &)board_20(D) + 8], MEM[(const value_type &)board_20(D) + 8]
# src/../include/Board.hpp:22:     return static_cast<height_t>(63 - __builtin_clzll(static_cast<unsigned long long>((col << 1) | 1)));
	leal	1(%rax,%rax), %eax	#, tmp301
# src/../include/Board.hpp:22:     return static_cast<height_t>(63 - __builtin_clzll(static_cast<unsigned long long>((col << 1) | 1)));
	cltq
	bsrq	%rax, %rax	# tmp302, tmp303
# src/../include/Board.hpp:78:         differences += sqrt(abs(col_height(board[i]) - col_height(board[i+1])));
	addsd	%xmm2, %xmm0	# _112, _115
# src/../include/Board.hpp:22:     return static_cast<height_t>(63 - __builtin_clzll(static_cast<unsigned long long>((col << 1) | 1)));
	xorq	$63, %rax	#, tmp303
# src/../include/Board.hpp:22:     return static_cast<height_t>(63 - __builtin_clzll(static_cast<unsigned long long>((col << 1) | 1)));
	subl	%eax, %ecx	# tmp303, tmp304
# src/../include/Board.hpp:78:         differences += sqrt(abs(col_height(board[i]) - col_height(board[i+1])));
	movl	%esi, %eax	# _108, _108
# src/../include/Board.hpp:78:         differences += sqrt(abs(col_height(board[i]) - col_height(board[i+1])));
	movzwl	%cx, %ecx	# tmp304, _135
# src/../include/Board.hpp:78:         differences += sqrt(abs(col_height(board[i]) - col_height(board[i+1])));
	subl	%ecx, %eax	# _135, _108
# src/../include/Board.hpp:78:         differences += sqrt(abs(col_height(board[i]) - col_height(board[i+1])));
	movl	%eax, %esi	# tmp306, tmp307
	sarl	$31, %esi	#, tmp307
	xorl	%esi, %eax	# tmp307, tmp308
	subl	%esi, %eax	# tmp307, tmp309
# src/../include/Board.hpp:22:     return static_cast<height_t>(63 - __builtin_clzll(static_cast<unsigned long long>((col << 1) | 1)));
	movl	%edx, %esi	# tmp258, tmp320
# /usr/include/c++/8/cmath:476:     { return __builtin_sqrt(__x); }
	cvtsi2sd	%eax, %xmm1	# tmp309, tmp310
# src/../include/Board.hpp:78:         differences += sqrt(abs(col_height(board[i]) - col_height(board[i+1])));
	cvttsd2si	%xmm0, %eax	# _115, tmp312
# /usr/include/c++/8/cmath:476:     { return __builtin_sqrt(__x); }
	pxor	%xmm0, %xmm0	# tmp326
	sqrtsd	%xmm1, %xmm2	# tmp310, _139
# src/../include/Board.hpp:78:         differences += sqrt(abs(col_height(board[i]) - col_height(board[i+1])));
	pxor	%xmm1, %xmm1	# tmp314
	movzwl	%ax, %eax	# tmp312, differences
	cvtsi2sd	%eax, %xmm1	# differences, tmp314
# src/../include/Board.hpp:78:         differences += sqrt(abs(col_height(board[i]) - col_height(board[i+1])));
	movzwl	10(%rdi), %eax	# MEM[(const value_type &)board_20(D) + 10], MEM[(const value_type &)board_20(D) + 10]
# src/../include/Board.hpp:22:     return static_cast<height_t>(63 - __builtin_clzll(static_cast<unsigned long long>((col << 1) | 1)));
	leal	1(%rax,%rax), %eax	#, tmp317
# src/../include/Board.hpp:22:     return static_cast<height_t>(63 - __builtin_clzll(static_cast<unsigned long long>((col << 1) | 1)));
	cltq
	bsrq	%rax, %rax	# tmp318, tmp319
# src/../include/Board.hpp:78:         differences += sqrt(abs(col_height(board[i]) - col_height(board[i+1])));
	addsd	%xmm2, %xmm1	# _139, _142
# src/../include/Board.hpp:22:     return static_cast<height_t>(63 - __builtin_clzll(static_cast<unsigned long long>((col << 1) | 1)));
	xorq	$63, %rax	#, tmp319
# src/../include/Board.hpp:22:     return static_cast<height_t>(63 - __builtin_clzll(static_cast<unsigned long long>((col << 1) | 1)));
	subl	%eax, %esi	# tmp319, tmp320
# src/../include/Board.hpp:78:         differences += sqrt(abs(col_height(board[i]) - col_height(board[i+1])));
	movl	%ecx, %eax	# _135, _135
# src/../include/Board.hpp:78:         differences += sqrt(abs(col_height(board[i]) - col_height(board[i+1])));
	movzwl	%si, %esi	# tmp320, _162
# src/../include/Board.hpp:78:         differences += sqrt(abs(col_height(board[i]) - col_height(board[i+1])));
	subl	%esi, %eax	# _162, _135
# src/../include/Board.hpp:78:         differences += sqrt(abs(col_height(board[i]) - col_height(board[i+1])));
	movl	%eax, %ecx	# tmp322, tmp323
	sarl	$31, %ecx	#, tmp323
	xorl	%ecx, %eax	# tmp323, tmp324
	subl	%ecx, %eax	# tmp323, tmp325
# src/../include/Board.hpp:22:     return static_cast<height_t>(63 - __builtin_clzll(static_cast<unsigned long long>((col << 1) | 1)));
	movl	%edx, %ecx	# tmp258, tmp336
# /usr/include/c++/8/cmath:476:     { return __builtin_sqrt(__x); }
	cvtsi2sd	%eax, %xmm0	# tmp325, tmp326
# src/../include/Board.hpp:78:         differences += sqrt(abs(col_height(board[i]) - col_height(board[i+1])));
	cvttsd2si	%xmm1, %eax	# _142, tmp328
# /usr/include/c++/8/cmath:476:     { return __builtin_sqrt(__x); }
	pxor	%xmm1, %xmm1	# tmp342
	sqrtsd	%xmm0, %xmm2	# tmp326, _166
# src/../include/Board.hpp:78:         differences += sqrt(abs(col_height(board[i]) - col_height(board[i+1])));
	pxor	%xmm0, %xmm0	# tmp330
	movzwl	%ax, %eax	# tmp328, differences
	cvtsi2sd	%eax, %xmm0	# differences, tmp330
# src/../include/Board.hpp:78:         differences += sqrt(abs(col_height(board[i]) - col_height(board[i+1])));
	movzwl	12(%rdi), %eax	# MEM[(const value_type &)board_20(D) + 12], MEM[(const value_type &)board_20(D) + 12]
# src/../include/Board.hpp:22:     return static_cast<height_t>(63 - __builtin_clzll(static_cast<unsigned long long>((col << 1) | 1)));
	leal	1(%rax,%rax), %eax	#, tmp333
# src/../include/Board.hpp:22:     return static_cast<height_t>(63 - __builtin_clzll(static_cast<unsigned long long>((col << 1) | 1)));
	cltq
	bsrq	%rax, %rax	# tmp334, tmp335
# src/../include/Board.hpp:78:         differences += sqrt(abs(col_height(board[i]) - col_height(board[i+1])));
	addsd	%xmm2, %xmm0	# _166, _169
# src/../include/Board.hpp:22:     return static_cast<height_t>(63 - __builtin_clzll(static_cast<unsigned long long>((col << 1) | 1)));
	xorq	$63, %rax	#, tmp335
# src/../include/Board.hpp:22:     return static_cast<height_t>(63 - __builtin_clzll(static_cast<unsigned long long>((col << 1) | 1)));
	subl	%eax, %ecx	# tmp335, tmp336
# src/../include/Board.hpp:78:         differences += sqrt(abs(col_height(board[i]) - col_height(board[i+1])));
	movl	%esi, %eax	# _162, _162
# src/../include/Board.hpp:78:         differences += sqrt(abs(col_height(board[i]) - col_height(board[i+1])));
	movzwl	%cx, %ecx	# tmp336, _189
# src/../include/Board.hpp:78:         differences += sqrt(abs(col_height(board[i]) - col_height(board[i+1])));
	subl	%ecx, %eax	# _189, _162
# src/../include/Board.hpp:78:         differences += sqrt(abs(col_height(board[i]) - col_height(board[i+1])));
	movl	%eax, %esi	# tmp338, tmp339
	sarl	$31, %esi	#, tmp339
	xorl	%esi, %eax	# tmp339, tmp340
	subl	%esi, %eax	# tmp339, tmp341
# src/../include/Board.hpp:22:     return static_cast<height_t>(63 - __builtin_clzll(static_cast<unsigned long long>((col << 1) | 1)));
	movl	%edx, %esi	# tmp258, tmp352
# /usr/include/c++/8/cmath:476:     { return __builtin_sqrt(__x); }
	cvtsi2sd	%eax, %xmm1	# tmp341, tmp342
# src/../include/Board.hpp:78:         differences += sqrt(abs(col_height(board[i]) - col_height(board[i+1])));
	cvttsd2si	%xmm0, %eax	# _169, tmp344
# /usr/include/c++/8/cmath:476:     { return __builtin_sqrt(__x); }
	pxor	%xmm0, %xmm0	# tmp358
	sqrtsd	%xmm1, %xmm2	# tmp342, _193
# src/../include/Board.hpp:78:         differences += sqrt(abs(col_height(board[i]) - col_height(board[i+1])));
	pxor	%xmm1, %xmm1	# tmp346
	movzwl	%ax, %eax	# tmp344, differences
	cvtsi2sd	%eax, %xmm1	# differences, tmp346
# src/../include/Board.hpp:78:         differences += sqrt(abs(col_height(board[i]) - col_height(board[i+1])));
	movzwl	14(%rdi), %eax	# MEM[(const value_type &)board_20(D) + 14], MEM[(const value_type &)board_20(D) + 14]
# src/../include/Board.hpp:22:     return static_cast<height_t>(63 - __builtin_clzll(static_cast<unsigned long long>((col << 1) | 1)));
	leal	1(%rax,%rax), %eax	#, tmp349
# src/../include/Board.hpp:22:     return static_cast<height_t>(63 - __builtin_clzll(static_cast<unsigned long long>((col << 1) | 1)));
	cltq
	bsrq	%rax, %rax	# tmp350, tmp351
# src/../include/Board.hpp:78:         differences += sqrt(abs(col_height(board[i]) - col_height(board[i+1])));
	addsd	%xmm2, %xmm1	# _193, _196
# src/../include/Board.hpp:22:     return static_cast<height_t>(63 - __builtin_clzll(static_cast<unsigned long long>((col << 1) | 1)));
	xorq	$63, %rax	#, tmp351
# src/../include/Board.hpp:22:     return static_cast<height_t>(63 - __builtin_clzll(static_cast<unsigned long long>((col << 1) | 1)));
	subl	%eax, %esi	# tmp351, tmp352
# src/../include/Board.hpp:78:         differences += sqrt(abs(col_height(board[i]) - col_height(board[i+1])));
	movl	%ecx, %eax	# _189, _189
# src/../include/Board.hpp:78:         differences += sqrt(abs(col_height(board[i]) - col_height(board[i+1])));
	movzwl	%si, %esi	# tmp352, _216
# src/../include/Board.hpp:78:         differences += sqrt(abs(col_height(board[i]) - col_height(board[i+1])));
	subl	%esi, %eax	# _216, _189
# src/../include/Board.hpp:78:         differences += sqrt(abs(col_height(board[i]) - col_height(board[i+1])));
	movl	%eax, %ecx	# tmp354, tmp355
	sarl	$31, %ecx	#, tmp355
	xorl	%ecx, %eax	# tmp355, tmp356
	subl	%ecx, %eax	# tmp355, tmp357
# src/../include/Board.hpp:22:     return static_cast<height_t>(63 - __builtin_clzll(static_cast<unsigned long long>((col << 1) | 1)));
	movl	%edx, %ecx	# tmp258, tmp368
# /usr/include/c++/8/cmath:476:     { return __builtin_sqrt(__x); }
	cvtsi2sd	%eax, %xmm0	# tmp357, tmp358
# src/../include/Board.hpp:78:         differences += sqrt(abs(col_height(board[i]) - col_height(board[i+1])));
	cvttsd2si	%xmm1, %eax	# _196, tmp360
# /usr/include/c++/8/cmath:476:     { return __builtin_sqrt(__x); }
	pxor	%xmm1, %xmm1	# tmp374
	sqrtsd	%xmm0, %xmm2	# tmp358, _220
# src/../include/Board.hpp:78:         differences += sqrt(abs(col_height(board[i]) - col_height(board[i+1])));
	pxor	%xmm0, %xmm0	# tmp362
	movzwl	%ax, %eax	# tmp360, differences
	cvtsi2sd	%eax, %xmm0	# differences, tmp362
# src/../include/Board.hpp:78:         differences += sqrt(abs(col_height(board[i]) - col_height(board[i+1])));
	movzwl	16(%rdi), %eax	# MEM[(const value_type &)board_20(D) + 16], MEM[(const value_type &)board_20(D) + 16]
# src/../include/Board.hpp:22:     return static_cast<height_t>(63 - __builtin_clzll(static_cast<unsigned long long>((col << 1) | 1)));
	leal	1(%rax,%rax), %eax	#, tmp365
# src/../include/Board.hpp:22:     return static_cast<height_t>(63 - __builtin_clzll(static_cast<unsigned long long>((col << 1) | 1)));
	cltq
	bsrq	%rax, %rax	# tmp366, tmp367
# src/../include/Board.hpp:78:         differences += sqrt(abs(col_height(board[i]) - col_height(board[i+1])));
	addsd	%xmm2, %xmm0	# _220, _223
# src/../include/Board.hpp:22:     return static_cast<height_t>(63 - __builtin_clzll(static_cast<unsigned long long>((col << 1) | 1)));
	xorq	$63, %rax	#, tmp367
# src/../include/Board.hpp:22:     return static_cast<height_t>(63 - __builtin_clzll(static_cast<unsigned long long>((col << 1) | 1)));
	subl	%eax, %ecx	# tmp367, tmp368
# src/../include/Board.hpp:78:         differences += sqrt(abs(col_height(board[i]) - col_height(board[i+1])));
	movl	%esi, %eax	# _216, _216
# src/../include/Board.hpp:78:         differences += sqrt(abs(col_height(board[i]) - col_height(board[i+1])));
	movzwl	%cx, %ecx	# tmp368, _243
# src/../include/Board.hpp:78:         differences += sqrt(abs(col_height(board[i]) - col_height(board[i+1])));
	subl	%ecx, %eax	# _243, _216
# src/../include/Board.hpp:78:         differences += sqrt(abs(col_height(board[i]) - col_height(board[i+1])));
	movl	%eax, %esi	# tmp370, tmp371
	sarl	$31, %esi	#, tmp371
	xorl	%esi, %eax	# tmp371, tmp372
	subl	%esi, %eax	# tmp371, tmp373
# /usr/include/c++/8/cmath:476:     { return __builtin_sqrt(__x); }
	cvtsi2sd	%eax, %xmm1	# tmp373, tmp374
# src/../include/Board.hpp:78:         differences += sqrt(abs(col_height(board[i]) - col_height(board[i+1])));
	cvttsd2si	%xmm0, %eax	# _223, tmp376
# /usr/include/c++/8/cmath:476:     { return __builtin_sqrt(__x); }
	pxor	%xmm0, %xmm0	# tmp391
	sqrtsd	%xmm1, %xmm2	# tmp374, _247
# src/../include/Board.hpp:78:         differences += sqrt(abs(col_height(board[i]) - col_height(board[i+1])));
	pxor	%xmm1, %xmm1	# tmp378
	movzwl	%ax, %eax	# tmp376, differences
	cvtsi2sd	%eax, %xmm1	# differences, tmp378
# src/../include/Board.hpp:78:         differences += sqrt(abs(col_height(board[i]) - col_height(board[i+1])));
	movzwl	18(%rdi), %eax	# MEM[(const value_type &)board_20(D) + 18], MEM[(const value_type &)board_20(D) + 18]
# src/../include/Board.hpp:22:     return static_cast<height_t>(63 - __builtin_clzll(static_cast<unsigned long long>((col << 1) | 1)));
	leal	1(%rax,%rax), %eax	#, tmp381
# src/../include/Board.hpp:22:     return static_cast<height_t>(63 - __builtin_clzll(static_cast<unsigned long long>((col << 1) | 1)));
	cltq
	bsrq	%rax, %rax	# tmp382, tmp383
# src/../include/Board.hpp:78:         differences += sqrt(abs(col_height(board[i]) - col_height(board[i+1])));
	addsd	%xmm2, %xmm1	# _247, _250
# src/../include/Board.hpp:22:     return static_cast<height_t>(63 - __builtin_clzll(static_cast<unsigned long long>((col << 1) | 1)));
	xorq	$63, %rax	#, tmp383
# src/../include/Board.hpp:22:     return static_cast<height_t>(63 - __builtin_clzll(static_cast<unsigned long long>((col << 1) | 1)));
	subl	%eax, %edx	# tmp383, tmp384
# src/../include/Board.hpp:78:         differences += sqrt(abs(col_height(board[i]) - col_height(board[i+1])));
	movzwl	%dx, %edx	# tmp384, tmp386
# src/../include/Board.hpp:78:         differences += sqrt(abs(col_height(board[i]) - col_height(board[i+1])));
	subl	%edx, %ecx	# tmp386, tmp387
# src/../include/Board.hpp:78:         differences += sqrt(abs(col_height(board[i]) - col_height(board[i+1])));
	movl	%ecx, %eax	# tmp387, tmp388
	sarl	$31, %eax	#, tmp388
	xorl	%eax, %ecx	# tmp388, tmp389
	subl	%eax, %ecx	# tmp388, tmp390
# src/../include/Board.hpp:78:         differences += sqrt(abs(col_height(board[i]) - col_height(board[i+1])));
	cvttsd2si	%xmm1, %eax	# _250, tmp393
# /usr/include/c++/8/cmath:476:     { return __builtin_sqrt(__x); }
	cvtsi2sd	%ecx, %xmm0	# tmp390, tmp391
# src/../include/Board.hpp:78:         differences += sqrt(abs(col_height(board[i]) - col_height(board[i+1])));
	movzwl	%ax, %eax	# tmp393, differences
# /usr/include/c++/8/cmath:476:     { return __builtin_sqrt(__x); }
	sqrtsd	%xmm0, %xmm2	# tmp391, _22
# src/../include/Board.hpp:78:         differences += sqrt(abs(col_height(board[i]) - col_height(board[i+1])));
	pxor	%xmm0, %xmm0	# tmp395
	cvtsi2sd	%eax, %xmm0	# differences, tmp395
	addsd	%xmm2, %xmm0	# _22, _15
	cvttsd2si	%xmm0, %eax	# _15, tmp397
# src/../include/Board.hpp:81: }
	ret	
	.cfi_endproc
.LFE10161:
	.size	_Z21getColumnsDifferencesRKSt5arrayItLm10EE, .-_Z21getColumnsDifferencesRKSt5arrayItLm10EE
	.p2align 4,,15
	.globl	_Z11getWellSumsRKSt5arrayItLm10EE
	.type	_Z11getWellSumsRKSt5arrayItLm10EE, @function
_Z11getWellSumsRKSt5arrayItLm10EE:
.LFB10162:
	.cfi_startproc
# src/../include/Board.hpp:86: }
	pxor	%xmm0, %xmm0	#
	ret	
	.cfi_endproc
.LFE10162:
	.size	_Z11getWellSumsRKSt5arrayItLm10EE, .-_Z11getWellSumsRKSt5arrayItLm10EE
	.p2align 4,,15
	.globl	_Z13destroy_linesRSt5arrayItLm10EE
	.type	_Z13destroy_linesRSt5arrayItLm10EE, @function
_Z13destroy_linesRSt5arrayItLm10EE:
.LFB10166:
	.cfi_startproc
	pushq	%rbp	#
	.cfi_def_cfa_offset 16
	.cfi_offset 6, -16
	movq	%rdi, %rbp	# board, board
	pushq	%rbx	#
	.cfi_def_cfa_offset 24
	.cfi_offset 3, -24
	subq	$8, %rsp	#,
	.cfi_def_cfa_offset 32
	movdqu	2(%rdi), %xmm0	# MEM[(value_type &)board_16(D) + 2], tmp146
	movdqu	2(%rdi), %xmm2	# MEM[(value_type &)board_16(D) + 2], tmp198
	movzwl	(%rdi), %ebx	# MEM[(value_type &)board_16(D)], MEM[(value_type &)board_16(D)]
	andw	18(%rdi), %bx	# MEM[(value_type &)board_16(D)], MEM[(value_type &)board_16(D)]
	psrldq	$8, %xmm0	#, tmp146
	movl	%ebx, %edx	# MEM[(value_type &)board_16(D)], _50
	pand	%xmm2, %xmm0	# tmp198, vect_mask_19.182
	movdqa	%xmm0, %xmm1	# vect_mask_19.182, tmp147
	psrldq	$4, %xmm1	#, tmp147
	pand	%xmm1, %xmm0	# tmp147, vect_mask_19.182
	movdqa	%xmm0, %xmm1	# vect_mask_19.182, tmp148
	psrldq	$2, %xmm1	#, tmp148
# src/../include/Board.hpp:118:         mask &= board[i];
	pand	%xmm1, %xmm0	# tmp148, vect_mask_19.182
	pextrw	$0, %xmm0, %ebx	#, vect_mask_19.182, stmp_mask_19.181
	andl	%edx, %ebx	# _50, mask
# src/../include/Board.hpp:121:     uint8_t destroyed = __builtin_popcount(mask);
	movzwl	%bx, %edi	# mask, mask
# src/../include/Board.hpp:123:     mask = ~mask;
	notl	%ebx	# mask
# src/../include/Board.hpp:121:     uint8_t destroyed = __builtin_popcount(mask);
	call	__popcountdi2@PLT	#
# src/../include/Board.hpp:127:         board[i] = (height_t)_pext_u32(board[i], mask);
	movzwl	0(%rbp), %ecx	# MEM[(value_type &)board_16(D)], MEM[(value_type &)board_16(D)]
	movzwl	%bx, %edx	# mask, _53
# /usr/lib/gcc/x86_64-linux-gnu/8/include/bmi2intrin.h:55:   return __builtin_ia32_pext_si (__X, __Y);
	pext	%edx, %ecx, %ecx	# _53, MEM[(value_type &)board_16(D)], tmp156
# src/../include/Board.hpp:127:         board[i] = (height_t)_pext_u32(board[i], mask);
	movw	%cx, 0(%rbp)	# tmp156, MEM[(value_type &)board_16(D)]
# src/../include/Board.hpp:127:         board[i] = (height_t)_pext_u32(board[i], mask);
	movzwl	2(%rbp), %ecx	# MEM[(value_type &)board_16(D) + 2], MEM[(value_type &)board_16(D) + 2]
# /usr/lib/gcc/x86_64-linux-gnu/8/include/bmi2intrin.h:55:   return __builtin_ia32_pext_si (__X, __Y);
	pext	%edx, %ecx, %ecx	# _53, MEM[(value_type &)board_16(D) + 2], tmp160
# src/../include/Board.hpp:127:         board[i] = (height_t)_pext_u32(board[i], mask);
	movw	%cx, 2(%rbp)	# tmp160, MEM[(value_type &)board_16(D) + 2]
# src/../include/Board.hpp:127:         board[i] = (height_t)_pext_u32(board[i], mask);
	movzwl	4(%rbp), %ecx	# MEM[(value_type &)board_16(D) + 4], MEM[(value_type &)board_16(D) + 4]
# /usr/lib/gcc/x86_64-linux-gnu/8/include/bmi2intrin.h:55:   return __builtin_ia32_pext_si (__X, __Y);
	pext	%edx, %ecx, %ecx	# _53, MEM[(value_type &)board_16(D) + 4], tmp164
# src/../include/Board.hpp:127:         board[i] = (height_t)_pext_u32(board[i], mask);
	movw	%cx, 4(%rbp)	# tmp164, MEM[(value_type &)board_16(D) + 4]
# src/../include/Board.hpp:127:         board[i] = (height_t)_pext_u32(board[i], mask);
	movzwl	6(%rbp), %ecx	# MEM[(value_type &)board_16(D) + 6], MEM[(value_type &)board_16(D) + 6]
# /usr/lib/gcc/x86_64-linux-gnu/8/include/bmi2intrin.h:55:   return __builtin_ia32_pext_si (__X, __Y);
	pext	%edx, %ecx, %ecx	# _53, MEM[(value_type &)board_16(D) + 6], tmp168
# src/../include/Board.hpp:127:         board[i] = (height_t)_pext_u32(board[i], mask);
	movw	%cx, 6(%rbp)	# tmp168, MEM[(value_type &)board_16(D) + 6]
# src/../include/Board.hpp:127:         board[i] = (height_t)_pext_u32(board[i], mask);
	movzwl	8(%rbp), %ecx	# MEM[(value_type &)board_16(D) + 8], MEM[(value_type &)board_16(D) + 8]
# /usr/lib/gcc/x86_64-linux-gnu/8/include/bmi2intrin.h:55:   return __builtin_ia32_pext_si (__X, __Y);
	pext	%edx, %ecx, %ecx	# _53, MEM[(value_type &)board_16(D) + 8], tmp172
# src/../include/Board.hpp:127:         board[i] = (height_t)_pext_u32(board[i], mask);
	movw	%cx, 8(%rbp)	# tmp172, MEM[(value_type &)board_16(D) + 8]
# src/../include/Board.hpp:127:         board[i] = (height_t)_pext_u32(board[i], mask);
	movzwl	10(%rbp), %ecx	# MEM[(value_type &)board_16(D) + 10], MEM[(value_type &)board_16(D) + 10]
# /usr/lib/gcc/x86_64-linux-gnu/8/include/bmi2intrin.h:55:   return __builtin_ia32_pext_si (__X, __Y);
	pext	%edx, %ecx, %ecx	# _53, MEM[(value_type &)board_16(D) + 10], tmp176
# src/../include/Board.hpp:127:         board[i] = (height_t)_pext_u32(board[i], mask);
	movw	%cx, 10(%rbp)	# tmp176, MEM[(value_type &)board_16(D) + 10]
# src/../include/Board.hpp:127:         board[i] = (height_t)_pext_u32(board[i], mask);
	movzwl	12(%rbp), %ecx	# MEM[(value_type &)board_16(D) + 12], MEM[(value_type &)board_16(D) + 12]
# /usr/lib/gcc/x86_64-linux-gnu/8/include/bmi2intrin.h:55:   return __builtin_ia32_pext_si (__X, __Y);
	pext	%edx, %ecx, %ecx	# _53, MEM[(value_type &)board_16(D) + 12], tmp180
# src/../include/Board.hpp:127:         board[i] = (height_t)_pext_u32(board[i], mask);
	movw	%cx, 12(%rbp)	# tmp180, MEM[(value_type &)board_16(D) + 12]
# src/../include/Board.hpp:127:         board[i] = (height_t)_pext_u32(board[i], mask);
	movzwl	14(%rbp), %ecx	# MEM[(value_type &)board_16(D) + 14], MEM[(value_type &)board_16(D) + 14]
# /usr/lib/gcc/x86_64-linux-gnu/8/include/bmi2intrin.h:55:   return __builtin_ia32_pext_si (__X, __Y);
	pext	%edx, %ecx, %ecx	# _53, MEM[(value_type &)board_16(D) + 14], tmp184
# src/../include/Board.hpp:127:         board[i] = (height_t)_pext_u32(board[i], mask);
	movw	%cx, 14(%rbp)	# tmp184, MEM[(value_type &)board_16(D) + 14]
# src/../include/Board.hpp:127:         board[i] = (height_t)_pext_u32(board[i], mask);
	movzwl	16(%rbp), %ecx	# MEM[(value_type &)board_16(D) + 16], MEM[(value_type &)board_16(D) + 16]
# /usr/lib/gcc/x86_64-linux-gnu/8/include/bmi2intrin.h:55:   return __builtin_ia32_pext_si (__X, __Y);
	pext	%edx, %ecx, %ecx	# _53, MEM[(value_type &)board_16(D) + 16], tmp188
# src/../include/Board.hpp:127:         board[i] = (height_t)_pext_u32(board[i], mask);
	movw	%cx, 16(%rbp)	# tmp188, MEM[(value_type &)board_16(D) + 16]
# src/../include/Board.hpp:127:         board[i] = (height_t)_pext_u32(board[i], mask);
	movzwl	18(%rbp), %ecx	# MEM[(value_type &)board_16(D) + 18], MEM[(value_type &)board_16(D) + 18]
# /usr/lib/gcc/x86_64-linux-gnu/8/include/bmi2intrin.h:55:   return __builtin_ia32_pext_si (__X, __Y);
	pext	%edx, %ecx, %edx	# _53, MEM[(value_type &)board_16(D) + 18], tmp192
# src/../include/Board.hpp:127:         board[i] = (height_t)_pext_u32(board[i], mask);
	movw	%dx, 18(%rbp)	# tmp192, MEM[(value_type &)board_16(D) + 18]
# src/../include/Board.hpp:131: }
	addq	$8, %rsp	#,
	.cfi_def_cfa_offset 24
	popq	%rbx	#
	.cfi_def_cfa_offset 16
	popq	%rbp	#
	.cfi_def_cfa_offset 8
	ret	
	.cfi_endproc
.LFE10166:
	.size	_Z13destroy_linesRSt5arrayItLm10EE, .-_Z13destroy_linesRSt5arrayItLm10EE
	.p2align 4,,15
	.globl	_Z22destroy_lines_internetRSt5arrayItLm10EEt
	.type	_Z22destroy_lines_internetRSt5arrayItLm10EEt, @function
_Z22destroy_lines_internetRSt5arrayItLm10EEt:
.LFB10168:
	.cfi_startproc
# src/../include/Board.hpp:138:         board[i] = static_cast<height_t>(_pext_u32(board[i], mask));
	movzwl	(%rdi), %eax	# MEM[(value_type &)board_11(D)], MEM[(value_type &)board_11(D)]
# src/../include/Board.hpp:135:     mask =~ mask;
	notl	%esi	# mask
	movzwl	%si, %esi	# mask, _25
# /usr/lib/gcc/x86_64-linux-gnu/8/include/bmi2intrin.h:55:   return __builtin_ia32_pext_si (__X, __Y);
	pext	%esi, %eax, %eax	# _25, MEM[(value_type &)board_11(D)], tmp133
# src/../include/Board.hpp:138:         board[i] = static_cast<height_t>(_pext_u32(board[i], mask));
	movw	%ax, (%rdi)	# tmp133, MEM[(value_type &)board_11(D)]
# src/../include/Board.hpp:138:         board[i] = static_cast<height_t>(_pext_u32(board[i], mask));
	movzwl	2(%rdi), %eax	# MEM[(value_type &)board_11(D) + 2], MEM[(value_type &)board_11(D) + 2]
# /usr/lib/gcc/x86_64-linux-gnu/8/include/bmi2intrin.h:55:   return __builtin_ia32_pext_si (__X, __Y);
	pext	%esi, %eax, %eax	# _25, MEM[(value_type &)board_11(D) + 2], tmp137
# src/../include/Board.hpp:138:         board[i] = static_cast<height_t>(_pext_u32(board[i], mask));
	movw	%ax, 2(%rdi)	# tmp137, MEM[(value_type &)board_11(D) + 2]
# src/../include/Board.hpp:138:         board[i] = static_cast<height_t>(_pext_u32(board[i], mask));
	movzwl	4(%rdi), %eax	# MEM[(value_type &)board_11(D) + 4], MEM[(value_type &)board_11(D) + 4]
# /usr/lib/gcc/x86_64-linux-gnu/8/include/bmi2intrin.h:55:   return __builtin_ia32_pext_si (__X, __Y);
	pext	%esi, %eax, %eax	# _25, MEM[(value_type &)board_11(D) + 4], tmp141
# src/../include/Board.hpp:138:         board[i] = static_cast<height_t>(_pext_u32(board[i], mask));
	movw	%ax, 4(%rdi)	# tmp141, MEM[(value_type &)board_11(D) + 4]
# src/../include/Board.hpp:138:         board[i] = static_cast<height_t>(_pext_u32(board[i], mask));
	movzwl	6(%rdi), %eax	# MEM[(value_type &)board_11(D) + 6], MEM[(value_type &)board_11(D) + 6]
# /usr/lib/gcc/x86_64-linux-gnu/8/include/bmi2intrin.h:55:   return __builtin_ia32_pext_si (__X, __Y);
	pext	%esi, %eax, %eax	# _25, MEM[(value_type &)board_11(D) + 6], tmp145
# src/../include/Board.hpp:138:         board[i] = static_cast<height_t>(_pext_u32(board[i], mask));
	movw	%ax, 6(%rdi)	# tmp145, MEM[(value_type &)board_11(D) + 6]
# src/../include/Board.hpp:138:         board[i] = static_cast<height_t>(_pext_u32(board[i], mask));
	movzwl	8(%rdi), %eax	# MEM[(value_type &)board_11(D) + 8], MEM[(value_type &)board_11(D) + 8]
# /usr/lib/gcc/x86_64-linux-gnu/8/include/bmi2intrin.h:55:   return __builtin_ia32_pext_si (__X, __Y);
	pext	%esi, %eax, %eax	# _25, MEM[(value_type &)board_11(D) + 8], tmp149
# src/../include/Board.hpp:138:         board[i] = static_cast<height_t>(_pext_u32(board[i], mask));
	movw	%ax, 8(%rdi)	# tmp149, MEM[(value_type &)board_11(D) + 8]
# src/../include/Board.hpp:138:         board[i] = static_cast<height_t>(_pext_u32(board[i], mask));
	movzwl	10(%rdi), %eax	# MEM[(value_type &)board_11(D) + 10], MEM[(value_type &)board_11(D) + 10]
# /usr/lib/gcc/x86_64-linux-gnu/8/include/bmi2intrin.h:55:   return __builtin_ia32_pext_si (__X, __Y);
	pext	%esi, %eax, %eax	# _25, MEM[(value_type &)board_11(D) + 10], tmp153
# src/../include/Board.hpp:138:         board[i] = static_cast<height_t>(_pext_u32(board[i], mask));
	movw	%ax, 10(%rdi)	# tmp153, MEM[(value_type &)board_11(D) + 10]
# src/../include/Board.hpp:138:         board[i] = static_cast<height_t>(_pext_u32(board[i], mask));
	movzwl	12(%rdi), %eax	# MEM[(value_type &)board_11(D) + 12], MEM[(value_type &)board_11(D) + 12]
# /usr/lib/gcc/x86_64-linux-gnu/8/include/bmi2intrin.h:55:   return __builtin_ia32_pext_si (__X, __Y);
	pext	%esi, %eax, %eax	# _25, MEM[(value_type &)board_11(D) + 12], tmp157
# src/../include/Board.hpp:138:         board[i] = static_cast<height_t>(_pext_u32(board[i], mask));
	movw	%ax, 12(%rdi)	# tmp157, MEM[(value_type &)board_11(D) + 12]
# src/../include/Board.hpp:138:         board[i] = static_cast<height_t>(_pext_u32(board[i], mask));
	movzwl	14(%rdi), %eax	# MEM[(value_type &)board_11(D) + 14], MEM[(value_type &)board_11(D) + 14]
# /usr/lib/gcc/x86_64-linux-gnu/8/include/bmi2intrin.h:55:   return __builtin_ia32_pext_si (__X, __Y);
	pext	%esi, %eax, %eax	# _25, MEM[(value_type &)board_11(D) + 14], tmp161
# src/../include/Board.hpp:138:         board[i] = static_cast<height_t>(_pext_u32(board[i], mask));
	movw	%ax, 14(%rdi)	# tmp161, MEM[(value_type &)board_11(D) + 14]
# src/../include/Board.hpp:138:         board[i] = static_cast<height_t>(_pext_u32(board[i], mask));
	movzwl	16(%rdi), %eax	# MEM[(value_type &)board_11(D) + 16], MEM[(value_type &)board_11(D) + 16]
# /usr/lib/gcc/x86_64-linux-gnu/8/include/bmi2intrin.h:55:   return __builtin_ia32_pext_si (__X, __Y);
	pext	%esi, %eax, %eax	# _25, MEM[(value_type &)board_11(D) + 16], tmp165
# src/../include/Board.hpp:138:         board[i] = static_cast<height_t>(_pext_u32(board[i], mask));
	movw	%ax, 16(%rdi)	# tmp165, MEM[(value_type &)board_11(D) + 16]
# src/../include/Board.hpp:138:         board[i] = static_cast<height_t>(_pext_u32(board[i], mask));
	movzwl	18(%rdi), %eax	# MEM[(value_type &)board_11(D) + 18], MEM[(value_type &)board_11(D) + 18]
# /usr/lib/gcc/x86_64-linux-gnu/8/include/bmi2intrin.h:55:   return __builtin_ia32_pext_si (__X, __Y);
	pext	%esi, %eax, %esi	# _25, MEM[(value_type &)board_11(D) + 18], tmp169
# src/../include/Board.hpp:138:         board[i] = static_cast<height_t>(_pext_u32(board[i], mask));
	movw	%si, 18(%rdi)	# tmp169, MEM[(value_type &)board_11(D) + 18]
# src/../include/Board.hpp:140: }
	ret	
	.cfi_endproc
.LFE10168:
	.size	_Z22destroy_lines_internetRSt5arrayItLm10EEt, .-_Z22destroy_lines_internetRSt5arrayItLm10EEt
	.p2align 4,,15
	.globl	_Z26evaluate_board_GA_internetRKSt5arrayItLm10EEiRtRKSt6vectorIdSaIdEE
	.type	_Z26evaluate_board_GA_internetRKSt5arrayItLm10EEiRtRKSt6vectorIdSaIdEE, @function
_Z26evaluate_board_GA_internetRKSt5arrayItLm10EEiRtRKSt6vectorIdSaIdEE:
.LFB10169:
	.cfi_startproc
	pushq	%r15	#
	.cfi_def_cfa_offset 16
	.cfi_offset 15, -16
	pushq	%r14	#
	.cfi_def_cfa_offset 24
	.cfi_offset 14, -24
	pushq	%r13	#
	.cfi_def_cfa_offset 32
	.cfi_offset 13, -32
	movq	%rdi, %r13	# board, board
	pushq	%r12	#
	.cfi_def_cfa_offset 40
	.cfi_offset 12, -40
	movq	%rdx, %r12	# line_mask, line_mask
	pushq	%rbp	#
	.cfi_def_cfa_offset 48
	.cfi_offset 6, -48
	pushq	%rbx	#
	.cfi_def_cfa_offset 56
	.cfi_offset 3, -56
# src/../include/Board.hpp:22:     return static_cast<height_t>(63 - __builtin_clzll(static_cast<unsigned long long>((col << 1) | 1)));
	movl	$63, %ebx	#, tmp309
	movl	%ebx, %r15d	# tmp309, _47
# src/../include/Board.hpp:143: {
	subq	$120, %rsp	#,
	.cfi_def_cfa_offset 176
# src/../include/Board.hpp:153:     height_t col = board[0];
	movzwl	(%rdi), %edi	# MEM[(const value_type &)board_46(D)],
# src/../include/Board.hpp:143: {
	movq	%rcx, 104(%rsp)	# params, %sfp
# src/../include/Board.hpp:22:     return static_cast<height_t>(63 - __builtin_clzll(static_cast<unsigned long long>((col << 1) | 1)));
	leal	1(%rdi,%rdi), %eax	#, tmp306
# src/../include/Board.hpp:154:     line_mask = col;
	movw	%di, (%r12)	# col, *line_mask_49(D)
# src/../include/Board.hpp:153:     height_t col = board[0];
	movl	%edi, %r14d	#,
# src/../include/Board.hpp:156:     holes += prev_height - __builtin_popcount(col);
	movl	%edi, %edi	# col, col
# src/../include/Board.hpp:22:     return static_cast<height_t>(63 - __builtin_clzll(static_cast<unsigned long long>((col << 1) | 1)));
	cltq
	bsrq	%rax, %rax	# tmp307, tmp308
	xorq	$63, %rax	#, tmp308
# src/../include/Board.hpp:22:     return static_cast<height_t>(63 - __builtin_clzll(static_cast<unsigned long long>((col << 1) | 1)));
	subl	%eax, %r15d	# tmp308, _47
# src/../include/Board.hpp:156:     holes += prev_height - __builtin_popcount(col);
	call	__popcountdi2@PLT	#
# src/../include/Board.hpp:163:         col = board[i];
	movzwl	2(%r13), %edi	# MEM[(const value_type &)board_46(D)],
# src/../include/Board.hpp:22:     return static_cast<height_t>(63 - __builtin_clzll(static_cast<unsigned long long>((col << 1) | 1)));
	movl	%ebx, %ecx	# tmp309, _120
# src/../include/Board.hpp:156:     holes += prev_height - __builtin_popcount(col);
	movl	%eax, 44(%rsp)	#, %sfp
# src/../include/Board.hpp:22:     return static_cast<height_t>(63 - __builtin_clzll(static_cast<unsigned long long>((col << 1) | 1)));
	leal	1(%rdi,%rdi), %eax	#, tmp315
# src/../include/Board.hpp:163:         col = board[i];
	movl	%edi, %ebp	#,
# src/../include/Board.hpp:165:         holes += height - __builtin_popcount(col);
	movl	%edi, %edi	# col, col
# src/../include/Board.hpp:22:     return static_cast<height_t>(63 - __builtin_clzll(static_cast<unsigned long long>((col << 1) | 1)));
	cltq
# src/../include/Board.hpp:166:         line_mask &= col;
	andl	%ebp, %r14d	# col, _114
# src/../include/Board.hpp:167:         aggregate_height += height;
	movl	%r15d, %ebp	# _47, aggregate_height
# src/../include/Board.hpp:22:     return static_cast<height_t>(63 - __builtin_clzll(static_cast<unsigned long long>((col << 1) | 1)));
	bsrq	%rax, %rax	# tmp316, tmp317
	xorq	$63, %rax	#, tmp317
# src/../include/Board.hpp:22:     return static_cast<height_t>(63 - __builtin_clzll(static_cast<unsigned long long>((col << 1) | 1)));
	subl	%eax, %ecx	# tmp317, _120
	movw	%cx, 16(%rsp)	# _120, %sfp
# src/../include/Board.hpp:165:         holes += height - __builtin_popcount(col);
	call	__popcountdi2@PLT	#
# src/../include/Board.hpp:166:         line_mask &= col;
	movw	%r14w, (%r12)	# _114, *line_mask_49(D)
# src/../include/Board.hpp:163:         col = board[i];
	movzwl	4(%r13), %edi	# MEM[(const value_type &)board_46(D) + 4],
# src/../include/Board.hpp:165:         holes += height - __builtin_popcount(col);
	movl	%eax, 48(%rsp)	#, %sfp
# src/../include/Board.hpp:167:         aggregate_height += height;
	movzwl	16(%rsp), %edx	# %sfp,
# src/../include/Board.hpp:22:     return static_cast<height_t>(63 - __builtin_clzll(static_cast<unsigned long long>((col << 1) | 1)));
	leal	1(%rdi,%rdi), %eax	#, tmp324
# src/../include/Board.hpp:167:         aggregate_height += height;
	movw	%r15w, 30(%rsp)	# _47, %sfp
# src/../include/Board.hpp:163:         col = board[i];
	movl	%edi, %r15d	#,
# src/../include/Board.hpp:165:         holes += height - __builtin_popcount(col);
	movl	%edi, %edi	# col, col
# src/../include/Board.hpp:22:     return static_cast<height_t>(63 - __builtin_clzll(static_cast<unsigned long long>((col << 1) | 1)));
	cltq
# src/../include/Board.hpp:167:         aggregate_height += height;
	addl	%edx, %ebp	# _120, aggregate_height
# src/../include/Board.hpp:168:         bumpiness += abs(prev_height - height);
	movl	%edx, 32(%rsp)	# _110, %sfp
# src/../include/Board.hpp:22:     return static_cast<height_t>(63 - __builtin_clzll(static_cast<unsigned long long>((col << 1) | 1)));
	movl	%ebx, %edx	# tmp309, _77
# src/../include/Board.hpp:22:     return static_cast<height_t>(63 - __builtin_clzll(static_cast<unsigned long long>((col << 1) | 1)));
	bsrq	%rax, %rax	# tmp325, tmp326
# src/../include/Board.hpp:166:         line_mask &= col;
	andl	%r15d, %r14d	# col, _44
# src/../include/Board.hpp:22:     return static_cast<height_t>(63 - __builtin_clzll(static_cast<unsigned long long>((col << 1) | 1)));
	xorq	$63, %rax	#, tmp326
# src/../include/Board.hpp:22:     return static_cast<height_t>(63 - __builtin_clzll(static_cast<unsigned long long>((col << 1) | 1)));
	subl	%eax, %edx	# tmp326, _77
	movw	%dx, 14(%rsp)	# _77, %sfp
# src/../include/Board.hpp:165:         holes += height - __builtin_popcount(col);
	call	__popcountdi2@PLT	#
# src/../include/Board.hpp:167:         aggregate_height += height;
	movzwl	14(%rsp), %edi	# %sfp,
# src/../include/Board.hpp:166:         line_mask &= col;
	movw	%r14w, (%r12)	# _44, *line_mask_49(D)
# src/../include/Board.hpp:22:     return static_cast<height_t>(63 - __builtin_clzll(static_cast<unsigned long long>((col << 1) | 1)));
	movl	%ebx, %r10d	# tmp309, _161
# src/../include/Board.hpp:165:         holes += height - __builtin_popcount(col);
	movl	%eax, 52(%rsp)	#, %sfp
# src/../include/Board.hpp:167:         aggregate_height += height;
	addl	%edi, %ebp	# _77, aggregate_height
# src/../include/Board.hpp:168:         bumpiness += abs(prev_height - height);
	movl	%edi, 24(%rsp)	# _40, %sfp
# src/../include/Board.hpp:163:         col = board[i];
	movzwl	6(%r13), %edi	# MEM[(const value_type &)board_46(D) + 6],
# src/../include/Board.hpp:22:     return static_cast<height_t>(63 - __builtin_clzll(static_cast<unsigned long long>((col << 1) | 1)));
	leal	1(%rdi,%rdi), %eax	#, tmp333
# src/../include/Board.hpp:163:         col = board[i];
	movl	%edi, %r15d	#,
# src/../include/Board.hpp:165:         holes += height - __builtin_popcount(col);
	movl	%edi, %edi	# col, col
# src/../include/Board.hpp:22:     return static_cast<height_t>(63 - __builtin_clzll(static_cast<unsigned long long>((col << 1) | 1)));
	cltq
# src/../include/Board.hpp:166:         line_mask &= col;
	andl	%r15d, %r14d	# col, _167
# src/../include/Board.hpp:22:     return static_cast<height_t>(63 - __builtin_clzll(static_cast<unsigned long long>((col << 1) | 1)));
	bsrq	%rax, %rax	# tmp334, tmp335
	xorq	$63, %rax	#, tmp335
# src/../include/Board.hpp:22:     return static_cast<height_t>(63 - __builtin_clzll(static_cast<unsigned long long>((col << 1) | 1)));
	subl	%eax, %r10d	# tmp335, _161
	movw	%r10w, 18(%rsp)	# _161, %sfp
# src/../include/Board.hpp:165:         holes += height - __builtin_popcount(col);
	call	__popcountdi2@PLT	#
# src/../include/Board.hpp:166:         line_mask &= col;
	movw	%r14w, (%r12)	# _167, *line_mask_49(D)
# src/../include/Board.hpp:163:         col = board[i];
	movzwl	8(%r13), %edi	# MEM[(const value_type &)board_46(D) + 8],
# src/../include/Board.hpp:165:         holes += height - __builtin_popcount(col);
	movl	%eax, 56(%rsp)	#, %sfp
# src/../include/Board.hpp:167:         aggregate_height += height;
	movzwl	18(%rsp), %r10d	# %sfp,
# src/../include/Board.hpp:22:     return static_cast<height_t>(63 - __builtin_clzll(static_cast<unsigned long long>((col << 1) | 1)));
	leal	1(%rdi,%rdi), %eax	#, tmp342
# src/../include/Board.hpp:163:         col = board[i];
	movl	%edi, %r15d	#,
# src/../include/Board.hpp:165:         holes += height - __builtin_popcount(col);
	movl	%edi, %edi	# col, col
# src/../include/Board.hpp:22:     return static_cast<height_t>(63 - __builtin_clzll(static_cast<unsigned long long>((col << 1) | 1)));
	cltq
# src/../include/Board.hpp:167:         aggregate_height += height;
	addl	%r10d, %ebp	# _161, aggregate_height
# src/../include/Board.hpp:168:         bumpiness += abs(prev_height - height);
	movl	%r10d, 36(%rsp)	# _171, %sfp
# src/../include/Board.hpp:22:     return static_cast<height_t>(63 - __builtin_clzll(static_cast<unsigned long long>((col << 1) | 1)));
	movl	%ebx, %r10d	# tmp309, _195
# src/../include/Board.hpp:22:     return static_cast<height_t>(63 - __builtin_clzll(static_cast<unsigned long long>((col << 1) | 1)));
	bsrq	%rax, %rax	# tmp343, tmp344
# src/../include/Board.hpp:166:         line_mask &= col;
	andl	%r15d, %r14d	# col, _201
# src/../include/Board.hpp:22:     return static_cast<height_t>(63 - __builtin_clzll(static_cast<unsigned long long>((col << 1) | 1)));
	xorq	$63, %rax	#, tmp344
# src/../include/Board.hpp:22:     return static_cast<height_t>(63 - __builtin_clzll(static_cast<unsigned long long>((col << 1) | 1)));
	subl	%eax, %r10d	# tmp344, _195
	movw	%r10w, 20(%rsp)	# _195, %sfp
# src/../include/Board.hpp:165:         holes += height - __builtin_popcount(col);
	call	__popcountdi2@PLT	#
# src/../include/Board.hpp:166:         line_mask &= col;
	movw	%r14w, (%r12)	# _201, *line_mask_49(D)
# src/../include/Board.hpp:163:         col = board[i];
	movzwl	10(%r13), %edi	# MEM[(const value_type &)board_46(D) + 10],
# src/../include/Board.hpp:165:         holes += height - __builtin_popcount(col);
	movl	%eax, 60(%rsp)	#, %sfp
# src/../include/Board.hpp:167:         aggregate_height += height;
	movzwl	20(%rsp), %r8d	# %sfp,
# src/../include/Board.hpp:22:     return static_cast<height_t>(63 - __builtin_clzll(static_cast<unsigned long long>((col << 1) | 1)));
	leal	1(%rdi,%rdi), %eax	#, tmp351
# src/../include/Board.hpp:163:         col = board[i];
	movl	%edi, %r15d	#,
# src/../include/Board.hpp:165:         holes += height - __builtin_popcount(col);
	movl	%edi, %edi	# col, col
# src/../include/Board.hpp:22:     return static_cast<height_t>(63 - __builtin_clzll(static_cast<unsigned long long>((col << 1) | 1)));
	cltq
# src/../include/Board.hpp:167:         aggregate_height += height;
	addl	%r8d, %ebp	# _195, aggregate_height
# src/../include/Board.hpp:168:         bumpiness += abs(prev_height - height);
	movl	%r8d, 100(%rsp)	# _205, %sfp
# src/../include/Board.hpp:22:     return static_cast<height_t>(63 - __builtin_clzll(static_cast<unsigned long long>((col << 1) | 1)));
	movl	%ebx, %r8d	# tmp309, _229
# src/../include/Board.hpp:22:     return static_cast<height_t>(63 - __builtin_clzll(static_cast<unsigned long long>((col << 1) | 1)));
	bsrq	%rax, %rax	# tmp352, tmp353
	xorq	$63, %rax	#, tmp353
# src/../include/Board.hpp:22:     return static_cast<height_t>(63 - __builtin_clzll(static_cast<unsigned long long>((col << 1) | 1)));
	subl	%eax, %r8d	# tmp353, _229
	movw	%r8w, 22(%rsp)	# _229, %sfp
# src/../include/Board.hpp:165:         holes += height - __builtin_popcount(col);
	call	__popcountdi2@PLT	#
# src/../include/Board.hpp:166:         line_mask &= col;
	andl	%r15d, %r14d	# col, _235
# src/../include/Board.hpp:167:         aggregate_height += height;
	movzwl	22(%rsp), %esi	# %sfp,
# src/../include/Board.hpp:22:     return static_cast<height_t>(63 - __builtin_clzll(static_cast<unsigned long long>((col << 1) | 1)));
	movl	%ebx, %r9d	# tmp309, _263
# src/../include/Board.hpp:166:         line_mask &= col;
	movw	%r14w, (%r12)	# _235, *line_mask_49(D)
# src/../include/Board.hpp:163:         col = board[i];
	movzwl	12(%r13), %edi	# MEM[(const value_type &)board_46(D) + 12],
# src/../include/Board.hpp:165:         holes += height - __builtin_popcount(col);
	movl	%eax, 64(%rsp)	#, %sfp
# src/../include/Board.hpp:167:         aggregate_height += height;
	addl	%esi, %ebp	# _229, aggregate_height
# src/../include/Board.hpp:22:     return static_cast<height_t>(63 - __builtin_clzll(static_cast<unsigned long long>((col << 1) | 1)));
	leal	1(%rdi,%rdi), %eax	#, tmp360
# src/../include/Board.hpp:163:         col = board[i];
	movl	%edi, %r15d	#,
# src/../include/Board.hpp:165:         holes += height - __builtin_popcount(col);
	movl	%edi, %edi	# col, col
# src/../include/Board.hpp:168:         bumpiness += abs(prev_height - height);
	movl	%esi, 96(%rsp)	# _239, %sfp
# src/../include/Board.hpp:22:     return static_cast<height_t>(63 - __builtin_clzll(static_cast<unsigned long long>((col << 1) | 1)));
	cltq
# src/../include/Board.hpp:166:         line_mask &= col;
	andl	%r15d, %r14d	# col, _269
# src/../include/Board.hpp:22:     return static_cast<height_t>(63 - __builtin_clzll(static_cast<unsigned long long>((col << 1) | 1)));
	bsrq	%rax, %rax	# tmp361, tmp362
	xorq	$63, %rax	#, tmp362
# src/../include/Board.hpp:22:     return static_cast<height_t>(63 - __builtin_clzll(static_cast<unsigned long long>((col << 1) | 1)));
	subl	%eax, %r9d	# tmp362, _263
	movw	%r9w, 28(%rsp)	# _263, %sfp
# src/../include/Board.hpp:165:         holes += height - __builtin_popcount(col);
	call	__popcountdi2@PLT	#
# src/../include/Board.hpp:166:         line_mask &= col;
	movw	%r14w, (%r12)	# _269, *line_mask_49(D)
# src/../include/Board.hpp:163:         col = board[i];
	movzwl	14(%r13), %edi	# MEM[(const value_type &)board_46(D) + 14],
# src/../include/Board.hpp:22:     return static_cast<height_t>(63 - __builtin_clzll(static_cast<unsigned long long>((col << 1) | 1)));
	movl	%ebx, %r11d	# tmp309, _297
# src/../include/Board.hpp:165:         holes += height - __builtin_popcount(col);
	movl	%eax, 68(%rsp)	#, %sfp
# src/../include/Board.hpp:167:         aggregate_height += height;
	movzwl	28(%rsp), %r9d	# %sfp,
# src/../include/Board.hpp:22:     return static_cast<height_t>(63 - __builtin_clzll(static_cast<unsigned long long>((col << 1) | 1)));
	leal	1(%rdi,%rdi), %eax	#, tmp369
# src/../include/Board.hpp:164:         height_t height = col_height(col);
	movl	%edi, 40(%rsp)	# col, %sfp
# src/../include/Board.hpp:165:         holes += height - __builtin_popcount(col);
	movl	%edi, %edi	# col, col
# src/../include/Board.hpp:22:     return static_cast<height_t>(63 - __builtin_clzll(static_cast<unsigned long long>((col << 1) | 1)));
	cltq
# src/../include/Board.hpp:167:         aggregate_height += height;
	addl	%r9d, %ebp	# _263, aggregate_height
# src/../include/Board.hpp:168:         bumpiness += abs(prev_height - height);
	movl	%r9d, 92(%rsp)	# _273, %sfp
# src/../include/Board.hpp:22:     return static_cast<height_t>(63 - __builtin_clzll(static_cast<unsigned long long>((col << 1) | 1)));
	bsrq	%rax, %rax	# tmp370, tmp371
	xorq	$63, %rax	#, tmp371
# src/../include/Board.hpp:22:     return static_cast<height_t>(63 - __builtin_clzll(static_cast<unsigned long long>((col << 1) | 1)));
	subl	%eax, %r11d	# tmp371, _297
	movl	%r11d, %r15d	# _297, _297
# src/../include/Board.hpp:165:         holes += height - __builtin_popcount(col);
	call	__popcountdi2@PLT	#
# src/../include/Board.hpp:166:         line_mask &= col;
	movl	40(%rsp), %ecx	# %sfp, col
# src/../include/Board.hpp:168:         bumpiness += abs(prev_height - height);
	movzwl	%r15w, %edx	# _297, _307
# src/../include/Board.hpp:165:         holes += height - __builtin_popcount(col);
	movl	%eax, 72(%rsp)	#, %sfp
# src/../include/Board.hpp:166:         line_mask &= col;
	andl	%r14d, %ecx	# _269, _303
# src/../include/Board.hpp:167:         aggregate_height += height;
	leal	0(%rbp,%r15), %r14d	#, aggregate_height
# src/../include/Board.hpp:168:         bumpiness += abs(prev_height - height);
	movl	%edx, 88(%rsp)	# _307, %sfp
# src/../include/Board.hpp:166:         line_mask &= col;
	movw	%cx, (%r12)	# _303, *line_mask_49(D)
# src/../include/Board.hpp:163:         col = board[i];
	movzwl	16(%r13), %edi	# MEM[(const value_type &)board_46(D) + 16],
# src/../include/Board.hpp:167:         aggregate_height += height;
	movw	%r14w, 40(%rsp)	# aggregate_height, %sfp
# src/../include/Board.hpp:22:     return static_cast<height_t>(63 - __builtin_clzll(static_cast<unsigned long long>((col << 1) | 1)));
	movl	%ebx, %r14d	# tmp309, _331
# src/../include/Board.hpp:22:     return static_cast<height_t>(63 - __builtin_clzll(static_cast<unsigned long long>((col << 1) | 1)));
	leal	1(%rdi,%rdi), %eax	#, tmp378
# src/../include/Board.hpp:163:         col = board[i];
	movl	%edi, %ebp	#,
# src/../include/Board.hpp:165:         holes += height - __builtin_popcount(col);
	movl	%edi, %edi	# col, col
# src/../include/Board.hpp:166:         line_mask &= col;
	movl	%ecx, 80(%rsp)	# _303, %sfp
# src/../include/Board.hpp:22:     return static_cast<height_t>(63 - __builtin_clzll(static_cast<unsigned long long>((col << 1) | 1)));
	cltq
	bsrq	%rax, %rax	# tmp379, tmp380
	xorq	$63, %rax	#, tmp380
# src/../include/Board.hpp:22:     return static_cast<height_t>(63 - __builtin_clzll(static_cast<unsigned long long>((col << 1) | 1)));
	subl	%eax, %r14d	# tmp380, _331
# src/../include/Board.hpp:165:         holes += height - __builtin_popcount(col);
	call	__popcountdi2@PLT	#
# src/../include/Board.hpp:166:         line_mask &= col;
	movl	80(%rsp), %ecx	# %sfp, _303
# src/../include/Board.hpp:167:         aggregate_height += height;
	movzwl	40(%rsp), %r11d	# %sfp, aggregate_height
# src/../include/Board.hpp:165:         holes += height - __builtin_popcount(col);
	movl	%eax, 76(%rsp)	#, %sfp
# src/../include/Board.hpp:166:         line_mask &= col;
	andl	%ebp, %ecx	# col, _337
# src/../include/Board.hpp:167:         aggregate_height += height;
	addl	%r14d, %r11d	# _331, aggregate_height
# src/../include/Board.hpp:168:         bumpiness += abs(prev_height - height);
	movzwl	%r14w, %ebp	# _331, _341
# src/../include/Board.hpp:166:         line_mask &= col;
	movw	%cx, (%r12)	# _337, *line_mask_49(D)
# src/../include/Board.hpp:163:         col = board[i];
	movzwl	18(%r13), %edi	# MEM[(const value_type &)board_46(D) + 18],
# src/../include/Board.hpp:167:         aggregate_height += height;
	movw	%r11w, 40(%rsp)	# aggregate_height, %sfp
# src/../include/Board.hpp:22:     return static_cast<height_t>(63 - __builtin_clzll(static_cast<unsigned long long>((col << 1) | 1)));
	leal	1(%rdi,%rdi), %eax	#, tmp387
# src/../include/Board.hpp:163:         col = board[i];
	movl	%edi, %r13d	#,
# src/../include/Board.hpp:165:         holes += height - __builtin_popcount(col);
	movl	%edi, %edi	# col, col
# src/../include/Board.hpp:166:         line_mask &= col;
	movl	%ecx, 84(%rsp)	# _337, %sfp
# src/../include/Board.hpp:22:     return static_cast<height_t>(63 - __builtin_clzll(static_cast<unsigned long long>((col << 1) | 1)));
	cltq
	bsrq	%rax, %rax	# tmp388, tmp389
	xorq	$63, %rax	#, tmp389
# src/../include/Board.hpp:22:     return static_cast<height_t>(63 - __builtin_clzll(static_cast<unsigned long long>((col << 1) | 1)));
	subl	%eax, %ebx	# tmp389, _73
# src/../include/Board.hpp:165:         holes += height - __builtin_popcount(col);
	call	__popcountdi2@PLT	#
# src/../include/Board.hpp:166:         line_mask &= col;
	movl	84(%rsp), %ecx	# %sfp, _337
# src/../include/Board.hpp:165:         holes += height - __builtin_popcount(col);
	movl	%eax, 80(%rsp)	#, %sfp
# src/../include/Board.hpp:166:         line_mask &= col;
	andl	%r13d, %ecx	# col, _14
	movw	%cx, (%r12)	# _14, *line_mask_49(D)
# src/../include/Board.hpp:175:     int destroyed = __builtin_popcount(line_mask);
	movzwl	%cx, %edi	# _14, _14
	call	__popcountdi2@PLT	#
# src/../include/Board.hpp:168:         bumpiness += abs(prev_height - height);
	movl	32(%rsp), %r13d	# %sfp, _110
# src/../include/Board.hpp:177:     return params[0]*aggregate_height +
	movq	104(%rsp), %r11	# %sfp, params
# src/../include/Board.hpp:180:         params[3]*bumpiness;
	pxor	%xmm0, %xmm0	# tmp445
# src/../include/Board.hpp:168:         bumpiness += abs(prev_height - height);
	movl	24(%rsp), %r12d	# %sfp, _40
	movl	36(%rsp), %edx	# %sfp, _171
# src/../include/Board.hpp:178:         params[1]*destroyed +
	pxor	%xmm2, %xmm2	# tmp474
# src/../include/Board.hpp:177:     return params[0]*aggregate_height +
	movq	(%r11), %r10	# MEM[(double * *)params_61(D)], _66
# src/../include/Board.hpp:168:         bumpiness += abs(prev_height - height);
	movl	%r13d, %r11d	# _110, tmp398
	movl	96(%rsp), %esi	# %sfp, _239
# src/../include/Board.hpp:178:         params[1]*destroyed +
	cvtsi2sd	%eax, %xmm2	# tmp396, tmp474
# src/../include/Board.hpp:168:         bumpiness += abs(prev_height - height);
	subl	%r12d, %r11d	# _40, tmp398
	subl	%edx, %r12d	# _171, _40
	movl	100(%rsp), %r8d	# %sfp, _205
	movl	92(%rsp), %r9d	# %sfp, _273
	movl	%r11d, %edi	# tmp398, tmp398
# src/../include/Board.hpp:168:         bumpiness += abs(prev_height - height);
	sarl	$31, %r11d	#, tmp399
# src/../include/Board.hpp:180:         params[3]*bumpiness;
	movsd	24(%r10), %xmm1	# MEM[(const value_type &)_66 + 24], tmp445
# src/../include/Board.hpp:168:         bumpiness += abs(prev_height - height);
	xorl	%r11d, %edi	# tmp399, tmp400
	movl	%r11d, %ecx	# tmp399, tmp399
	movl	%edi, %r11d	# tmp400, tmp400
	subl	%ecx, %r11d	# tmp399, tmp400
# src/../include/Board.hpp:168:         bumpiness += abs(prev_height - height);
	movl	%r12d, %ecx	# _40, tmp402
# src/../include/Board.hpp:168:         bumpiness += abs(prev_height - height);
	sarl	$31, %r12d	#, tmp403
	xorl	%r12d, %ecx	# tmp403, tmp404
	subl	%r12d, %ecx	# tmp403, tmp405
# src/../include/Board.hpp:168:         bumpiness += abs(prev_height - height);
	leal	(%r11,%rcx), %edi	#, tmp406
# src/../include/Board.hpp:168:         bumpiness += abs(prev_height - height);
	movl	%edx, %r11d	# _171, _171
	movl	88(%rsp), %edx	# %sfp, _307
	subl	%r8d, %r11d	# _205, _171
	subl	%esi, %r8d	# _239, tmp412
	subl	%r9d, %esi	# _273, tmp417
	movl	%r11d, %ecx	# _171, tmp407
# src/../include/Board.hpp:168:         bumpiness += abs(prev_height - height);
	sarl	$31, %r11d	#, tmp408
# src/../include/Board.hpp:168:         bumpiness += abs(prev_height - height);
	subl	%edx, %r9d	# _307, tmp422
	subl	%ebp, %edx	# _341, tmp427
# src/../include/Board.hpp:168:         bumpiness += abs(prev_height - height);
	xorl	%r11d, %ecx	# tmp408, tmp409
	subl	%r11d, %ecx	# tmp408, tmp410
	movl	%r8d, %r11d	# tmp412, tmp413
	sarl	$31, %r11d	#, tmp413
# src/../include/Board.hpp:168:         bumpiness += abs(prev_height - height);
	addl	%ecx, %edi	# tmp410, tmp411
# src/../include/Board.hpp:168:         bumpiness += abs(prev_height - height);
	movzwl	%bx, %ecx	# _73, _73
# src/../include/Board.hpp:168:         bumpiness += abs(prev_height - height);
	xorl	%r11d, %r8d	# tmp413, tmp414
# src/../include/Board.hpp:168:         bumpiness += abs(prev_height - height);
	subl	%ecx, %ebp	# _73, tmp433
# src/../include/Board.hpp:168:         bumpiness += abs(prev_height - height);
	subl	%r11d, %r8d	# tmp413, tmp415
	movl	%esi, %r11d	# tmp417, tmp418
	sarl	$31, %r11d	#, tmp418
# src/../include/Board.hpp:168:         bumpiness += abs(prev_height - height);
	addl	%r8d, %edi	# tmp415, tmp416
# src/../include/Board.hpp:168:         bumpiness += abs(prev_height - height);
	xorl	%r11d, %esi	# tmp418, tmp419
	subl	%r11d, %esi	# tmp418, tmp420
	movl	%r9d, %r11d	# tmp422, tmp423
	sarl	$31, %r11d	#, tmp423
# src/../include/Board.hpp:168:         bumpiness += abs(prev_height - height);
	addl	%edi, %esi	# tmp416, tmp421
# src/../include/Board.hpp:168:         bumpiness += abs(prev_height - height);
	xorl	%r11d, %r9d	# tmp423, tmp424
	subl	%r11d, %r9d	# tmp423, tmp425
	movl	%edx, %r11d	# tmp427, tmp428
	sarl	$31, %r11d	#, tmp428
# src/../include/Board.hpp:168:         bumpiness += abs(prev_height - height);
	leal	(%rsi,%r9), %edi	#, tmp426
# src/../include/Board.hpp:168:         bumpiness += abs(prev_height - height);
	xorl	%r11d, %edx	# tmp428, tmp429
	subl	%r11d, %edx	# tmp428, tmp430
	movl	%ebp, %r11d	# tmp433, tmp434
	sarl	$31, %r11d	#, tmp434
# src/../include/Board.hpp:168:         bumpiness += abs(prev_height - height);
	addl	%edi, %edx	# tmp426, tmp431
# src/../include/Board.hpp:168:         bumpiness += abs(prev_height - height);
	xorl	%r11d, %ebp	# tmp434, tmp435
	subl	%r11d, %ebp	# tmp434, tmp436
# src/../include/Board.hpp:168:         bumpiness += abs(prev_height - height);
	addl	%edx, %ebp	# tmp431, tmp437
# src/../include/Board.hpp:168:         bumpiness += abs(prev_height - height);
	movzwl	30(%rsp), %edx	# %sfp,
	movl	%edx, %esi	#,
	subl	%r13d, %edx	# _110, tmp439
# src/../include/Board.hpp:168:         bumpiness += abs(prev_height - height);
	movl	%edx, %r11d	# tmp439, tmp440
	sarl	$31, %r11d	#, tmp440
# src/../include/Board.hpp:165:         holes += height - __builtin_popcount(col);
	subw	44(%rsp), %si	# %sfp, _47
# src/../include/Board.hpp:168:         bumpiness += abs(prev_height - height);
	xorl	%r11d, %edx	# tmp440, tmp441
	subl	%r11d, %edx	# tmp440, tmp442
# src/../include/Board.hpp:168:         bumpiness += abs(prev_height - height);
	addl	%ebp, %edx	# tmp437, bumpiness
# src/../include/Board.hpp:180:         params[3]*bumpiness;
	movzwl	%dx, %edx	# bumpiness, bumpiness
	cvtsi2sd	%edx, %xmm0	# bumpiness, tmp445
# src/../include/Board.hpp:165:         holes += height - __builtin_popcount(col);
	movzwl	16(%rsp), %edx	# %sfp, tmp447
	addl	%esi, %edx	# _47, tmp447
	subw	48(%rsp), %dx	# %sfp, tmp449
	addw	14(%rsp), %dx	# %sfp, tmp450
	subw	52(%rsp), %dx	# %sfp, tmp451
	addw	18(%rsp), %dx	# %sfp, tmp452
# src/../include/Board.hpp:180:         params[3]*bumpiness;
	mulsd	%xmm0, %xmm1	# tmp445, tmp445
# src/../include/Board.hpp:165:         holes += height - __builtin_popcount(col);
	subw	56(%rsp), %dx	# %sfp, tmp453
	addw	20(%rsp), %dx	# %sfp, tmp454
	subw	60(%rsp), %dx	# %sfp, tmp455
	addw	22(%rsp), %dx	# %sfp, tmp456
# src/../include/Board.hpp:179:         params[2]*holes +
	pxor	%xmm0, %xmm0	# tmp467
# src/../include/Board.hpp:165:         holes += height - __builtin_popcount(col);
	subw	64(%rsp), %dx	# %sfp, tmp457
	addw	28(%rsp), %dx	# %sfp, tmp458
	subw	68(%rsp), %dx	# %sfp, tmp459
	addl	%r15d, %edx	# _297, tmp460
	subw	72(%rsp), %dx	# %sfp, tmp461
	addl	%r14d, %edx	# _331, tmp462
	subw	76(%rsp), %dx	# %sfp, tmp463
	addl	%ebx, %edx	# _73, tmp464
	subw	80(%rsp), %dx	# %sfp, holes
# src/../include/Board.hpp:167:         aggregate_height += height;
	addw	40(%rsp), %bx	# %sfp, aggregate_height
# src/../include/Board.hpp:179:         params[2]*holes +
	movzwl	%dx, %edx	# holes, holes
# src/../include/Board.hpp:177:     return params[0]*aggregate_height +
	movzwl	%bx, %ebx	# aggregate_height, aggregate_height
# src/../include/Board.hpp:179:         params[2]*holes +
	cvtsi2sd	%edx, %xmm0	# holes, tmp467
	mulsd	16(%r10), %xmm0	# MEM[(const value_type &)_66 + 16], tmp468
# src/../include/Board.hpp:180:         params[3]*bumpiness;
	addsd	%xmm1, %xmm0	# tmp446, tmp469
# src/../include/Board.hpp:177:     return params[0]*aggregate_height +
	pxor	%xmm1, %xmm1	# tmp472
	cvtsi2sd	%ebx, %xmm1	# aggregate_height, tmp472
	mulsd	(%r10), %xmm1	# MEM[(const value_type &)_66], tmp473
# src/../include/Board.hpp:178:         params[1]*destroyed +
	mulsd	8(%r10), %xmm2	# MEM[(const value_type &)_66 + 8], tmp475
# src/../include/Board.hpp:185: }
	addq	$120, %rsp	#,
	.cfi_def_cfa_offset 56
	popq	%rbx	#
	.cfi_def_cfa_offset 48
	popq	%rbp	#
	.cfi_def_cfa_offset 40
	popq	%r12	#
	.cfi_def_cfa_offset 32
	popq	%r13	#
	.cfi_def_cfa_offset 24
	popq	%r14	#
	.cfi_def_cfa_offset 16
	popq	%r15	#
	.cfi_def_cfa_offset 8
# src/../include/Board.hpp:180:         params[3]*bumpiness;
	addsd	%xmm2, %xmm1	# tmp475, tmp476
	addsd	%xmm1, %xmm0	# tmp476, tmp397
# src/../include/Board.hpp:185: }
	ret	
	.cfi_endproc
.LFE10169:
	.size	_Z26evaluate_board_GA_internetRKSt5arrayItLm10EEiRtRKSt6vectorIdSaIdEE, .-_Z26evaluate_board_GA_internetRKSt5arrayItLm10EEiRtRKSt6vectorIdSaIdEE
	.p2align 4,,15
	.globl	_Z36evaluate_board_GA_internet_no_paramsRKSt5arrayItLm10EERt
	.type	_Z36evaluate_board_GA_internet_no_paramsRKSt5arrayItLm10EERt, @function
_Z36evaluate_board_GA_internet_no_paramsRKSt5arrayItLm10EERt:
.LFB10170:
	.cfi_startproc
	pushq	%r15	#
	.cfi_def_cfa_offset 16
	.cfi_offset 15, -16
	movq	%rdi, %r15	# board, board
	pushq	%r14	#
	.cfi_def_cfa_offset 24
	.cfi_offset 14, -24
	movq	%rsi, %r14	# line_mask, line_mask
	pushq	%r13	#
	.cfi_def_cfa_offset 32
	.cfi_offset 13, -32
	pushq	%r12	#
	.cfi_def_cfa_offset 40
	.cfi_offset 12, -40
	pushq	%rbp	#
	.cfi_def_cfa_offset 48
	.cfi_offset 6, -48
# src/../include/Board.hpp:22:     return static_cast<height_t>(63 - __builtin_clzll(static_cast<unsigned long long>((col << 1) | 1)));
	movl	$63, %ebp	#, tmp311
# src/../include/Board.hpp:188: {
	pushq	%rbx	#
	.cfi_def_cfa_offset 56
	.cfi_offset 3, -56
# src/../include/Board.hpp:22:     return static_cast<height_t>(63 - __builtin_clzll(static_cast<unsigned long long>((col << 1) | 1)));
	movl	%ebp, %ebx	# tmp311, _56
# src/../include/Board.hpp:188: {
	subq	$56, %rsp	#,
	.cfi_def_cfa_offset 112
# src/../include/Board.hpp:198:     height_t prev_height = col_height(board[0]);
	movzwl	(%rdi), %edi	# MEM[(const value_type &)board_52(D)],
# src/../include/Board.hpp:22:     return static_cast<height_t>(63 - __builtin_clzll(static_cast<unsigned long long>((col << 1) | 1)));
	leal	1(%rdi,%rdi), %eax	#, tmp308
# src/../include/Board.hpp:200:     line_mask = board[0];
	movw	%di, (%rsi)	# _1, *line_mask_53(D)
# src/../include/Board.hpp:198:     height_t prev_height = col_height(board[0]);
	movl	%edi, %r13d	#,
# src/../include/Board.hpp:201:     holes += prev_height - __builtin_popcount(board[0]);
	movl	%edi, %edi	# _1, _1
# src/../include/Board.hpp:22:     return static_cast<height_t>(63 - __builtin_clzll(static_cast<unsigned long long>((col << 1) | 1)));
	cltq
	bsrq	%rax, %rax	# tmp309, tmp310
	xorq	$63, %rax	#, tmp310
# src/../include/Board.hpp:22:     return static_cast<height_t>(63 - __builtin_clzll(static_cast<unsigned long long>((col << 1) | 1)));
	subl	%eax, %ebx	# tmp310, _56
# src/../include/Board.hpp:201:     holes += prev_height - __builtin_popcount(board[0]);
	movzwl	%bx, %eax	# _56, _4
	movl	%eax, 8(%rsp)	# _4, %sfp
# src/../include/Board.hpp:201:     holes += prev_height - __builtin_popcount(board[0]);
	call	__popcountdi2@PLT	#
# src/../include/Board.hpp:207:         height_t height = col_height(board[i]);
	movzwl	2(%r15), %edi	# MEM[(const value_type &)board_52(D)],
# src/../include/Board.hpp:22:     return static_cast<height_t>(63 - __builtin_clzll(static_cast<unsigned long long>((col << 1) | 1)));
	movl	%ebp, %esi	# tmp311, _150
# src/../include/Board.hpp:201:     holes += prev_height - __builtin_popcount(board[0]);
	movl	%eax, %r12d	#, tmp314
# src/../include/Board.hpp:22:     return static_cast<height_t>(63 - __builtin_clzll(static_cast<unsigned long long>((col << 1) | 1)));
	leal	1(%rdi,%rdi), %eax	#, tmp317
# src/../include/Board.hpp:207:         height_t height = col_height(board[i]);
	movl	%edi, 12(%rsp)	# _157, %sfp
# src/../include/Board.hpp:209:         holes += height - __builtin_popcount(board[i]);
	movl	%edi, %edi	# _157, _157
# src/../include/Board.hpp:22:     return static_cast<height_t>(63 - __builtin_clzll(static_cast<unsigned long long>((col << 1) | 1)));
	cltq
	bsrq	%rax, %rax	# tmp318, tmp319
	xorq	$63, %rax	#, tmp319
# src/../include/Board.hpp:22:     return static_cast<height_t>(63 - __builtin_clzll(static_cast<unsigned long long>((col << 1) | 1)));
	subl	%eax, %esi	# tmp319, _150
	movzwl	%si, %r9d	# _150,
# src/../include/Board.hpp:208:         aggregate_height += height;
	addl	%r9d, %ebx	# _150, aggregate_height
# src/../include/Board.hpp:209:         holes += height - __builtin_popcount(board[i]);
	movl	%r9d, 16(%rsp)	# _148, %sfp
# src/../include/Board.hpp:209:         holes += height - __builtin_popcount(board[i]);
	call	__popcountdi2@PLT	#
# src/../include/Board.hpp:212:         line_mask &= board[i];
	movl	12(%rsp), %edx	# %sfp, _157
# src/../include/Board.hpp:209:         holes += height - __builtin_popcount(board[i]);
	movl	16(%rsp), %esi	# %sfp, tmp325
# src/../include/Board.hpp:201:     holes += prev_height - __builtin_popcount(board[0]);
	movl	8(%rsp), %ecx	# %sfp, tmp324
# src/../include/Board.hpp:212:         line_mask &= board[i];
	andl	%edx, %r13d	# _157, _137
# src/../include/Board.hpp:209:         holes += height - __builtin_popcount(board[i]);
	subl	%eax, %esi	# tmp323, tmp325
# src/../include/Board.hpp:22:     return static_cast<height_t>(63 - __builtin_clzll(static_cast<unsigned long long>((col << 1) | 1)));
	movl	%ebp, %edx	# tmp311, _116
# src/../include/Board.hpp:212:         line_mask &= board[i];
	movw	%r13w, (%r14)	# _137, *line_mask_53(D)
# src/../include/Board.hpp:207:         height_t height = col_height(board[i]);
	movzwl	4(%r15), %edi	# MEM[(const value_type &)board_52(D) + 4],
# src/../include/Board.hpp:201:     holes += prev_height - __builtin_popcount(board[0]);
	subl	%r12d, %ecx	# tmp314, tmp324
	movl	%ecx, %r12d	# tmp324, tmp324
# src/../include/Board.hpp:22:     return static_cast<height_t>(63 - __builtin_clzll(static_cast<unsigned long long>((col << 1) | 1)));
	leal	1(%rdi,%rdi), %eax	#, tmp328
# src/../include/Board.hpp:207:         height_t height = col_height(board[i]);
	movl	%edi, 20(%rsp)	# _123, %sfp
# src/../include/Board.hpp:209:         holes += height - __builtin_popcount(board[i]);
	movl	%edi, %edi	# _123, _123
# src/../include/Board.hpp:209:         holes += height - __builtin_popcount(board[i]);
	addl	%esi, %r12d	# tmp325, holes
# src/../include/Board.hpp:22:     return static_cast<height_t>(63 - __builtin_clzll(static_cast<unsigned long long>((col << 1) | 1)));
	cltq
	bsrq	%rax, %rax	# tmp329, tmp330
	xorq	$63, %rax	#, tmp330
# src/../include/Board.hpp:22:     return static_cast<height_t>(63 - __builtin_clzll(static_cast<unsigned long long>((col << 1) | 1)));
	subl	%eax, %edx	# tmp330, _116
	movzwl	%dx, %ecx	# _116,
# src/../include/Board.hpp:208:         aggregate_height += height;
	addl	%ecx, %ebx	# _116, aggregate_height
# src/../include/Board.hpp:209:         holes += height - __builtin_popcount(board[i]);
	movl	%ecx, 12(%rsp)	# _114, %sfp
# src/../include/Board.hpp:209:         holes += height - __builtin_popcount(board[i]);
	call	__popcountdi2@PLT	#
# src/../include/Board.hpp:209:         holes += height - __builtin_popcount(board[i]);
	movl	12(%rsp), %edx	# %sfp, tmp335
# src/../include/Board.hpp:22:     return static_cast<height_t>(63 - __builtin_clzll(static_cast<unsigned long long>((col << 1) | 1)));
	movl	%ebp, %r11d	# tmp311, _180
# src/../include/Board.hpp:209:         holes += height - __builtin_popcount(board[i]);
	subl	%eax, %edx	# tmp334, tmp335
# src/../include/Board.hpp:209:         holes += height - __builtin_popcount(board[i]);
	addl	%edx, %r12d	# tmp335, holes
# src/../include/Board.hpp:212:         line_mask &= board[i];
	movl	20(%rsp), %edx	# %sfp, _123
	andl	%edx, %r13d	# _123, _95
	movw	%r13w, (%r14)	# _95, *line_mask_53(D)
# src/../include/Board.hpp:207:         height_t height = col_height(board[i]);
	movzwl	6(%r15), %edi	# MEM[(const value_type &)board_52(D) + 6],
# src/../include/Board.hpp:22:     return static_cast<height_t>(63 - __builtin_clzll(static_cast<unsigned long long>((col << 1) | 1)));
	leal	1(%rdi,%rdi), %eax	#, tmp338
# src/../include/Board.hpp:207:         height_t height = col_height(board[i]);
	movl	%edi, 24(%rsp)	# _3, %sfp
# src/../include/Board.hpp:209:         holes += height - __builtin_popcount(board[i]);
	movl	%edi, %edi	# _3, _3
# src/../include/Board.hpp:22:     return static_cast<height_t>(63 - __builtin_clzll(static_cast<unsigned long long>((col << 1) | 1)));
	cltq
	bsrq	%rax, %rax	# tmp339, tmp340
	xorq	$63, %rax	#, tmp340
# src/../include/Board.hpp:22:     return static_cast<height_t>(63 - __builtin_clzll(static_cast<unsigned long long>((col << 1) | 1)));
	subl	%eax, %r11d	# tmp340, _180
	movzwl	%r11w, %eax	# _180,
# src/../include/Board.hpp:208:         aggregate_height += height;
	addl	%eax, %ebx	# _180, aggregate_height
# src/../include/Board.hpp:209:         holes += height - __builtin_popcount(board[i]);
	movl	%eax, 20(%rsp)	# _182, %sfp
# src/../include/Board.hpp:209:         holes += height - __builtin_popcount(board[i]);
	call	__popcountdi2@PLT	#
# src/../include/Board.hpp:212:         line_mask &= board[i];
	movl	24(%rsp), %r8d	# %sfp, _3
# src/../include/Board.hpp:209:         holes += height - __builtin_popcount(board[i]);
	movl	20(%rsp), %edi	# %sfp, tmp345
# src/../include/Board.hpp:22:     return static_cast<height_t>(63 - __builtin_clzll(static_cast<unsigned long long>((col << 1) | 1)));
	movl	%ebp, %r10d	# tmp311, _214
# src/../include/Board.hpp:212:         line_mask &= board[i];
	andl	%r8d, %r13d	# _3, _193
# src/../include/Board.hpp:209:         holes += height - __builtin_popcount(board[i]);
	subl	%eax, %edi	# tmp344, tmp345
# src/../include/Board.hpp:209:         holes += height - __builtin_popcount(board[i]);
	addl	%edi, %r12d	# tmp345, holes
# src/../include/Board.hpp:212:         line_mask &= board[i];
	movw	%r13w, (%r14)	# _193, *line_mask_53(D)
# src/../include/Board.hpp:207:         height_t height = col_height(board[i]);
	movzwl	8(%r15), %edi	# MEM[(const value_type &)board_52(D) + 8],
# src/../include/Board.hpp:22:     return static_cast<height_t>(63 - __builtin_clzll(static_cast<unsigned long long>((col << 1) | 1)));
	leal	1(%rdi,%rdi), %eax	#, tmp348
# src/../include/Board.hpp:207:         height_t height = col_height(board[i]);
	movl	%edi, 28(%rsp)	# _207, %sfp
# src/../include/Board.hpp:209:         holes += height - __builtin_popcount(board[i]);
	movl	%edi, %edi	# _207, _207
# src/../include/Board.hpp:22:     return static_cast<height_t>(63 - __builtin_clzll(static_cast<unsigned long long>((col << 1) | 1)));
	cltq
	bsrq	%rax, %rax	# tmp349, tmp350
	xorq	$63, %rax	#, tmp350
# src/../include/Board.hpp:22:     return static_cast<height_t>(63 - __builtin_clzll(static_cast<unsigned long long>((col << 1) | 1)));
	subl	%eax, %r10d	# tmp350, _214
	movzwl	%r10w, %eax	# _214,
# src/../include/Board.hpp:208:         aggregate_height += height;
	addl	%eax, %ebx	# _214, aggregate_height
# src/../include/Board.hpp:209:         holes += height - __builtin_popcount(board[i]);
	movl	%eax, 24(%rsp)	# _216, %sfp
# src/../include/Board.hpp:209:         holes += height - __builtin_popcount(board[i]);
	call	__popcountdi2@PLT	#
# src/../include/Board.hpp:212:         line_mask &= board[i];
	movl	28(%rsp), %r8d	# %sfp, _207
# src/../include/Board.hpp:209:         holes += height - __builtin_popcount(board[i]);
	movl	24(%rsp), %r10d	# %sfp, tmp355
# src/../include/Board.hpp:22:     return static_cast<height_t>(63 - __builtin_clzll(static_cast<unsigned long long>((col << 1) | 1)));
	movl	%ebp, %r11d	# tmp311, _248
# src/../include/Board.hpp:212:         line_mask &= board[i];
	andl	%r8d, %r13d	# _207, _227
# src/../include/Board.hpp:209:         holes += height - __builtin_popcount(board[i]);
	subl	%eax, %r10d	# tmp354, tmp355
# src/../include/Board.hpp:212:         line_mask &= board[i];
	movw	%r13w, (%r14)	# _227, *line_mask_53(D)
# src/../include/Board.hpp:207:         height_t height = col_height(board[i]);
	movzwl	10(%r15), %edi	# MEM[(const value_type &)board_52(D) + 10],
# src/../include/Board.hpp:209:         holes += height - __builtin_popcount(board[i]);
	addl	%r10d, %r12d	# tmp355, holes
# src/../include/Board.hpp:22:     return static_cast<height_t>(63 - __builtin_clzll(static_cast<unsigned long long>((col << 1) | 1)));
	leal	1(%rdi,%rdi), %eax	#, tmp358
# src/../include/Board.hpp:207:         height_t height = col_height(board[i]);
	movl	%edi, 32(%rsp)	# _241, %sfp
# src/../include/Board.hpp:209:         holes += height - __builtin_popcount(board[i]);
	movl	%edi, %edi	# _241, _241
# src/../include/Board.hpp:22:     return static_cast<height_t>(63 - __builtin_clzll(static_cast<unsigned long long>((col << 1) | 1)));
	cltq
	bsrq	%rax, %rax	# tmp359, tmp360
	xorq	$63, %rax	#, tmp360
# src/../include/Board.hpp:22:     return static_cast<height_t>(63 - __builtin_clzll(static_cast<unsigned long long>((col << 1) | 1)));
	subl	%eax, %r11d	# tmp360, _248
	movzwl	%r11w, %eax	# _248,
# src/../include/Board.hpp:208:         aggregate_height += height;
	addl	%eax, %ebx	# _248, aggregate_height
# src/../include/Board.hpp:209:         holes += height - __builtin_popcount(board[i]);
	movl	%eax, 28(%rsp)	# _250, %sfp
# src/../include/Board.hpp:209:         holes += height - __builtin_popcount(board[i]);
	call	__popcountdi2@PLT	#
# src/../include/Board.hpp:212:         line_mask &= board[i];
	movl	32(%rsp), %r8d	# %sfp, _241
# src/../include/Board.hpp:209:         holes += height - __builtin_popcount(board[i]);
	movl	28(%rsp), %r11d	# %sfp, tmp365
# src/../include/Board.hpp:212:         line_mask &= board[i];
	andl	%r8d, %r13d	# _241, _261
# src/../include/Board.hpp:209:         holes += height - __builtin_popcount(board[i]);
	subl	%eax, %r11d	# tmp364, tmp365
# src/../include/Board.hpp:22:     return static_cast<height_t>(63 - __builtin_clzll(static_cast<unsigned long long>((col << 1) | 1)));
	movl	%ebp, %r8d	# tmp311, _282
# src/../include/Board.hpp:212:         line_mask &= board[i];
	movw	%r13w, (%r14)	# _261, *line_mask_53(D)
# src/../include/Board.hpp:207:         height_t height = col_height(board[i]);
	movzwl	12(%r15), %edi	# MEM[(const value_type &)board_52(D) + 12],
# src/../include/Board.hpp:209:         holes += height - __builtin_popcount(board[i]);
	addl	%r11d, %r12d	# tmp365, holes
# src/../include/Board.hpp:22:     return static_cast<height_t>(63 - __builtin_clzll(static_cast<unsigned long long>((col << 1) | 1)));
	leal	1(%rdi,%rdi), %eax	#, tmp368
# src/../include/Board.hpp:207:         height_t height = col_height(board[i]);
	movl	%edi, 36(%rsp)	# _275, %sfp
# src/../include/Board.hpp:209:         holes += height - __builtin_popcount(board[i]);
	movl	%edi, %edi	# _275, _275
# src/../include/Board.hpp:22:     return static_cast<height_t>(63 - __builtin_clzll(static_cast<unsigned long long>((col << 1) | 1)));
	cltq
	bsrq	%rax, %rax	# tmp369, tmp370
	xorq	$63, %rax	#, tmp370
# src/../include/Board.hpp:22:     return static_cast<height_t>(63 - __builtin_clzll(static_cast<unsigned long long>((col << 1) | 1)));
	subl	%eax, %r8d	# tmp370, _282
	movzwl	%r8w, %eax	# _282,
# src/../include/Board.hpp:208:         aggregate_height += height;
	addl	%eax, %ebx	# _282, aggregate_height
# src/../include/Board.hpp:209:         holes += height - __builtin_popcount(board[i]);
	movl	%eax, 32(%rsp)	# _284, %sfp
# src/../include/Board.hpp:209:         holes += height - __builtin_popcount(board[i]);
	call	__popcountdi2@PLT	#
# src/../include/Board.hpp:209:         holes += height - __builtin_popcount(board[i]);
	movl	32(%rsp), %r8d	# %sfp, tmp375
# src/../include/Board.hpp:22:     return static_cast<height_t>(63 - __builtin_clzll(static_cast<unsigned long long>((col << 1) | 1)));
	movl	%ebp, %r10d	# tmp311, _316
# src/../include/Board.hpp:209:         holes += height - __builtin_popcount(board[i]);
	subl	%eax, %r8d	# tmp374, tmp375
# src/../include/Board.hpp:209:         holes += height - __builtin_popcount(board[i]);
	addl	%r8d, %r12d	# tmp375, holes
# src/../include/Board.hpp:212:         line_mask &= board[i];
	movl	36(%rsp), %r8d	# %sfp, _275
	andl	%r8d, %r13d	# _275, _295
	movw	%r13w, (%r14)	# _295, *line_mask_53(D)
# src/../include/Board.hpp:207:         height_t height = col_height(board[i]);
	movzwl	14(%r15), %edi	# MEM[(const value_type &)board_52(D) + 14],
# src/../include/Board.hpp:22:     return static_cast<height_t>(63 - __builtin_clzll(static_cast<unsigned long long>((col << 1) | 1)));
	leal	1(%rdi,%rdi), %eax	#, tmp378
# src/../include/Board.hpp:207:         height_t height = col_height(board[i]);
	movl	%edi, 40(%rsp)	# _309, %sfp
# src/../include/Board.hpp:209:         holes += height - __builtin_popcount(board[i]);
	movl	%edi, %edi	# _309, _309
# src/../include/Board.hpp:22:     return static_cast<height_t>(63 - __builtin_clzll(static_cast<unsigned long long>((col << 1) | 1)));
	cltq
	bsrq	%rax, %rax	# tmp379, tmp380
	xorq	$63, %rax	#, tmp380
# src/../include/Board.hpp:22:     return static_cast<height_t>(63 - __builtin_clzll(static_cast<unsigned long long>((col << 1) | 1)));
	subl	%eax, %r10d	# tmp380, _316
	movzwl	%r10w, %eax	# _316,
# src/../include/Board.hpp:208:         aggregate_height += height;
	addl	%eax, %ebx	# _316, aggregate_height
# src/../include/Board.hpp:209:         holes += height - __builtin_popcount(board[i]);
	movl	%eax, 36(%rsp)	# _318, %sfp
# src/../include/Board.hpp:209:         holes += height - __builtin_popcount(board[i]);
	call	__popcountdi2@PLT	#
# src/../include/Board.hpp:212:         line_mask &= board[i];
	movl	40(%rsp), %r8d	# %sfp, _309
# src/../include/Board.hpp:209:         holes += height - __builtin_popcount(board[i]);
	movl	36(%rsp), %r10d	# %sfp, tmp385
# src/../include/Board.hpp:212:         line_mask &= board[i];
	andl	%r13d, %r8d	# _295, _329
# src/../include/Board.hpp:209:         holes += height - __builtin_popcount(board[i]);
	subl	%eax, %r10d	# tmp384, tmp385
# src/../include/Board.hpp:22:     return static_cast<height_t>(63 - __builtin_clzll(static_cast<unsigned long long>((col << 1) | 1)));
	movl	%ebp, %r13d	# tmp311, _350
# src/../include/Board.hpp:212:         line_mask &= board[i];
	movw	%r8w, (%r14)	# _329, *line_mask_53(D)
# src/../include/Board.hpp:209:         holes += height - __builtin_popcount(board[i]);
	addl	%r10d, %r12d	# tmp385, holes
# src/../include/Board.hpp:212:         line_mask &= board[i];
	movl	%r8d, 44(%rsp)	# _329, %sfp
# src/../include/Board.hpp:207:         height_t height = col_height(board[i]);
	movzwl	16(%r15), %edi	# MEM[(const value_type &)board_52(D) + 16],
# src/../include/Board.hpp:22:     return static_cast<height_t>(63 - __builtin_clzll(static_cast<unsigned long long>((col << 1) | 1)));
	leal	1(%rdi,%rdi), %eax	#, tmp388
# src/../include/Board.hpp:207:         height_t height = col_height(board[i]);
	movl	%edi, 40(%rsp)	# _343, %sfp
# src/../include/Board.hpp:209:         holes += height - __builtin_popcount(board[i]);
	movl	%edi, %edi	# _343, _343
# src/../include/Board.hpp:22:     return static_cast<height_t>(63 - __builtin_clzll(static_cast<unsigned long long>((col << 1) | 1)));
	cltq
	bsrq	%rax, %rax	# tmp389, tmp390
	xorq	$63, %rax	#, tmp390
# src/../include/Board.hpp:22:     return static_cast<height_t>(63 - __builtin_clzll(static_cast<unsigned long long>((col << 1) | 1)));
	subl	%eax, %r13d	# tmp390, _350
# src/../include/Board.hpp:209:         holes += height - __builtin_popcount(board[i]);
	call	__popcountdi2@PLT	#
# src/../include/Board.hpp:212:         line_mask &= board[i];
	movl	40(%rsp), %edx	# %sfp, _343
	movl	44(%rsp), %r8d	# %sfp, _329
# src/../include/Board.hpp:208:         aggregate_height += height;
	addl	%r13d, %ebx	# _350, aggregate_height
# src/../include/Board.hpp:209:         holes += height - __builtin_popcount(board[i]);
	movzwl	%r13w, %r13d	# _350, _352
# src/../include/Board.hpp:212:         line_mask &= board[i];
	andl	%edx, %r8d	# _343, _363
# src/../include/Board.hpp:209:         holes += height - __builtin_popcount(board[i]);
	movl	%r13d, %r11d	# _352, tmp395
# src/../include/Board.hpp:212:         line_mask &= board[i];
	movw	%r8w, (%r14)	# _363, *line_mask_53(D)
# src/../include/Board.hpp:207:         height_t height = col_height(board[i]);
	movzwl	18(%r15), %edi	# MEM[(const value_type &)board_52(D) + 18],
# src/../include/Board.hpp:209:         holes += height - __builtin_popcount(board[i]);
	subl	%eax, %r11d	# tmp394, tmp395
# src/../include/Board.hpp:209:         holes += height - __builtin_popcount(board[i]);
	addl	%r11d, %r12d	# tmp395, holes
# src/../include/Board.hpp:212:         line_mask &= board[i];
	movl	%r8d, 40(%rsp)	# _363, %sfp
# src/../include/Board.hpp:22:     return static_cast<height_t>(63 - __builtin_clzll(static_cast<unsigned long long>((col << 1) | 1)));
	leal	1(%rdi,%rdi), %eax	#, tmp398
# src/../include/Board.hpp:207:         height_t height = col_height(board[i]);
	movl	%edi, %r15d	#,
# src/../include/Board.hpp:209:         holes += height - __builtin_popcount(board[i]);
	movl	%edi, %edi	# _11, _11
# src/../include/Board.hpp:22:     return static_cast<height_t>(63 - __builtin_clzll(static_cast<unsigned long long>((col << 1) | 1)));
	cltq
	bsrq	%rax, %rax	# tmp399, tmp400
	xorq	$63, %rax	#, tmp400
# src/../include/Board.hpp:22:     return static_cast<height_t>(63 - __builtin_clzll(static_cast<unsigned long long>((col << 1) | 1)));
	subl	%eax, %ebp	# tmp400, _81
# src/../include/Board.hpp:209:         holes += height - __builtin_popcount(board[i]);
	call	__popcountdi2@PLT	#
# src/../include/Board.hpp:208:         aggregate_height += height;
	addl	%ebp, %ebx	# _81, aggregate_height
# src/../include/Board.hpp:210:         bumpiness += abs(prev_height - height);
	movl	16(%rsp), %r9d	# %sfp, _148
# src/../include/Board.hpp:209:         holes += height - __builtin_popcount(board[i]);
	movzwl	%bp, %ebp	# _81, _13
# src/../include/Board.hpp:210:         bumpiness += abs(prev_height - height);
	movl	12(%rsp), %ecx	# %sfp, _114
# src/../include/Board.hpp:209:         holes += height - __builtin_popcount(board[i]);
	movl	%ebp, %r11d	# _13, tmp405
# src/../include/Board.hpp:210:         bumpiness += abs(prev_height - height);
	movl	20(%rsp), %esi	# %sfp, _182
# src/../include/Board.hpp:209:         holes += height - __builtin_popcount(board[i]);
	subl	%eax, %r11d	# tmp404, tmp405
# src/../include/Board.hpp:210:         bumpiness += abs(prev_height - height);
	movl	%r9d, %eax	# _148, tmp406
# src/../include/Board.hpp:212:         line_mask &= board[i];
	movl	40(%rsp), %r8d	# %sfp, _363
# src/../include/Board.hpp:210:         bumpiness += abs(prev_height - height);
	subl	%ecx, %eax	# _114, tmp406
	subl	%esi, %ecx	# _182, _114
# src/../include/Board.hpp:209:         holes += height - __builtin_popcount(board[i]);
	addl	%r11d, %r12d	# tmp405, holes
# src/../include/Board.hpp:210:         bumpiness += abs(prev_height - height);
	cltd
	movl	%ecx, %edi	# tmp410, tmp411
	xorl	%edx, %eax	# tmp407, tmp408
	sarl	$31, %edi	#, tmp411
	subl	%edx, %eax	# tmp407, tmp409
# src/../include/Board.hpp:210:         bumpiness += abs(prev_height - height);
	movl	%ecx, %edx	# _114, tmp410
	movl	24(%rsp), %ecx	# %sfp, _216
# src/../include/Board.hpp:210:         bumpiness += abs(prev_height - height);
	xorl	%edi, %edx	# tmp411, tmp412
# src/../include/Board.hpp:210:         bumpiness += abs(prev_height - height);
	subl	%ecx, %esi	# _216, _182
# src/../include/Board.hpp:210:         bumpiness += abs(prev_height - height);
	subl	%edi, %edx	# tmp411, tmp413
# src/../include/Board.hpp:210:         bumpiness += abs(prev_height - height);
	addl	%eax, %edx	# tmp409, tmp414
# src/../include/Board.hpp:210:         bumpiness += abs(prev_height - height);
	movl	%esi, %eax	# tmp415, tmp416
# src/../include/Board.hpp:210:         bumpiness += abs(prev_height - height);
	movl	%esi, %edi	# _182, tmp415
	movl	%ecx, %esi	# _216, _216
# src/../include/Board.hpp:210:         bumpiness += abs(prev_height - height);
	sarl	$31, %eax	#, tmp416
# src/../include/Board.hpp:210:         bumpiness += abs(prev_height - height);
	movl	28(%rsp), %ecx	# %sfp, _250
# src/../include/Board.hpp:210:         bumpiness += abs(prev_height - height);
	xorl	%eax, %edi	# tmp416, tmp417
# src/../include/Board.hpp:210:         bumpiness += abs(prev_height - height);
	subl	%ecx, %esi	# _250, _216
# src/../include/Board.hpp:210:         bumpiness += abs(prev_height - height);
	subl	%eax, %edi	# tmp416, tmp418
# src/../include/Board.hpp:210:         bumpiness += abs(prev_height - height);
	leal	(%rdx,%rdi), %eax	#, tmp419
# src/../include/Board.hpp:210:         bumpiness += abs(prev_height - height);
	movl	%esi, %edx	# tmp420, tmp421
	sarl	$31, %edx	#, tmp421
	xorl	%edx, %esi	# tmp421, tmp422
	subl	%edx, %esi	# tmp421, tmp423
# src/../include/Board.hpp:210:         bumpiness += abs(prev_height - height);
	movl	32(%rsp), %edx	# %sfp, _284
# src/../include/Board.hpp:210:         bumpiness += abs(prev_height - height);
	leal	(%rax,%rsi), %edi	#, tmp424
# src/../include/Board.hpp:210:         bumpiness += abs(prev_height - height);
	subl	%edx, %ecx	# _284, _250
# src/../include/Board.hpp:210:         bumpiness += abs(prev_height - height);
	movl	%ecx, %eax	# tmp425, tmp426
	sarl	$31, %eax	#, tmp426
	xorl	%eax, %ecx	# tmp426, tmp427
# src/../include/Board.hpp:212:         line_mask &= board[i];
	andl	%r15d, %r8d	# _11, _22
# src/../include/Board.hpp:210:         bumpiness += abs(prev_height - height);
	subl	%eax, %ecx	# tmp426, tmp428
# src/../include/Board.hpp:212:         line_mask &= board[i];
	movw	%r8w, (%r14)	# _22, *line_mask_53(D)
# src/../include/Board.hpp:210:         bumpiness += abs(prev_height - height);
	leal	(%rdi,%rcx), %esi	#, tmp429
# src/../include/Board.hpp:210:         bumpiness += abs(prev_height - height);
	movl	36(%rsp), %edi	# %sfp, _318
	subl	%edi, %edx	# _318, _284
# src/../include/Board.hpp:210:         bumpiness += abs(prev_height - height);
	movl	%edx, %eax	# tmp430, tmp431
	sarl	$31, %eax	#, tmp431
	xorl	%eax, %edx	# tmp431, tmp432
	subl	%eax, %edx	# tmp431, tmp433
# src/../include/Board.hpp:210:         bumpiness += abs(prev_height - height);
	movl	%edi, %eax	# _318, _318
# src/../include/Board.hpp:218:     int destroyed = __builtin_popcount(line_mask);
	movzwl	%r8w, %edi	# _22, _22
# src/../include/Board.hpp:210:         bumpiness += abs(prev_height - height);
	subl	%r13d, %eax	# _352, _318
# src/../include/Board.hpp:210:         bumpiness += abs(prev_height - height);
	leal	(%rsi,%rdx), %ecx	#, tmp434
# src/../include/Board.hpp:210:         bumpiness += abs(prev_height - height);
	subl	%ebp, %r13d	# _13, tmp440
	movl	8(%rsp), %ebp	# %sfp, _4
# src/../include/Board.hpp:210:         bumpiness += abs(prev_height - height);
	cltd
	xorl	%edx, %eax	# tmp436, tmp437
# src/../include/Board.hpp:210:         bumpiness += abs(prev_height - height);
	subl	%r9d, %ebp	# _148, _4
# src/../include/Board.hpp:210:         bumpiness += abs(prev_height - height);
	subl	%edx, %eax	# tmp436, tmp438
# src/../include/Board.hpp:210:         bumpiness += abs(prev_height - height);
	leal	(%rcx,%rax), %edx	#, tmp439
# src/../include/Board.hpp:210:         bumpiness += abs(prev_height - height);
	movl	%r13d, %eax	# tmp440, tmp441
	sarl	$31, %eax	#, tmp441
	xorl	%eax, %r13d	# tmp441, tmp442
	subl	%eax, %r13d	# tmp441, tmp443
# src/../include/Board.hpp:210:         bumpiness += abs(prev_height - height);
	leal	(%rdx,%r13), %eax	#, tmp444
# src/../include/Board.hpp:210:         bumpiness += abs(prev_height - height);
	movl	%ebp, %edx	# tmp445, tmp446
	sarl	$31, %edx	#, tmp446
	xorl	%edx, %ebp	# tmp446, tmp447
	subl	%edx, %ebp	# tmp446, tmp448
# src/../include/Board.hpp:210:         bumpiness += abs(prev_height - height);
	addl	%eax, %ebp	# tmp444, bumpiness
# src/../include/Board.hpp:218:     int destroyed = __builtin_popcount(line_mask);
	call	__popcountdi2@PLT	#
	movl	%eax, %r13d	#, destroyed
# src/../include/Board.hpp:220:     static const std::vector<double> params{-7.41268024719615503670411271741613745689392089843750, 9.55321583886473035818198695778846740722656250000000, -9.36675059128709897038334020180627703666687011718750, -3.28542000457770644317179176141507923603057861328125, };
	movzbl	_ZGVZ36evaluate_board_GA_internet_no_paramsRKSt5arrayItLm10EERtE6params(%rip), %eax	#, _25
	testb	%al, %al	# _25
	je	.L29	#,
.L23:
# src/../include/Board.hpp:222:     return params[0]*aggregate_height +
	movzwl	%bx, %ebx	# aggregate_height, aggregate_height
	pxor	%xmm0, %xmm0	# tmp465
# src/../include/Board.hpp:223:         params[1]*destroyed +
	pxor	%xmm1, %xmm1	# tmp467
# src/../include/Board.hpp:224:         params[2]*holes +
	movzwl	%r12w, %r12d	# holes, holes
# src/../include/Board.hpp:222:     return params[0]*aggregate_height +
	movq	_ZZ36evaluate_board_GA_internet_no_paramsRKSt5arrayItLm10EERtE6params(%rip), %rax	# MEM[(double * *)&params], _75
# src/../include/Board.hpp:222:     return params[0]*aggregate_height +
	cvtsi2sd	%ebx, %xmm0	# aggregate_height, tmp465
# src/../include/Board.hpp:225:         params[3]*bumpiness;
	movzwl	%bp, %ebp	# bumpiness, bumpiness
	pxor	%xmm2, %xmm2	# tmp474
# src/../include/Board.hpp:223:         params[1]*destroyed +
	cvtsi2sd	%r13d, %xmm1	# destroyed, tmp467
# src/../include/Board.hpp:222:     return params[0]*aggregate_height +
	mulsd	(%rax), %xmm0	# MEM[(const value_type &)_75], tmp466
# src/../include/Board.hpp:225:         params[3]*bumpiness;
	cvtsi2sd	%ebp, %xmm2	# bumpiness, tmp474
# src/../include/Board.hpp:223:         params[1]*destroyed +
	mulsd	8(%rax), %xmm1	# MEM[(const value_type &)_75 + 8], tmp468
# src/../include/Board.hpp:225:         params[3]*bumpiness;
	mulsd	24(%rax), %xmm2	# MEM[(const value_type &)_75 + 24], tmp475
# src/../include/Board.hpp:225:         params[3]*bumpiness;
	addsd	%xmm1, %xmm0	# tmp468, tmp469
# src/../include/Board.hpp:224:         params[2]*holes +
	pxor	%xmm1, %xmm1	# tmp471
	cvtsi2sd	%r12d, %xmm1	# holes, tmp471
	mulsd	16(%rax), %xmm1	# MEM[(const value_type &)_75 + 16], tmp472
# src/../include/Board.hpp:229: }
	addq	$56, %rsp	#,
	.cfi_remember_state
	.cfi_def_cfa_offset 56
	popq	%rbx	#
	.cfi_def_cfa_offset 48
	popq	%rbp	#
	.cfi_def_cfa_offset 40
	popq	%r12	#
	.cfi_def_cfa_offset 32
	popq	%r13	#
	.cfi_def_cfa_offset 24
	popq	%r14	#
	.cfi_def_cfa_offset 16
	popq	%r15	#
	.cfi_def_cfa_offset 8
# src/../include/Board.hpp:225:         params[3]*bumpiness;
	addsd	%xmm2, %xmm1	# tmp475, tmp476
	addsd	%xmm1, %xmm0	# tmp476, tmp463
# src/../include/Board.hpp:229: }
	ret	
	.p2align 4,,10
	.p2align 3
.L29:
	.cfi_restore_state
# src/../include/Board.hpp:220:     static const std::vector<double> params{-7.41268024719615503670411271741613745689392089843750, 9.55321583886473035818198695778846740722656250000000, -9.36675059128709897038334020180627703666687011718750, -3.28542000457770644317179176141507923603057861328125, };
	leaq	_ZGVZ36evaluate_board_GA_internet_no_paramsRKSt5arrayItLm10EERtE6params(%rip), %rdi	#,
	call	__cxa_guard_acquire@PLT	#
	testl	%eax, %eax	# _26
	je	.L23	#,
# /usr/include/c++/8/bits/stl_vector.h:100: 	: _Tp_alloc_type(__a), _M_start(), _M_finish(), _M_end_of_storage()
	pxor	%xmm0, %xmm0	# tmp453
# /usr/include/c++/8/ext/new_allocator.h:111: 	return static_cast<_Tp*>(::operator new(__n * sizeof(_Tp)));
	movl	$32, %edi	#,
# /usr/include/c++/8/bits/stl_vector.h:100: 	: _Tp_alloc_type(__a), _M_start(), _M_finish(), _M_end_of_storage()
	movq	$0, 16+_ZZ36evaluate_board_GA_internet_no_paramsRKSt5arrayItLm10EERtE6params(%rip)	#, MEM[(struct _Vector_impl *)&params]._M_end_of_storage
	movaps	%xmm0, _ZZ36evaluate_board_GA_internet_no_paramsRKSt5arrayItLm10EERtE6params(%rip)	# tmp453, MEM[(double * *)&params]
# /usr/include/c++/8/ext/new_allocator.h:111: 	return static_cast<_Tp*>(::operator new(__n * sizeof(_Tp)));
	call	_Znwm@PLT	#
# /usr/include/c++/8/bits/stl_algobase.h:368: 	    __builtin_memmove(__result, __first, sizeof(_Tp) * _Num);
	movdqa	._98(%rip), %xmm3	# MEM[(void *)&._98], tmp526
	movdqa	16+._98(%rip), %xmm4	# MEM[(void *)&._98], tmp527
# src/../include/Board.hpp:220:     static const std::vector<double> params{-7.41268024719615503670411271741613745689392089843750, 9.55321583886473035818198695778846740722656250000000, -9.36675059128709897038334020180627703666687011718750, -3.28542000457770644317179176141507923603057861328125, };
	leaq	_ZGVZ36evaluate_board_GA_internet_no_paramsRKSt5arrayItLm10EERtE6params(%rip), %rdi	#,
# /usr/include/c++/8/bits/stl_vector.h:1467: 	  this->_M_impl._M_end_of_storage = this->_M_impl._M_start + __n;
	leaq	32(%rax), %rdx	#, _92
# /usr/include/c++/8/bits/stl_vector.h:1466: 	  this->_M_impl._M_start = this->_M_allocate(__n);
	movq	%rax, _ZZ36evaluate_board_GA_internet_no_paramsRKSt5arrayItLm10EERtE6params(%rip)	# tmp455, params.D.63468._M_impl._M_start
# /usr/include/c++/8/bits/stl_algobase.h:368: 	    __builtin_memmove(__result, __first, sizeof(_Tp) * _Num);
	movups	%xmm3, (%rax)	# tmp526, MEM[(void *)_94]
	movups	%xmm4, 16(%rax)	# tmp527, MEM[(void *)_94]
# /usr/include/c++/8/bits/stl_vector.h:1467: 	  this->_M_impl._M_end_of_storage = this->_M_impl._M_start + __n;
	movq	%rdx, 16+_ZZ36evaluate_board_GA_internet_no_paramsRKSt5arrayItLm10EERtE6params(%rip)	# _92, params.D.63468._M_impl._M_end_of_storage
# /usr/include/c++/8/bits/stl_vector.h:1468: 	  this->_M_impl._M_finish =
	movq	%rdx, 8+_ZZ36evaluate_board_GA_internet_no_paramsRKSt5arrayItLm10EERtE6params(%rip)	# _92, params.D.63468._M_impl._M_finish
# src/../include/Board.hpp:220:     static const std::vector<double> params{-7.41268024719615503670411271741613745689392089843750, 9.55321583886473035818198695778846740722656250000000, -9.36675059128709897038334020180627703666687011718750, -3.28542000457770644317179176141507923603057861328125, };
	call	__cxa_guard_release@PLT	#
	leaq	__dso_handle(%rip), %rdx	#,
	leaq	_ZZ36evaluate_board_GA_internet_no_paramsRKSt5arrayItLm10EERtE6params(%rip), %rsi	#,
	leaq	_ZNSt6vectorIdSaIdEED1Ev(%rip), %rdi	#,
	call	__cxa_atexit@PLT	#
	jmp	.L23	#
	.cfi_endproc
.LFE10170:
	.size	_Z36evaluate_board_GA_internet_no_paramsRKSt5arrayItLm10EERt, .-_Z36evaluate_board_GA_internet_no_paramsRKSt5arrayItLm10EERt
	.section	.text.unlikely,"ax",@progbits
.LCOLDB2:
	.text
.LHOTB2:
	.p2align 4,,15
	.type	_ZZN23gen_functor_array_innerI28find_best_board_tuple_switchvUlvE_7types_tIJPKSt5arrayItLm10EERPS4_S8_RdRKSt6vectorIdSaIdEEEES2_IJ9TetriminoIJ17TetriminoRotationIJtEEEESG_IJSI_SH_IJttEESI_SK_EESL_SG_IJSI_SK_EESM_SG_IJSK_SK_SI_SI_EESG_IJSH_IJEESH_IJtttEEEEEES2_IJSJ_SL_SM_SN_SQ_EESt16integer_sequenceImJLm0ELm1ELm2ELm3ELm4ELm5ELm6EEEEclES1_ENUlRKSt7variantIJSJ_SL_SM_SN_SQ_EEOS6_S8_S8_S9_SE_E5_4_FUNESZ_S10_S8_S8_S9_SE_, @function
_ZZN23gen_functor_array_innerI28find_best_board_tuple_switchvUlvE_7types_tIJPKSt5arrayItLm10EERPS4_S8_RdRKSt6vectorIdSaIdEEEES2_IJ9TetriminoIJ17TetriminoRotationIJtEEEESG_IJSI_SH_IJttEESI_SK_EESL_SG_IJSI_SK_EESM_SG_IJSK_SK_SI_SI_EESG_IJSH_IJEESH_IJtttEEEEEES2_IJSJ_SL_SM_SN_SQ_EESt16integer_sequenceImJLm0ELm1ELm2ELm3ELm4ELm5ELm6EEEEclES1_ENUlRKSt7variantIJSJ_SL_SM_SN_SQ_EEOS6_S8_S8_S9_SE_E5_4_FUNESZ_S10_S8_S8_S9_SE_:
.LFB10407:
	.cfi_startproc
	pushq	%r15	#
	.cfi_def_cfa_offset 16
	.cfi_offset 15, -16
	pushq	%r14	#
	.cfi_def_cfa_offset 24
	.cfi_offset 14, -24
	pushq	%r13	#
	.cfi_def_cfa_offset 32
	.cfi_offset 13, -32
	pushq	%r12	#
	.cfi_def_cfa_offset 40
	.cfi_offset 12, -40
	pushq	%rbp	#
	.cfi_def_cfa_offset 48
	.cfi_offset 6, -48
	pushq	%rbx	#
	.cfi_def_cfa_offset 56
	.cfi_offset 3, -56
	subq	$56, %rsp	#,
	.cfi_def_cfa_offset 112
# /usr/include/c++/8/variant:1355:       if (__v.index() != _Np)
	cmpb	$4, 28(%rdi)	#, MEM[(unsigned char *)_2(D) + 28B]
# src/../include/constexpr_func_arr.hpp:239: 		};
	movq	(%rsi), %r14	# *_3(D), _9
# src/../include/constexpr_func_arr.hpp:233: 				[](variant_t const& vrnt, Args&&... args) noexcept-> Ret
	movq	%rdx, 8(%rsp)	# D.154524, %sfp
	movq	%r8, (%rsp)	# D.154526, %sfp
# /usr/include/c++/8/variant:1355:       if (__v.index() != _Np)
	jne	.L48	#,
	movq	%rdi, %rbx	# D.154522, D.154522
# src/../include/Board.hpp:390:         best_score = -INFINITY;
	movq	.LC1(%rip), %rdi	#, tmp572
	movq	%rcx, %r15	# D.154525, D.154525
# src/../include/Board.hpp:391:         *test_board = *input_board;
	xorl	%ebp, %ebp	# ivtmp.214
	movdqu	(%r14), %xmm3	# *_9, tmp573
# src/../include/Board.hpp:390:         best_score = -INFINITY;
	movq	%rdi, (%r8)	# tmp572, *_6(D)
# src/../include/Board.hpp:391:         *test_board = *input_board;
	movq	(%rcx), %rdi	# MEM[(struct Board * &)_5(D)], prephitmp_846
	movups	%xmm3, (%rdi)	# tmp573, *_12
	movl	16(%r14), %eax	# *_9, *_9
	movl	%eax, 16(%rdi)	# *_9, *_12
# src/../include/Board.hpp:419:                 test_board_score = evaluate_board_GA_internet_no_params(*test_board, line_mask);
	leaq	46(%rsp), %rax	#, tmp560
	movq	%rax, 16(%rsp)	# tmp560, %sfp
	jmp	.L38	#
	.p2align 4,,10
	.p2align 3
.L49:
# src/../include/Board.hpp:108:         board[board_col + i] &= ~(tetrimino_rotation.tet_cols[i] << height);
	movzwl	10(%rbx), %ecx	# MEM[(const value_type &)_2(D) + 10], MEM[(const value_type &)_2(D) + 10]
# src/../include/Board.hpp:430:                     unplace_tetrimino(*test_board, tetrimino_rotation, i, highest_drop_height);
	movq	(%r15), %rdi	# MEM[(struct Board * &)_5(D)], prephitmp_846
# src/../include/Board.hpp:108:         board[board_col + i] &= ~(tetrimino_rotation.tet_cols[i] << height);
	shlx	%r12d, %ecx, %eax	# _140, MEM[(const value_type &)_2(D) + 10], tmp427
# src/../include/Board.hpp:108:         board[board_col + i] &= ~(tetrimino_rotation.tet_cols[i] << height);
	notl	%eax	# tmp428
# src/../include/Board.hpp:108:         board[board_col + i] &= ~(tetrimino_rotation.tet_cols[i] << height);
	andw	%ax, (%rdi,%r13)	# tmp428, *_17
.L33:
	addq	$1, %rbp	#, ivtmp.214
# src/../include/Board.hpp:395:             for (width_t i = 0; i < BLOCKS_W - tetrimino_rotation.tet_cols.size() + 1 ; i++)
	cmpq	$10, %rbp	#, ivtmp.214
	je	.L52	#,
.L38:
	leaq	(%rbp,%rbp), %r13	#, _933
# src/../include/Tetrimino.hpp:18:         return __builtin_ffsll(tet_cols[col]) - 1;
	movzwl	10(%rbx), %r8d	# MEM[(const value_type &)_2(D) + 10],
# src/../include/Board.hpp:22:     return static_cast<height_t>(63 - __builtin_clzll(static_cast<unsigned long long>((col << 1) | 1)));
	movl	$63, %edx	#, _127
	leaq	(%rdi,%r13), %rsi	#, _932
# src/../include/Board.hpp:91:     return static_cast<int>(col_height(board[board_col])) - static_cast<int>(tetrimino_rotation.bottom_empty_spaces(tetrimino_col));
	movzwl	(%rsi), %eax	# *_932,
# src/../include/Tetrimino.hpp:18:         return __builtin_ffsll(tet_cols[col]) - 1;
	movq	%r8, %r9	#,
# src/../include/Board.hpp:91:     return static_cast<int>(col_height(board[board_col])) - static_cast<int>(tetrimino_rotation.bottom_empty_spaces(tetrimino_col));
	movl	%eax, %ecx	#,
# src/../include/Board.hpp:22:     return static_cast<height_t>(63 - __builtin_clzll(static_cast<unsigned long long>((col << 1) | 1)));
	leal	1(%rax,%rax), %eax	#, tmp365
# src/../include/Board.hpp:22:     return static_cast<height_t>(63 - __builtin_clzll(static_cast<unsigned long long>((col << 1) | 1)));
	cltq
	bsrq	%rax, %rax	# tmp366, tmp367
	xorq	$63, %rax	#, tmp367
# src/../include/Board.hpp:22:     return static_cast<height_t>(63 - __builtin_clzll(static_cast<unsigned long long>((col << 1) | 1)));
	subl	%eax, %edx	# tmp367, _127
# src/../include/Tetrimino.hpp:18:         return __builtin_ffsll(tet_cols[col]) - 1;
	bsfq	%r8, %r8	# _129, tmp370
# src/../include/Board.hpp:22:     return static_cast<height_t>(63 - __builtin_clzll(static_cast<unsigned long long>((col << 1) | 1)));
	movzwl	%dx, %r10d	# _127,
# src/../include/Tetrimino.hpp:18:         return __builtin_ffsll(tet_cols[col]) - 1;
	movq	$-1, %rdx	#, tmp576
	cmove	%rdx, %r8	# tmp576,, _133
# src/../include/Board.hpp:22:     return static_cast<height_t>(63 - __builtin_clzll(static_cast<unsigned long long>((col << 1) | 1)));
	movl	%r10d, %eax	#,
# src/../include/Board.hpp:91:     return static_cast<int>(col_height(board[board_col])) - static_cast<int>(tetrimino_rotation.bottom_empty_spaces(tetrimino_col));
	movzwl	%r8w, %r11d	# _133, _133
# src/../include/Board.hpp:91:     return static_cast<int>(col_height(board[board_col])) - static_cast<int>(tetrimino_rotation.bottom_empty_spaces(tetrimino_col));
	subl	%r11d, %r10d	# _133, tmp374
# src/../include/Board.hpp:410:                 if (highest_drop_height + tetrimino_rotation.height - 1 >= BLOCKS_H)
	movzwl	12(%rbx), %r11d	# MEM[(const struct TetriminoRotation &)_2(D) + 10].height, MEM[(const struct TetriminoRotation &)_2(D) + 10].height
	addl	%r11d, %r10d	# MEM[(const struct TetriminoRotation &)_2(D) + 10].height, tmp376
# src/../include/Board.hpp:410:                 if (highest_drop_height + tetrimino_rotation.height - 1 >= BLOCKS_H)
	cmpl	$16, %r10d	#, tmp376
	jg	.L33	#,
# src/../include/Board.hpp:414:                 place_tetrimino(*test_board, tetrimino_rotation, i, highest_drop_height);
	subl	%r8d, %eax	# _133, tmp377
	movzwl	%ax, %r12d	# tmp377, _140
# src/../include/Board.hpp:99:         board[board_col + i] |= static_cast<height_t>(tetrimino_rotation.tet_cols[i] << height);
	shlx	%r12d, %r9d, %r9d	# _140, _129, tmp379
# src/../include/Board.hpp:99:         board[board_col + i] |= static_cast<height_t>(tetrimino_rotation.tet_cols[i] << height);
	orl	%ecx, %r9d	# _120, tmp380
	movw	%r9w, (%rsi)	# tmp380, MEM[(value_type &)_932]
# src/../include/Board.hpp:419:                 test_board_score = evaluate_board_GA_internet_no_params(*test_board, line_mask);
	movq	16(%rsp), %rsi	# %sfp,
	call	_Z36evaluate_board_GA_internet_no_paramsRKSt5arrayItLm10EERt	#
# src/../include/Board.hpp:421:                 if (test_board_score > best_score)
	movq	(%rsp), %rax	# %sfp, D.154526
	comisd	(%rax), %xmm0	# *_6(D), test_board_score
	jbe	.L49	#,
# src/../include/Board.hpp:423:                     best_score = test_board_score;
	movsd	%xmm0, (%rax)	# test_board_score, *_6(D)
# src/../include/Board.hpp:135:     mask =~ mask;
	movzwl	46(%rsp), %edx	# line_mask, mask
# src/../include/Board.hpp:424:                     destroy_lines_internet(*test_board, line_mask);
	movq	(%r15), %rax	# MEM[(struct Board * &)_5(D)], _150
	addq	$1, %rbp	#, ivtmp.214
# /usr/include/c++/8/bits/move.h:194:       __a = _GLIBCXX_MOVE(__b);
	movq	8(%rsp), %rdi	# %sfp, D.154524
# src/../include/Board.hpp:138:         board[i] = static_cast<height_t>(_pext_u32(board[i], mask));
	movzwl	(%rax), %ecx	# MEM[(value_type &)_150], MEM[(value_type &)_150]
# src/../include/Board.hpp:135:     mask =~ mask;
	notl	%edx	# mask
# src/../include/Board.hpp:138:         board[i] = static_cast<height_t>(_pext_u32(board[i], mask));
	movzwl	%dx, %edx	# mask, _519
# /usr/lib/gcc/x86_64-linux-gnu/8/include/bmi2intrin.h:55:   return __builtin_ia32_pext_si (__X, __Y);
	pext	%edx, %ecx, %ecx	# _519, MEM[(value_type &)_150], tmp384
# src/../include/Board.hpp:138:         board[i] = static_cast<height_t>(_pext_u32(board[i], mask));
	movw	%cx, (%rax)	# tmp384, MEM[(value_type &)_150]
# src/../include/Board.hpp:138:         board[i] = static_cast<height_t>(_pext_u32(board[i], mask));
	movzwl	2(%rax), %ecx	# MEM[(value_type &)_150], MEM[(value_type &)_150]
# /usr/lib/gcc/x86_64-linux-gnu/8/include/bmi2intrin.h:55:   return __builtin_ia32_pext_si (__X, __Y);
	pext	%edx, %ecx, %ecx	# _519, MEM[(value_type &)_150], tmp388
# src/../include/Board.hpp:138:         board[i] = static_cast<height_t>(_pext_u32(board[i], mask));
	movw	%cx, 2(%rax)	# tmp388, MEM[(value_type &)_150]
# src/../include/Board.hpp:138:         board[i] = static_cast<height_t>(_pext_u32(board[i], mask));
	movzwl	4(%rax), %ecx	# MEM[(value_type &)_150], MEM[(value_type &)_150]
# /usr/lib/gcc/x86_64-linux-gnu/8/include/bmi2intrin.h:55:   return __builtin_ia32_pext_si (__X, __Y);
	pext	%edx, %ecx, %ecx	# _519, MEM[(value_type &)_150], tmp392
# src/../include/Board.hpp:138:         board[i] = static_cast<height_t>(_pext_u32(board[i], mask));
	movw	%cx, 4(%rax)	# tmp392, MEM[(value_type &)_150]
# src/../include/Board.hpp:138:         board[i] = static_cast<height_t>(_pext_u32(board[i], mask));
	movzwl	6(%rax), %ecx	# MEM[(value_type &)_150], MEM[(value_type &)_150]
# /usr/lib/gcc/x86_64-linux-gnu/8/include/bmi2intrin.h:55:   return __builtin_ia32_pext_si (__X, __Y);
	pext	%edx, %ecx, %ecx	# _519, MEM[(value_type &)_150], tmp396
# src/../include/Board.hpp:138:         board[i] = static_cast<height_t>(_pext_u32(board[i], mask));
	movw	%cx, 6(%rax)	# tmp396, MEM[(value_type &)_150]
# src/../include/Board.hpp:138:         board[i] = static_cast<height_t>(_pext_u32(board[i], mask));
	movzwl	8(%rax), %ecx	# MEM[(value_type &)_150], MEM[(value_type &)_150]
# /usr/lib/gcc/x86_64-linux-gnu/8/include/bmi2intrin.h:55:   return __builtin_ia32_pext_si (__X, __Y);
	pext	%edx, %ecx, %ecx	# _519, MEM[(value_type &)_150], tmp400
# src/../include/Board.hpp:138:         board[i] = static_cast<height_t>(_pext_u32(board[i], mask));
	movw	%cx, 8(%rax)	# tmp400, MEM[(value_type &)_150]
# src/../include/Board.hpp:138:         board[i] = static_cast<height_t>(_pext_u32(board[i], mask));
	movzwl	10(%rax), %ecx	# MEM[(value_type &)_150], MEM[(value_type &)_150]
# /usr/lib/gcc/x86_64-linux-gnu/8/include/bmi2intrin.h:55:   return __builtin_ia32_pext_si (__X, __Y);
	pext	%edx, %ecx, %ecx	# _519, MEM[(value_type &)_150], tmp404
# src/../include/Board.hpp:138:         board[i] = static_cast<height_t>(_pext_u32(board[i], mask));
	movw	%cx, 10(%rax)	# tmp404, MEM[(value_type &)_150]
# src/../include/Board.hpp:138:         board[i] = static_cast<height_t>(_pext_u32(board[i], mask));
	movzwl	12(%rax), %ecx	# MEM[(value_type &)_150], MEM[(value_type &)_150]
# /usr/lib/gcc/x86_64-linux-gnu/8/include/bmi2intrin.h:55:   return __builtin_ia32_pext_si (__X, __Y);
	pext	%edx, %ecx, %ecx	# _519, MEM[(value_type &)_150], tmp408
# src/../include/Board.hpp:138:         board[i] = static_cast<height_t>(_pext_u32(board[i], mask));
	movw	%cx, 12(%rax)	# tmp408, MEM[(value_type &)_150]
# src/../include/Board.hpp:138:         board[i] = static_cast<height_t>(_pext_u32(board[i], mask));
	movzwl	14(%rax), %ecx	# MEM[(value_type &)_150], MEM[(value_type &)_150]
# /usr/lib/gcc/x86_64-linux-gnu/8/include/bmi2intrin.h:55:   return __builtin_ia32_pext_si (__X, __Y);
	pext	%edx, %ecx, %ecx	# _519, MEM[(value_type &)_150], tmp412
# src/../include/Board.hpp:138:         board[i] = static_cast<height_t>(_pext_u32(board[i], mask));
	movw	%cx, 14(%rax)	# tmp412, MEM[(value_type &)_150]
# src/../include/Board.hpp:138:         board[i] = static_cast<height_t>(_pext_u32(board[i], mask));
	movzwl	16(%rax), %ecx	# MEM[(value_type &)_150], MEM[(value_type &)_150]
# /usr/lib/gcc/x86_64-linux-gnu/8/include/bmi2intrin.h:55:   return __builtin_ia32_pext_si (__X, __Y);
	pext	%edx, %ecx, %ecx	# _519, MEM[(value_type &)_150], tmp416
# src/../include/Board.hpp:138:         board[i] = static_cast<height_t>(_pext_u32(board[i], mask));
	movw	%cx, 16(%rax)	# tmp416, MEM[(value_type &)_150]
# src/../include/Board.hpp:138:         board[i] = static_cast<height_t>(_pext_u32(board[i], mask));
	movzwl	18(%rax), %ecx	# MEM[(value_type &)_150], MEM[(value_type &)_150]
# /usr/lib/gcc/x86_64-linux-gnu/8/include/bmi2intrin.h:55:   return __builtin_ia32_pext_si (__X, __Y);
	pext	%edx, %ecx, %edx	# _519, MEM[(value_type &)_150], tmp420
# src/../include/Board.hpp:138:         board[i] = static_cast<height_t>(_pext_u32(board[i], mask));
	movw	%dx, 18(%rax)	# tmp420, MEM[(value_type &)_150]
# /usr/include/c++/8/bits/move.h:194:       __a = _GLIBCXX_MOVE(__b);
	movq	(%rdi), %rdx	# MEM[(struct array * &)_4(D)], _161
# src/../include/Board.hpp:426:                     *test_board = *input_board;
	movdqu	(%r14), %xmm1	# *_9, tmp582
# /usr/include/c++/8/bits/move.h:194:       __a = _GLIBCXX_MOVE(__b);
	movq	%rdx, (%r15)	# _161, *_5(D)
# /usr/include/c++/8/bits/move.h:195:       __b = _GLIBCXX_MOVE(__tmp);
	movq	%rax, (%rdi)	# _150, *_4(D)
# src/../include/Board.hpp:426:                     *test_board = *input_board;
	movq	(%r15), %rdi	# MEM[(struct Board * &)_5(D)], prephitmp_846
	movups	%xmm1, (%rdi)	# tmp582, *_164
	movl	16(%r14), %eax	# *_9, *_9
	movl	%eax, 16(%rdi)	# *_9, *_164
# src/../include/Board.hpp:395:             for (width_t i = 0; i < BLOCKS_W - tetrimino_rotation.tet_cols.size() + 1 ; i++)
	cmpq	$10, %rbp	#, ivtmp.214
	jne	.L38	#,
.L52:
# src/../include/Board.hpp:419:                 test_board_score = evaluate_board_GA_internet_no_params(*test_board, line_mask);
	leaq	46(%rsp), %rax	#, tmp559
# src/../include/Board.hpp:395:             for (width_t i = 0; i < BLOCKS_W - tetrimino_rotation.tet_cols.size() + 1 ; i++)
	movl	$1, %r13d	#, ivtmp.200
# src/../include/Board.hpp:419:                 test_board_score = evaluate_board_GA_internet_no_params(*test_board, line_mask);
	movq	%r14, 24(%rsp)	# _9, %sfp
	movq	%rax, 16(%rsp)	# tmp559, %sfp
	jmp	.L37	#
	.p2align 4,,10
	.p2align 3
.L44:
# src/../include/Board.hpp:395:             for (width_t i = 0; i < BLOCKS_W - tetrimino_rotation.tet_cols.size() + 1 ; i++)
	cmpq	$8, %r13	#, ivtmp.200
	je	.L53	#,
.L37:
	leaq	(%r13,%r13), %r12	#, _495
# src/../include/Tetrimino.hpp:18:         return __builtin_ffsll(tet_cols[col]) - 1;
	movzwl	(%rbx), %ebp	# MEM[(const value_type &)_2(D)],
	movzwl	2(%rbx), %r11d	# MEM[(const value_type &)_2(D)], MEM[(const value_type &)_2(D)]
	movq	$-1, %rsi	#, tmp584
	leaq	(%rdi,%r12), %rdx	#, _472
# src/../include/Board.hpp:22:     return static_cast<height_t>(63 - __builtin_clzll(static_cast<unsigned long long>((col << 1) | 1)));
	movl	$63, %r14d	#, tmp445
# src/../include/Board.hpp:91:     return static_cast<int>(col_height(board[board_col])) - static_cast<int>(tetrimino_rotation.bottom_empty_spaces(tetrimino_col));
	movzwl	-2(%rdx), %eax	# MEM[(const value_type &)_472 + 18446744073709551614],
	movzwl	(%rdx), %r8d	# *_472,
# src/../include/Tetrimino.hpp:18:         return __builtin_ffsll(tet_cols[col]) - 1;
	movq	%rbp, %rcx	#,
# src/../include/Board.hpp:91:     return static_cast<int>(col_height(board[board_col])) - static_cast<int>(tetrimino_rotation.bottom_empty_spaces(tetrimino_col));
	movl	%eax, %r10d	#,
# src/../include/Board.hpp:22:     return static_cast<height_t>(63 - __builtin_clzll(static_cast<unsigned long long>((col << 1) | 1)));
	leal	1(%rax,%rax), %eax	#, tmp431
# src/../include/Board.hpp:91:     return static_cast<int>(col_height(board[board_col])) - static_cast<int>(tetrimino_rotation.bottom_empty_spaces(tetrimino_col));
	movl	%r8d, %r9d	#,
# src/../include/Board.hpp:22:     return static_cast<height_t>(63 - __builtin_clzll(static_cast<unsigned long long>((col << 1) | 1)));
	cltq
# src/../include/Board.hpp:22:     return static_cast<height_t>(63 - __builtin_clzll(static_cast<unsigned long long>((col << 1) | 1)));
	leal	1(%r8,%r8), %r8d	#, tmp439
# src/../include/Board.hpp:22:     return static_cast<height_t>(63 - __builtin_clzll(static_cast<unsigned long long>((col << 1) | 1)));
	bsrq	%rax, %rax	# tmp432, tmp433
	movslq	%r8d, %r8	# tmp439, tmp440
	xorq	$63, %rax	#, tmp433
# src/../include/Tetrimino.hpp:18:         return __builtin_ffsll(tet_cols[col]) - 1;
	bsfq	%rbp, %rbp	# _30, tmp435
	cmove	%rsi, %rbp	# tmp584,, tmp435
# src/../include/Board.hpp:22:     return static_cast<height_t>(63 - __builtin_clzll(static_cast<unsigned long long>((col << 1) | 1)));
	bsrq	%r8, %r8	# tmp440, tmp441
	xorq	$63, %r8	#, tmp441
# src/../include/Tetrimino.hpp:18:         return __builtin_ffsll(tet_cols[col]) - 1;
	bsfq	%r11, %r11	# MEM[(const value_type &)_2(D)], tmp443
	cmove	%rsi, %r11	# tmp585,, tmp443
# src/../include/Board.hpp:22:     return static_cast<height_t>(63 - __builtin_clzll(static_cast<unsigned long long>((col << 1) | 1)));
	subl	%eax, %r14d	# tmp433, tmp445
# src/../include/Board.hpp:91:     return static_cast<int>(col_height(board[board_col])) - static_cast<int>(tetrimino_rotation.bottom_empty_spaces(tetrimino_col));
	movzwl	%bp, %ebp	# tmp435, tmp449
# src/../include/Board.hpp:22:     return static_cast<height_t>(63 - __builtin_clzll(static_cast<unsigned long long>((col << 1) | 1)));
	movzwl	%r14w, %eax	# tmp445,
	movl	$63, %r14d	#, tmp451
	subl	%r8d, %r14d	# tmp441, tmp451
# src/../include/Board.hpp:91:     return static_cast<int>(col_height(board[board_col])) - static_cast<int>(tetrimino_rotation.bottom_empty_spaces(tetrimino_col));
	movzwl	%r11w, %r11d	# tmp443, tmp455
# src/../include/Board.hpp:91:     return static_cast<int>(col_height(board[board_col])) - static_cast<int>(tetrimino_rotation.bottom_empty_spaces(tetrimino_col));
	subl	%ebp, %eax	# tmp449, tmp450
# src/../include/Tetrimino.hpp:18:         return __builtin_ffsll(tet_cols[col]) - 1;
	movq	$-1, %rbp	#, tmp588
# src/../include/Board.hpp:22:     return static_cast<height_t>(63 - __builtin_clzll(static_cast<unsigned long long>((col << 1) | 1)));
	movzwl	%r14w, %esi	# tmp451,
	movl	$63, %r14d	#, tmp465
# src/../include/Board.hpp:91:     return static_cast<int>(col_height(board[board_col])) - static_cast<int>(tetrimino_rotation.bottom_empty_spaces(tetrimino_col));
	subl	%r11d, %esi	# tmp455, tmp456
# src/../include/Tetrimino.hpp:18:         return __builtin_ffsll(tet_cols[col]) - 1;
	movzwl	4(%rbx), %r11d	# MEM[(const value_type &)_2(D)], MEM[(const value_type &)_2(D)]
	cmpl	%esi, %eax	# tmp456, tmp450
	cmovge	%eax, %esi	# tmp450,, highest_drop_height
# src/../include/Board.hpp:91:     return static_cast<int>(col_height(board[board_col])) - static_cast<int>(tetrimino_rotation.bottom_empty_spaces(tetrimino_col));
	movzwl	2(%rdx), %eax	# MEM[(const value_type &)_472 + 2],
	addq	$1, %r13	#, ivtmp.200
	movl	%eax, %r8d	#,
# src/../include/Board.hpp:22:     return static_cast<height_t>(63 - __builtin_clzll(static_cast<unsigned long long>((col << 1) | 1)));
	leal	1(%rax,%rax), %eax	#, tmp459
# src/../include/Board.hpp:22:     return static_cast<height_t>(63 - __builtin_clzll(static_cast<unsigned long long>((col << 1) | 1)));
	cltq
	bsrq	%rax, %rax	# tmp460, tmp461
	xorq	$63, %rax	#, tmp461
# src/../include/Tetrimino.hpp:18:         return __builtin_ffsll(tet_cols[col]) - 1;
	bsfq	%r11, %r11	# MEM[(const value_type &)_2(D)], tmp463
	cmove	%rbp, %r11	# tmp588,, tmp463
# src/../include/Board.hpp:22:     return static_cast<height_t>(63 - __builtin_clzll(static_cast<unsigned long long>((col << 1) | 1)));
	subl	%eax, %r14d	# tmp461, tmp465
# src/../include/Board.hpp:91:     return static_cast<int>(col_height(board[board_col])) - static_cast<int>(tetrimino_rotation.bottom_empty_spaces(tetrimino_col));
	movzwl	4(%rdx), %ebp	# MEM[(const value_type &)_472 + 4],
# src/../include/Board.hpp:22:     return static_cast<height_t>(63 - __builtin_clzll(static_cast<unsigned long long>((col << 1) | 1)));
	movzwl	%r14w, %eax	# tmp465,
# src/../include/Tetrimino.hpp:18:         return __builtin_ffsll(tet_cols[col]) - 1;
	movq	$-1, %r14	#, tmp590
# src/../include/Board.hpp:91:     return static_cast<int>(col_height(board[board_col])) - static_cast<int>(tetrimino_rotation.bottom_empty_spaces(tetrimino_col));
	movzwl	%r11w, %r11d	# tmp463, tmp469
# src/../include/Board.hpp:91:     return static_cast<int>(col_height(board[board_col])) - static_cast<int>(tetrimino_rotation.bottom_empty_spaces(tetrimino_col));
	subl	%r11d, %eax	# tmp469, tmp470
# src/../include/Tetrimino.hpp:18:         return __builtin_ffsll(tet_cols[col]) - 1;
	movzwl	6(%rbx), %r11d	# MEM[(const value_type &)_2(D)], MEM[(const value_type &)_2(D)]
	cmpl	%esi, %eax	# highest_drop_height, tmp470
	cmovl	%esi, %eax	# tmp470,, highest_drop_height, highest_drop_height
# src/../include/Board.hpp:91:     return static_cast<int>(col_height(board[board_col])) - static_cast<int>(tetrimino_rotation.bottom_empty_spaces(tetrimino_col));
	movl	%ebp, %esi	#,
# src/../include/Board.hpp:22:     return static_cast<height_t>(63 - __builtin_clzll(static_cast<unsigned long long>((col << 1) | 1)));
	leal	1(%rbp,%rbp), %ebp	#, tmp473
# src/../include/Board.hpp:22:     return static_cast<height_t>(63 - __builtin_clzll(static_cast<unsigned long long>((col << 1) | 1)));
	movslq	%ebp, %rbp	# tmp473, tmp474
	bsrq	%rbp, %rbp	# tmp474, tmp475
	xorq	$63, %rbp	#, tmp475
# src/../include/Tetrimino.hpp:18:         return __builtin_ffsll(tet_cols[col]) - 1;
	bsfq	%r11, %r11	# MEM[(const value_type &)_2(D)], tmp477
	cmove	%r14, %r11	# tmp590,, tmp477
# src/../include/Board.hpp:22:     return static_cast<height_t>(63 - __builtin_clzll(static_cast<unsigned long long>((col << 1) | 1)));
	movl	$63, %r14d	#, tmp479
	subl	%ebp, %r14d	# tmp475, tmp479
	movzwl	%r14w, %ebp	# tmp479,
# src/../include/Board.hpp:91:     return static_cast<int>(col_height(board[board_col])) - static_cast<int>(tetrimino_rotation.bottom_empty_spaces(tetrimino_col));
	movzwl	%r11w, %r11d	# tmp477, tmp483
# src/../include/Board.hpp:91:     return static_cast<int>(col_height(board[board_col])) - static_cast<int>(tetrimino_rotation.bottom_empty_spaces(tetrimino_col));
	subl	%r11d, %ebp	# tmp483, tmp484
	cmpl	%eax, %ebp	# highest_drop_height, tmp484
	cmovl	%eax, %ebp	# tmp484,, highest_drop_height, highest_drop_height
# src/../include/Board.hpp:410:                 if (highest_drop_height + tetrimino_rotation.height - 1 >= BLOCKS_H)
	movzwl	8(%rbx), %eax	# MEM[(const struct TetriminoRotation &)_2(D)].height, MEM[(const struct TetriminoRotation &)_2(D)].height
	addl	%ebp, %eax	# highest_drop_height, tmp486
# src/../include/Board.hpp:410:                 if (highest_drop_height + tetrimino_rotation.height - 1 >= BLOCKS_H)
	cmpl	$16, %eax	#, tmp486
	jg	.L44	#,
	movzwl	%bp, %ebp	# highest_drop_height, _63
# src/../include/Board.hpp:99:         board[board_col + i] |= static_cast<height_t>(tetrimino_rotation.tet_cols[i] << height);
	shlx	%ebp, %ecx, %ecx	# _63, _30, tmp488
# src/../include/Board.hpp:99:         board[board_col + i] |= static_cast<height_t>(tetrimino_rotation.tet_cols[i] << height);
	orl	%r10d, %ecx	# _21, tmp489
	movw	%cx, -2(%rdx)	# tmp489, MEM[(value_type &)_472 + 18446744073709551614]
# src/../include/Board.hpp:99:         board[board_col + i] |= static_cast<height_t>(tetrimino_rotation.tet_cols[i] << height);
	movzwl	2(%rbx), %eax	# MEM[(const value_type &)_2(D)], MEM[(const value_type &)_2(D)]
	shlx	%ebp, %eax, %eax	# _63, MEM[(const value_type &)_2(D)], tmp491
# src/../include/Board.hpp:99:         board[board_col + i] |= static_cast<height_t>(tetrimino_rotation.tet_cols[i] << height);
	orl	%eax, %r9d	# tmp491, tmp492
	movw	%r9w, (%rdx)	# tmp492, MEM[(value_type &)_472]
# src/../include/Board.hpp:99:         board[board_col + i] |= static_cast<height_t>(tetrimino_rotation.tet_cols[i] << height);
	movzwl	4(%rbx), %eax	# MEM[(const value_type &)_2(D)], MEM[(const value_type &)_2(D)]
	shlx	%ebp, %eax, %eax	# _63, MEM[(const value_type &)_2(D)], tmp494
# src/../include/Board.hpp:99:         board[board_col + i] |= static_cast<height_t>(tetrimino_rotation.tet_cols[i] << height);
	orl	%eax, %r8d	# tmp494, tmp495
	movw	%r8w, 2(%rdx)	# tmp495, MEM[(value_type &)_472 + 2]
# src/../include/Board.hpp:99:         board[board_col + i] |= static_cast<height_t>(tetrimino_rotation.tet_cols[i] << height);
	movzwl	6(%rbx), %eax	# MEM[(const value_type &)_2(D)], MEM[(const value_type &)_2(D)]
	shlx	%ebp, %eax, %eax	# _63, MEM[(const value_type &)_2(D)], tmp497
# src/../include/Board.hpp:99:         board[board_col + i] |= static_cast<height_t>(tetrimino_rotation.tet_cols[i] << height);
	orl	%eax, %esi	# tmp497, tmp498
	movw	%si, 4(%rdx)	# tmp498, MEM[(value_type &)_472 + 4]
# src/../include/Board.hpp:419:                 test_board_score = evaluate_board_GA_internet_no_params(*test_board, line_mask);
	movq	16(%rsp), %rsi	# %sfp,
	call	_Z36evaluate_board_GA_internet_no_paramsRKSt5arrayItLm10EERt	#
# src/../include/Board.hpp:421:                 if (test_board_score > best_score)
	movq	(%rsp), %rax	# %sfp, D.154526
	comisd	(%rax), %xmm0	# *_6(D), test_board_score
	jbe	.L50	#,
# src/../include/Board.hpp:423:                     best_score = test_board_score;
	movsd	%xmm0, (%rax)	# test_board_score, *_6(D)
# src/../include/Board.hpp:135:     mask =~ mask;
	movzwl	46(%rsp), %edx	# line_mask, mask
# src/../include/Board.hpp:424:                     destroy_lines_internet(*test_board, line_mask);
	movq	(%r15), %rax	# MEM[(struct Board * &)_5(D)], _81
# /usr/include/c++/8/bits/move.h:194:       __a = _GLIBCXX_MOVE(__b);
	movq	8(%rsp), %rsi	# %sfp, D.154524
# src/../include/Board.hpp:138:         board[i] = static_cast<height_t>(_pext_u32(board[i], mask));
	movzwl	(%rax), %ecx	# MEM[(value_type &)_81], MEM[(value_type &)_81]
# src/../include/Board.hpp:135:     mask =~ mask;
	notl	%edx	# mask
# src/../include/Board.hpp:138:         board[i] = static_cast<height_t>(_pext_u32(board[i], mask));
	movzwl	%dx, %edx	# mask, _8
# /usr/lib/gcc/x86_64-linux-gnu/8/include/bmi2intrin.h:55:   return __builtin_ia32_pext_si (__X, __Y);
	pext	%edx, %ecx, %ecx	# _8, MEM[(value_type &)_81], tmp502
# src/../include/Board.hpp:138:         board[i] = static_cast<height_t>(_pext_u32(board[i], mask));
	movw	%cx, (%rax)	# tmp502, MEM[(value_type &)_81]
# src/../include/Board.hpp:138:         board[i] = static_cast<height_t>(_pext_u32(board[i], mask));
	movzwl	2(%rax), %ecx	# MEM[(value_type &)_81], MEM[(value_type &)_81]
# /usr/lib/gcc/x86_64-linux-gnu/8/include/bmi2intrin.h:55:   return __builtin_ia32_pext_si (__X, __Y);
	pext	%edx, %ecx, %ecx	# _8, MEM[(value_type &)_81], tmp506
# src/../include/Board.hpp:138:         board[i] = static_cast<height_t>(_pext_u32(board[i], mask));
	movw	%cx, 2(%rax)	# tmp506, MEM[(value_type &)_81]
# src/../include/Board.hpp:138:         board[i] = static_cast<height_t>(_pext_u32(board[i], mask));
	movzwl	4(%rax), %ecx	# MEM[(value_type &)_81], MEM[(value_type &)_81]
# /usr/lib/gcc/x86_64-linux-gnu/8/include/bmi2intrin.h:55:   return __builtin_ia32_pext_si (__X, __Y);
	pext	%edx, %ecx, %ecx	# _8, MEM[(value_type &)_81], tmp510
# src/../include/Board.hpp:138:         board[i] = static_cast<height_t>(_pext_u32(board[i], mask));
	movw	%cx, 4(%rax)	# tmp510, MEM[(value_type &)_81]
# src/../include/Board.hpp:138:         board[i] = static_cast<height_t>(_pext_u32(board[i], mask));
	movzwl	6(%rax), %ecx	# MEM[(value_type &)_81], MEM[(value_type &)_81]
# /usr/lib/gcc/x86_64-linux-gnu/8/include/bmi2intrin.h:55:   return __builtin_ia32_pext_si (__X, __Y);
	pext	%edx, %ecx, %ecx	# _8, MEM[(value_type &)_81], tmp514
# src/../include/Board.hpp:138:         board[i] = static_cast<height_t>(_pext_u32(board[i], mask));
	movw	%cx, 6(%rax)	# tmp514, MEM[(value_type &)_81]
# src/../include/Board.hpp:138:         board[i] = static_cast<height_t>(_pext_u32(board[i], mask));
	movzwl	8(%rax), %ecx	# MEM[(value_type &)_81], MEM[(value_type &)_81]
# /usr/lib/gcc/x86_64-linux-gnu/8/include/bmi2intrin.h:55:   return __builtin_ia32_pext_si (__X, __Y);
	pext	%edx, %ecx, %ecx	# _8, MEM[(value_type &)_81], tmp518
# src/../include/Board.hpp:138:         board[i] = static_cast<height_t>(_pext_u32(board[i], mask));
	movw	%cx, 8(%rax)	# tmp518, MEM[(value_type &)_81]
# src/../include/Board.hpp:138:         board[i] = static_cast<height_t>(_pext_u32(board[i], mask));
	movzwl	10(%rax), %ecx	# MEM[(value_type &)_81], MEM[(value_type &)_81]
# /usr/lib/gcc/x86_64-linux-gnu/8/include/bmi2intrin.h:55:   return __builtin_ia32_pext_si (__X, __Y);
	pext	%edx, %ecx, %ecx	# _8, MEM[(value_type &)_81], tmp522
# src/../include/Board.hpp:138:         board[i] = static_cast<height_t>(_pext_u32(board[i], mask));
	movw	%cx, 10(%rax)	# tmp522, MEM[(value_type &)_81]
# src/../include/Board.hpp:138:         board[i] = static_cast<height_t>(_pext_u32(board[i], mask));
	movzwl	12(%rax), %ecx	# MEM[(value_type &)_81], MEM[(value_type &)_81]
# /usr/lib/gcc/x86_64-linux-gnu/8/include/bmi2intrin.h:55:   return __builtin_ia32_pext_si (__X, __Y);
	pext	%edx, %ecx, %ecx	# _8, MEM[(value_type &)_81], tmp526
# src/../include/Board.hpp:138:         board[i] = static_cast<height_t>(_pext_u32(board[i], mask));
	movw	%cx, 12(%rax)	# tmp526, MEM[(value_type &)_81]
# src/../include/Board.hpp:138:         board[i] = static_cast<height_t>(_pext_u32(board[i], mask));
	movzwl	14(%rax), %ecx	# MEM[(value_type &)_81], MEM[(value_type &)_81]
# /usr/lib/gcc/x86_64-linux-gnu/8/include/bmi2intrin.h:55:   return __builtin_ia32_pext_si (__X, __Y);
	pext	%edx, %ecx, %ecx	# _8, MEM[(value_type &)_81], tmp530
# src/../include/Board.hpp:138:         board[i] = static_cast<height_t>(_pext_u32(board[i], mask));
	movw	%cx, 14(%rax)	# tmp530, MEM[(value_type &)_81]
# src/../include/Board.hpp:138:         board[i] = static_cast<height_t>(_pext_u32(board[i], mask));
	movzwl	16(%rax), %ecx	# MEM[(value_type &)_81], MEM[(value_type &)_81]
# /usr/lib/gcc/x86_64-linux-gnu/8/include/bmi2intrin.h:55:   return __builtin_ia32_pext_si (__X, __Y);
	pext	%edx, %ecx, %ecx	# _8, MEM[(value_type &)_81], tmp534
# src/../include/Board.hpp:138:         board[i] = static_cast<height_t>(_pext_u32(board[i], mask));
	movw	%cx, 16(%rax)	# tmp534, MEM[(value_type &)_81]
# src/../include/Board.hpp:138:         board[i] = static_cast<height_t>(_pext_u32(board[i], mask));
	movzwl	18(%rax), %ecx	# MEM[(value_type &)_81], MEM[(value_type &)_81]
# /usr/lib/gcc/x86_64-linux-gnu/8/include/bmi2intrin.h:55:   return __builtin_ia32_pext_si (__X, __Y);
	pext	%edx, %ecx, %edx	# _8, MEM[(value_type &)_81], tmp538
# src/../include/Board.hpp:138:         board[i] = static_cast<height_t>(_pext_u32(board[i], mask));
	movw	%dx, 18(%rax)	# tmp538, MEM[(value_type &)_81]
# /usr/include/c++/8/bits/move.h:194:       __a = _GLIBCXX_MOVE(__b);
	movq	(%rsi), %rdx	# MEM[(struct array * &)_4(D)], _92
	movq	%rdx, (%r15)	# _92, *_5(D)
# /usr/include/c++/8/bits/move.h:195:       __b = _GLIBCXX_MOVE(__tmp);
	movq	%rax, (%rsi)	# _81, *_4(D)
# src/../include/Board.hpp:426:                     *test_board = *input_board;
	movq	24(%rsp), %rax	# %sfp, _9
	movq	(%r15), %rdi	# MEM[(struct Board * &)_5(D)], prephitmp_846
	movdqu	(%rax), %xmm2	# *_9, tmp597
	movups	%xmm2, (%rdi)	# tmp597, *_95
	movl	16(%rax), %eax	# *_9, *_9
	movl	%eax, 16(%rdi)	# *_9, *_95
# src/../include/Board.hpp:395:             for (width_t i = 0; i < BLOCKS_W - tetrimino_rotation.tet_cols.size() + 1 ; i++)
	cmpq	$8, %r13	#, ivtmp.200
	jne	.L37	#,
.L53:
# src/../include/constexpr_func_arr.hpp:239: 		};
	addq	$56, %rsp	#,
	.cfi_remember_state
	.cfi_def_cfa_offset 56
	popq	%rbx	#
	.cfi_def_cfa_offset 48
	popq	%rbp	#
	.cfi_def_cfa_offset 40
	popq	%r12	#
	.cfi_def_cfa_offset 32
	popq	%r13	#
	.cfi_def_cfa_offset 24
	popq	%r14	#
	.cfi_def_cfa_offset 16
	popq	%r15	#
	.cfi_def_cfa_offset 8
	ret	
	.p2align 4,,10
	.p2align 3
.L50:
	.cfi_restore_state
	movq	(%r15), %rdi	# MEM[(struct Board * &)_5(D)], prephitmp_846
# src/../include/Board.hpp:108:         board[board_col + i] &= ~(tetrimino_rotation.tet_cols[i] << height);
	movzwl	(%rbx), %eax	# MEM[(const value_type &)_2(D)], MEM[(const value_type &)_2(D)]
	addq	%rdi, %r12	# prephitmp_846, _905
	shlx	%ebp, %eax, %eax	# _63, MEM[(const value_type &)_2(D)], tmp547
# src/../include/Board.hpp:108:         board[board_col + i] &= ~(tetrimino_rotation.tet_cols[i] << height);
	notl	%eax	# tmp548
# src/../include/Board.hpp:108:         board[board_col + i] &= ~(tetrimino_rotation.tet_cols[i] << height);
	andw	%ax, -2(%r12)	# tmp548, MEM[(value_type &)_905 + 18446744073709551614]
# src/../include/Board.hpp:108:         board[board_col + i] &= ~(tetrimino_rotation.tet_cols[i] << height);
	movzwl	2(%rbx), %eax	# MEM[(const value_type &)_2(D)], MEM[(const value_type &)_2(D)]
	shlx	%ebp, %eax, %eax	# _63, MEM[(const value_type &)_2(D)], tmp550
# src/../include/Board.hpp:108:         board[board_col + i] &= ~(tetrimino_rotation.tet_cols[i] << height);
	notl	%eax	# tmp551
# src/../include/Board.hpp:108:         board[board_col + i] &= ~(tetrimino_rotation.tet_cols[i] << height);
	andw	%ax, (%r12)	# tmp551, *_905
# src/../include/Board.hpp:108:         board[board_col + i] &= ~(tetrimino_rotation.tet_cols[i] << height);
	movzwl	4(%rbx), %eax	# MEM[(const value_type &)_2(D)], MEM[(const value_type &)_2(D)]
	shlx	%ebp, %eax, %eax	# _63, MEM[(const value_type &)_2(D)], tmp553
# src/../include/Board.hpp:108:         board[board_col + i] &= ~(tetrimino_rotation.tet_cols[i] << height);
	notl	%eax	# tmp554
# src/../include/Board.hpp:108:         board[board_col + i] &= ~(tetrimino_rotation.tet_cols[i] << height);
	andw	%ax, 2(%r12)	# tmp554, MEM[(value_type &)_905 + 2]
# src/../include/Board.hpp:108:         board[board_col + i] &= ~(tetrimino_rotation.tet_cols[i] << height);
	movzwl	6(%rbx), %eax	# MEM[(const value_type &)_2(D)], MEM[(const value_type &)_2(D)]
	shlx	%ebp, %eax, %ebp	# _63, MEM[(const value_type &)_2(D)], tmp556
# src/../include/Board.hpp:108:         board[board_col + i] &= ~(tetrimino_rotation.tet_cols[i] << height);
	notl	%ebp	# tmp557
# src/../include/Board.hpp:108:         board[board_col + i] &= ~(tetrimino_rotation.tet_cols[i] << height);
	andw	%bp, 4(%r12)	# tmp557, MEM[(value_type &)_905 + 4]
	jmp	.L44	#
	.cfi_endproc
	.section	.text.unlikely
	.cfi_startproc
	.type	_ZZN23gen_functor_array_innerI28find_best_board_tuple_switchvUlvE_7types_tIJPKSt5arrayItLm10EERPS4_S8_RdRKSt6vectorIdSaIdEEEES2_IJ9TetriminoIJ17TetriminoRotationIJtEEEESG_IJSI_SH_IJttEESI_SK_EESL_SG_IJSI_SK_EESM_SG_IJSK_SK_SI_SI_EESG_IJSH_IJEESH_IJtttEEEEEES2_IJSJ_SL_SM_SN_SQ_EESt16integer_sequenceImJLm0ELm1ELm2ELm3ELm4ELm5ELm6EEEEclES1_ENUlRKSt7variantIJSJ_SL_SM_SN_SQ_EEOS6_S8_S8_S9_SE_E5_4_FUNESZ_S10_S8_S8_S9_SE_.cold.102, @function
_ZZN23gen_functor_array_innerI28find_best_board_tuple_switchvUlvE_7types_tIJPKSt5arrayItLm10EERPS4_S8_RdRKSt6vectorIdSaIdEEEES2_IJ9TetriminoIJ17TetriminoRotationIJtEEEESG_IJSI_SH_IJttEESI_SK_EESL_SG_IJSI_SK_EESM_SG_IJSK_SK_SI_SI_EESG_IJSH_IJEESH_IJtttEEEEEES2_IJSJ_SL_SM_SN_SQ_EESt16integer_sequenceImJLm0ELm1ELm2ELm3ELm4ELm5ELm6EEEEclES1_ENUlRKSt7variantIJSJ_SL_SM_SN_SQ_EEOS6_S8_S8_S9_SE_E5_4_FUNESZ_S10_S8_S8_S9_SE_.cold.102:
.LFSB10407:
.L48:
	.cfi_def_cfa_offset 112
	.cfi_offset 3, -56
	.cfi_offset 6, -48
	.cfi_offset 12, -40
	.cfi_offset 13, -32
	.cfi_offset 14, -24
	.cfi_offset 15, -16
# /usr/include/c++/8/variant:1023:   { _GLIBCXX_THROW_OR_ABORT(bad_variant_access(__what)); }
	call	abort@PLT	#
	.cfi_endproc
.LFE10407:
	.text
	.size	_ZZN23gen_functor_array_innerI28find_best_board_tuple_switchvUlvE_7types_tIJPKSt5arrayItLm10EERPS4_S8_RdRKSt6vectorIdSaIdEEEES2_IJ9TetriminoIJ17TetriminoRotationIJtEEEESG_IJSI_SH_IJttEESI_SK_EESL_SG_IJSI_SK_EESM_SG_IJSK_SK_SI_SI_EESG_IJSH_IJEESH_IJtttEEEEEES2_IJSJ_SL_SM_SN_SQ_EESt16integer_sequenceImJLm0ELm1ELm2ELm3ELm4ELm5ELm6EEEEclES1_ENUlRKSt7variantIJSJ_SL_SM_SN_SQ_EEOS6_S8_S8_S9_SE_E5_4_FUNESZ_S10_S8_S8_S9_SE_, .-_ZZN23gen_functor_array_innerI28find_best_board_tuple_switchvUlvE_7types_tIJPKSt5arrayItLm10EERPS4_S8_RdRKSt6vectorIdSaIdEEEES2_IJ9TetriminoIJ17TetriminoRotationIJtEEEESG_IJSI_SH_IJttEESI_SK_EESL_SG_IJSI_SK_EESM_SG_IJSK_SK_SI_SI_EESG_IJSH_IJEESH_IJtttEEEEEES2_IJSJ_SL_SM_SN_SQ_EESt16integer_sequenceImJLm0ELm1ELm2ELm3ELm4ELm5ELm6EEEEclES1_ENUlRKSt7variantIJSJ_SL_SM_SN_SQ_EEOS6_S8_S8_S9_SE_E5_4_FUNESZ_S10_S8_S8_S9_SE_
	.section	.text.unlikely
	.size	_ZZN23gen_functor_array_innerI28find_best_board_tuple_switchvUlvE_7types_tIJPKSt5arrayItLm10EERPS4_S8_RdRKSt6vectorIdSaIdEEEES2_IJ9TetriminoIJ17TetriminoRotationIJtEEEESG_IJSI_SH_IJttEESI_SK_EESL_SG_IJSI_SK_EESM_SG_IJSK_SK_SI_SI_EESG_IJSH_IJEESH_IJtttEEEEEES2_IJSJ_SL_SM_SN_SQ_EESt16integer_sequenceImJLm0ELm1ELm2ELm3ELm4ELm5ELm6EEEEclES1_ENUlRKSt7variantIJSJ_SL_SM_SN_SQ_EEOS6_S8_S8_S9_SE_E5_4_FUNESZ_S10_S8_S8_S9_SE_.cold.102, .-_ZZN23gen_functor_array_innerI28find_best_board_tuple_switchvUlvE_7types_tIJPKSt5arrayItLm10EERPS4_S8_RdRKSt6vectorIdSaIdEEEES2_IJ9TetriminoIJ17TetriminoRotationIJtEEEESG_IJSI_SH_IJttEESI_SK_EESL_SG_IJSI_SK_EESM_SG_IJSK_SK_SI_SI_EESG_IJSH_IJEESH_IJtttEEEEEES2_IJSJ_SL_SM_SN_SQ_EESt16integer_sequenceImJLm0ELm1ELm2ELm3ELm4ELm5ELm6EEEEclES1_ENUlRKSt7variantIJSJ_SL_SM_SN_SQ_EEOS6_S8_S8_S9_SE_E5_4_FUNESZ_S10_S8_S8_S9_SE_.cold.102
.LCOLDE2:
	.text
.LHOTE2:
	.section	.text.unlikely
.LCOLDB3:
	.text
.LHOTB3:
	.p2align 4,,15
	.type	_ZZN23gen_functor_array_innerI28find_best_board_tuple_switchvUlvE_7types_tIJPKSt5arrayItLm10EERPS4_S8_RdRKSt6vectorIdSaIdEEEES2_IJ9TetriminoIJ17TetriminoRotationIJtEEEESG_IJSI_SH_IJttEESI_SK_EESL_SG_IJSI_SK_EESM_SG_IJSK_SK_SI_SI_EESG_IJSH_IJEESH_IJtttEEEEEES2_IJSJ_SL_SM_SN_SQ_EESt16integer_sequenceImJLm0ELm1ELm2ELm3ELm4ELm5ELm6EEEEclES1_ENUlRKSt7variantIJSJ_SL_SM_SN_SQ_EEOS6_S8_S8_S9_SE_E_4_FUNESZ_S10_S8_S8_S9_SE_, @function
_ZZN23gen_functor_array_innerI28find_best_board_tuple_switchvUlvE_7types_tIJPKSt5arrayItLm10EERPS4_S8_RdRKSt6vectorIdSaIdEEEES2_IJ9TetriminoIJ17TetriminoRotationIJtEEEESG_IJSI_SH_IJttEESI_SK_EESL_SG_IJSI_SK_EESM_SG_IJSK_SK_SI_SI_EESG_IJSH_IJEESH_IJtttEEEEEES2_IJSJ_SL_SM_SN_SQ_EESt16integer_sequenceImJLm0ELm1ELm2ELm3ELm4ELm5ELm6EEEEclES1_ENUlRKSt7variantIJSJ_SL_SM_SN_SQ_EEOS6_S8_S8_S9_SE_E_4_FUNESZ_S10_S8_S8_S9_SE_:
.LFB10281:
	.cfi_startproc
	pushq	%r15	#
	.cfi_def_cfa_offset 16
	.cfi_offset 15, -16
	pushq	%r14	#
	.cfi_def_cfa_offset 24
	.cfi_offset 14, -24
	pushq	%r13	#
	.cfi_def_cfa_offset 32
	.cfi_offset 13, -32
	pushq	%r12	#
	.cfi_def_cfa_offset 40
	.cfi_offset 12, -40
	pushq	%rbp	#
	.cfi_def_cfa_offset 48
	.cfi_offset 6, -48
	pushq	%rbx	#
	.cfi_def_cfa_offset 56
	.cfi_offset 3, -56
	subq	$56, %rsp	#,
	.cfi_def_cfa_offset 112
# /usr/include/c++/8/variant:1355:       if (__v.index() != _Np)
	cmpb	$0, 28(%rdi)	#, MEM[(unsigned char *)_2(D) + 28B]
# src/../include/constexpr_func_arr.hpp:239: 		};
	movq	(%rsi), %r15	# *_3(D), _9
# src/../include/constexpr_func_arr.hpp:233: 				[](variant_t const& vrnt, Args&&... args) noexcept-> Ret
	movq	%r8, 8(%rsp)	# D.152700, %sfp
# /usr/include/c++/8/variant:1355:       if (__v.index() != _Np)
	jne	.L64	#,
# src/../include/Board.hpp:391:         *test_board = *input_board;
	movdqu	(%r15), %xmm2	# *_9, tmp315
	movq	%rdi, %rbx	# D.152696, D.152696
	movq	(%rcx), %rdi	# MEM[(struct Board * &)_5(D)], prephitmp_155
	movq	%rdx, %r13	# D.152698, D.152698
# src/../include/Board.hpp:390:         best_score = -INFINITY;
	movq	.LC1(%rip), %rsi	#, tmp314
	movq	%rcx, %r12	# D.152699, D.152699
# src/../include/Board.hpp:391:         *test_board = *input_board;
	movl	$1, %r14d	#, ivtmp.228
# src/../include/Board.hpp:390:         best_score = -INFINITY;
	movq	%rsi, (%r8)	# tmp314, *_6(D)
# src/../include/Board.hpp:391:         *test_board = *input_board;
	movups	%xmm2, (%rdi)	# tmp315, *_12
	movl	16(%r15), %eax	# *_9, *_9
	movl	%eax, 16(%rdi)	# *_9, *_12
# src/../include/Board.hpp:419:                 test_board_score = evaluate_board_GA_internet_no_params(*test_board, line_mask);
	leaq	46(%rsp), %rax	#, tmp306
	movq	%rax, 24(%rsp)	# tmp306, %sfp
	jmp	.L62	#
	.p2align 4,,10
	.p2align 3
.L61:
	addq	$1, %r14	#, ivtmp.228
# src/../include/Board.hpp:395:             for (width_t i = 0; i < BLOCKS_W - tetrimino_rotation.tet_cols.size() + 1 ; i++)
	cmpq	$10, %r14	#, ivtmp.228
	je	.L67	#,
.L62:
	leaq	(%r14,%r14), %rbp	#, _117
# src/../include/Tetrimino.hpp:18:         return __builtin_ffsll(tet_cols[col]) - 1;
	movzwl	(%rbx), %esi	# MEM[(const value_type &)_2(D)],
	movq	$-1, %rcx	#, tmp317
	leaq	(%rdi,%rbp), %r9	#, _115
# src/../include/Board.hpp:91:     return static_cast<int>(col_height(board[board_col])) - static_cast<int>(tetrimino_rotation.bottom_empty_spaces(tetrimino_col));
	movzwl	-2(%r9), %eax	# MEM[(const value_type &)_115 + 18446744073709551614],
	movzwl	(%r9), %edx	# *_115,
# src/../include/Tetrimino.hpp:18:         return __builtin_ffsll(tet_cols[col]) - 1;
	movq	%rsi, %r8	#,
# src/../include/Board.hpp:91:     return static_cast<int>(col_height(board[board_col])) - static_cast<int>(tetrimino_rotation.bottom_empty_spaces(tetrimino_col));
	movl	%eax, %r11d	#,
# src/../include/Board.hpp:22:     return static_cast<height_t>(63 - __builtin_clzll(static_cast<unsigned long long>((col << 1) | 1)));
	leal	1(%rax,%rax), %eax	#, tmp218
# src/../include/Board.hpp:91:     return static_cast<int>(col_height(board[board_col])) - static_cast<int>(tetrimino_rotation.bottom_empty_spaces(tetrimino_col));
	movl	%edx, %r10d	#,
# src/../include/Board.hpp:22:     return static_cast<height_t>(63 - __builtin_clzll(static_cast<unsigned long long>((col << 1) | 1)));
	cltq
# src/../include/Board.hpp:22:     return static_cast<height_t>(63 - __builtin_clzll(static_cast<unsigned long long>((col << 1) | 1)));
	leal	1(%rdx,%rdx), %edx	#, tmp226
# src/../include/Board.hpp:22:     return static_cast<height_t>(63 - __builtin_clzll(static_cast<unsigned long long>((col << 1) | 1)));
	bsrq	%rax, %rax	# tmp219, tmp220
	movslq	%edx, %rdx	# tmp226, tmp227
	xorq	$63, %rax	#, tmp220
# src/../include/Tetrimino.hpp:18:         return __builtin_ffsll(tet_cols[col]) - 1;
	bsfq	%rsi, %rsi	# _28, tmp222
	cmove	%rcx, %rsi	# tmp317,, tmp222
# src/../include/Board.hpp:22:     return static_cast<height_t>(63 - __builtin_clzll(static_cast<unsigned long long>((col << 1) | 1)));
	movq	%rax, 16(%rsp)	# tmp220, %sfp
# src/../include/Tetrimino.hpp:18:         return __builtin_ffsll(tet_cols[col]) - 1;
	movq	%rcx, %rax	# tmp317, tmp317
	movzwl	2(%rbx), %ecx	# MEM[(const value_type &)_2(D)], MEM[(const value_type &)_2(D)]
# src/../include/Board.hpp:22:     return static_cast<height_t>(63 - __builtin_clzll(static_cast<unsigned long long>((col << 1) | 1)));
	bsrq	%rdx, %rdx	# tmp227, tmp228
	xorq	$63, %rdx	#, tmp228
# src/../include/Tetrimino.hpp:18:         return __builtin_ffsll(tet_cols[col]) - 1;
	bsfq	%rcx, %rcx	# MEM[(const value_type &)_2(D)], tmp230
# src/../include/Board.hpp:91:     return static_cast<int>(col_height(board[board_col])) - static_cast<int>(tetrimino_rotation.bottom_empty_spaces(tetrimino_col));
	movzwl	%si, %esi	# tmp222, tmp236
# src/../include/Tetrimino.hpp:18:         return __builtin_ffsll(tet_cols[col]) - 1;
	cmove	%rax, %rcx	# tmp318,, tmp230
# src/../include/Board.hpp:22:     return static_cast<height_t>(63 - __builtin_clzll(static_cast<unsigned long long>((col << 1) | 1)));
	movl	$63, %eax	#, tmp232
	subw	16(%rsp), %ax	# %sfp, tmp232
# src/../include/Board.hpp:91:     return static_cast<int>(col_height(board[board_col])) - static_cast<int>(tetrimino_rotation.bottom_empty_spaces(tetrimino_col));
	movzwl	%ax, %eax	# tmp232, tmp234
# src/../include/Board.hpp:91:     return static_cast<int>(col_height(board[board_col])) - static_cast<int>(tetrimino_rotation.bottom_empty_spaces(tetrimino_col));
	subl	%esi, %eax	# tmp236, tmp237
# src/../include/Board.hpp:22:     return static_cast<height_t>(63 - __builtin_clzll(static_cast<unsigned long long>((col << 1) | 1)));
	movl	$63, %esi	#, tmp238
# src/../include/Board.hpp:91:     return static_cast<int>(col_height(board[board_col])) - static_cast<int>(tetrimino_rotation.bottom_empty_spaces(tetrimino_col));
	movzwl	%cx, %ecx	# tmp230, tmp242
# src/../include/Board.hpp:22:     return static_cast<height_t>(63 - __builtin_clzll(static_cast<unsigned long long>((col << 1) | 1)));
	subl	%edx, %esi	# tmp228, tmp238
	movzwl	%si, %edx	# tmp238,
# src/../include/Board.hpp:91:     return static_cast<int>(col_height(board[board_col])) - static_cast<int>(tetrimino_rotation.bottom_empty_spaces(tetrimino_col));
	subl	%ecx, %edx	# tmp242, tmp243
	cmpl	%edx, %eax	# tmp243, tmp237
	cmovl	%edx, %eax	# tmp237,, tmp243, highest_drop_height
# src/../include/Board.hpp:410:                 if (highest_drop_height + tetrimino_rotation.height - 1 >= BLOCKS_H)
	movzwl	4(%rbx), %edx	# MEM[(const struct TetriminoRotation &)_2(D)].height, MEM[(const struct TetriminoRotation &)_2(D)].height
	addl	%eax, %edx	# highest_drop_height, tmp245
# src/../include/Board.hpp:410:                 if (highest_drop_height + tetrimino_rotation.height - 1 >= BLOCKS_H)
	cmpl	$16, %edx	#, tmp245
	jg	.L61	#,
	movzwl	%ax, %eax	# highest_drop_height, _59
# src/../include/Board.hpp:419:                 test_board_score = evaluate_board_GA_internet_no_params(*test_board, line_mask);
	movq	24(%rsp), %rsi	# %sfp,
# src/../include/Board.hpp:99:         board[board_col + i] |= static_cast<height_t>(tetrimino_rotation.tet_cols[i] << height);
	shlx	%eax, %r8d, %r8d	# _59, _28, tmp247
# src/../include/Board.hpp:99:         board[board_col + i] |= static_cast<height_t>(tetrimino_rotation.tet_cols[i] << height);
	orl	%r11d, %r8d	# _19, tmp248
# src/../include/Board.hpp:99:         board[board_col + i] |= static_cast<height_t>(tetrimino_rotation.tet_cols[i] << height);
	movl	%eax, 16(%rsp)	# _59, %sfp
# src/../include/Board.hpp:99:         board[board_col + i] |= static_cast<height_t>(tetrimino_rotation.tet_cols[i] << height);
	movw	%r8w, -2(%r9)	# tmp248, MEM[(value_type &)_115 + 18446744073709551614]
# src/../include/Board.hpp:99:         board[board_col + i] |= static_cast<height_t>(tetrimino_rotation.tet_cols[i] << height);
	movzwl	2(%rbx), %edx	# MEM[(const value_type &)_2(D)], MEM[(const value_type &)_2(D)]
	shlx	%eax, %edx, %edx	# _59, MEM[(const value_type &)_2(D)], tmp250
# src/../include/Board.hpp:99:         board[board_col + i] |= static_cast<height_t>(tetrimino_rotation.tet_cols[i] << height);
	orl	%edx, %r10d	# tmp250, tmp251
	movw	%r10w, (%r9)	# tmp251, MEM[(value_type &)_115]
# src/../include/Board.hpp:419:                 test_board_score = evaluate_board_GA_internet_no_params(*test_board, line_mask);
	call	_Z36evaluate_board_GA_internet_no_paramsRKSt5arrayItLm10EERt	#
# src/../include/Board.hpp:421:                 if (test_board_score > best_score)
	movq	8(%rsp), %rdi	# %sfp, D.152700
	movl	16(%rsp), %eax	# %sfp, _59
	comisd	(%rdi), %xmm0	# *_6(D), test_board_score
	jbe	.L65	#,
# src/../include/Board.hpp:424:                     destroy_lines_internet(*test_board, line_mask);
	movq	(%r12), %rax	# MEM[(struct Board * &)_5(D)], _77
# src/../include/Board.hpp:135:     mask =~ mask;
	movzwl	46(%rsp), %edx	# line_mask, mask
# src/../include/Board.hpp:423:                     best_score = test_board_score;
	movsd	%xmm0, (%rdi)	# test_board_score, *_6(D)
	addq	$1, %r14	#, ivtmp.228
# src/../include/Board.hpp:138:         board[i] = static_cast<height_t>(_pext_u32(board[i], mask));
	movzwl	(%rax), %ecx	# MEM[(value_type &)_77], MEM[(value_type &)_77]
# src/../include/Board.hpp:135:     mask =~ mask;
	notl	%edx	# mask
# src/../include/Board.hpp:138:         board[i] = static_cast<height_t>(_pext_u32(board[i], mask));
	movzwl	%dx, %edx	# mask, _138
# /usr/lib/gcc/x86_64-linux-gnu/8/include/bmi2intrin.h:55:   return __builtin_ia32_pext_si (__X, __Y);
	pext	%edx, %ecx, %ecx	# _138, MEM[(value_type &)_77], tmp255
# src/../include/Board.hpp:138:         board[i] = static_cast<height_t>(_pext_u32(board[i], mask));
	movw	%cx, (%rax)	# tmp255, MEM[(value_type &)_77]
# src/../include/Board.hpp:138:         board[i] = static_cast<height_t>(_pext_u32(board[i], mask));
	movzwl	2(%rax), %ecx	# MEM[(value_type &)_77], MEM[(value_type &)_77]
# /usr/lib/gcc/x86_64-linux-gnu/8/include/bmi2intrin.h:55:   return __builtin_ia32_pext_si (__X, __Y);
	pext	%edx, %ecx, %ecx	# _138, MEM[(value_type &)_77], tmp259
# src/../include/Board.hpp:138:         board[i] = static_cast<height_t>(_pext_u32(board[i], mask));
	movw	%cx, 2(%rax)	# tmp259, MEM[(value_type &)_77]
# src/../include/Board.hpp:138:         board[i] = static_cast<height_t>(_pext_u32(board[i], mask));
	movzwl	4(%rax), %ecx	# MEM[(value_type &)_77], MEM[(value_type &)_77]
# /usr/lib/gcc/x86_64-linux-gnu/8/include/bmi2intrin.h:55:   return __builtin_ia32_pext_si (__X, __Y);
	pext	%edx, %ecx, %ecx	# _138, MEM[(value_type &)_77], tmp263
# src/../include/Board.hpp:138:         board[i] = static_cast<height_t>(_pext_u32(board[i], mask));
	movw	%cx, 4(%rax)	# tmp263, MEM[(value_type &)_77]
# src/../include/Board.hpp:138:         board[i] = static_cast<height_t>(_pext_u32(board[i], mask));
	movzwl	6(%rax), %ecx	# MEM[(value_type &)_77], MEM[(value_type &)_77]
# /usr/lib/gcc/x86_64-linux-gnu/8/include/bmi2intrin.h:55:   return __builtin_ia32_pext_si (__X, __Y);
	pext	%edx, %ecx, %ecx	# _138, MEM[(value_type &)_77], tmp267
# src/../include/Board.hpp:138:         board[i] = static_cast<height_t>(_pext_u32(board[i], mask));
	movw	%cx, 6(%rax)	# tmp267, MEM[(value_type &)_77]
# src/../include/Board.hpp:138:         board[i] = static_cast<height_t>(_pext_u32(board[i], mask));
	movzwl	8(%rax), %ecx	# MEM[(value_type &)_77], MEM[(value_type &)_77]
# /usr/lib/gcc/x86_64-linux-gnu/8/include/bmi2intrin.h:55:   return __builtin_ia32_pext_si (__X, __Y);
	pext	%edx, %ecx, %ecx	# _138, MEM[(value_type &)_77], tmp271
# src/../include/Board.hpp:138:         board[i] = static_cast<height_t>(_pext_u32(board[i], mask));
	movw	%cx, 8(%rax)	# tmp271, MEM[(value_type &)_77]
# src/../include/Board.hpp:138:         board[i] = static_cast<height_t>(_pext_u32(board[i], mask));
	movzwl	10(%rax), %ecx	# MEM[(value_type &)_77], MEM[(value_type &)_77]
# /usr/lib/gcc/x86_64-linux-gnu/8/include/bmi2intrin.h:55:   return __builtin_ia32_pext_si (__X, __Y);
	pext	%edx, %ecx, %ecx	# _138, MEM[(value_type &)_77], tmp275
# src/../include/Board.hpp:138:         board[i] = static_cast<height_t>(_pext_u32(board[i], mask));
	movw	%cx, 10(%rax)	# tmp275, MEM[(value_type &)_77]
# src/../include/Board.hpp:138:         board[i] = static_cast<height_t>(_pext_u32(board[i], mask));
	movzwl	12(%rax), %ecx	# MEM[(value_type &)_77], MEM[(value_type &)_77]
# /usr/lib/gcc/x86_64-linux-gnu/8/include/bmi2intrin.h:55:   return __builtin_ia32_pext_si (__X, __Y);
	pext	%edx, %ecx, %ecx	# _138, MEM[(value_type &)_77], tmp279
# src/../include/Board.hpp:138:         board[i] = static_cast<height_t>(_pext_u32(board[i], mask));
	movw	%cx, 12(%rax)	# tmp279, MEM[(value_type &)_77]
# src/../include/Board.hpp:138:         board[i] = static_cast<height_t>(_pext_u32(board[i], mask));
	movzwl	14(%rax), %ecx	# MEM[(value_type &)_77], MEM[(value_type &)_77]
# /usr/lib/gcc/x86_64-linux-gnu/8/include/bmi2intrin.h:55:   return __builtin_ia32_pext_si (__X, __Y);
	pext	%edx, %ecx, %ecx	# _138, MEM[(value_type &)_77], tmp283
# src/../include/Board.hpp:138:         board[i] = static_cast<height_t>(_pext_u32(board[i], mask));
	movw	%cx, 14(%rax)	# tmp283, MEM[(value_type &)_77]
# src/../include/Board.hpp:138:         board[i] = static_cast<height_t>(_pext_u32(board[i], mask));
	movzwl	16(%rax), %ecx	# MEM[(value_type &)_77], MEM[(value_type &)_77]
# /usr/lib/gcc/x86_64-linux-gnu/8/include/bmi2intrin.h:55:   return __builtin_ia32_pext_si (__X, __Y);
	pext	%edx, %ecx, %ecx	# _138, MEM[(value_type &)_77], tmp287
# src/../include/Board.hpp:138:         board[i] = static_cast<height_t>(_pext_u32(board[i], mask));
	movw	%cx, 16(%rax)	# tmp287, MEM[(value_type &)_77]
# src/../include/Board.hpp:138:         board[i] = static_cast<height_t>(_pext_u32(board[i], mask));
	movzwl	18(%rax), %ecx	# MEM[(value_type &)_77], MEM[(value_type &)_77]
# /usr/lib/gcc/x86_64-linux-gnu/8/include/bmi2intrin.h:55:   return __builtin_ia32_pext_si (__X, __Y);
	pext	%edx, %ecx, %edx	# _138, MEM[(value_type &)_77], tmp291
# src/../include/Board.hpp:138:         board[i] = static_cast<height_t>(_pext_u32(board[i], mask));
	movw	%dx, 18(%rax)	# tmp291, MEM[(value_type &)_77]
# /usr/include/c++/8/bits/move.h:194:       __a = _GLIBCXX_MOVE(__b);
	movq	0(%r13), %rdx	# MEM[(struct array * &)_4(D)], _88
# src/../include/Board.hpp:426:                     *test_board = *input_board;
	movdqu	(%r15), %xmm1	# *_9, tmp324
# /usr/include/c++/8/bits/move.h:194:       __a = _GLIBCXX_MOVE(__b);
	movq	%rdx, (%r12)	# _88, *_5(D)
# /usr/include/c++/8/bits/move.h:195:       __b = _GLIBCXX_MOVE(__tmp);
	movq	%rax, 0(%r13)	# _77, *_4(D)
# src/../include/Board.hpp:426:                     *test_board = *input_board;
	movq	(%r12), %rdi	# MEM[(struct Board * &)_5(D)], prephitmp_155
	movups	%xmm1, (%rdi)	# tmp324, *_91
	movl	16(%r15), %eax	# *_9, *_9
	movl	%eax, 16(%rdi)	# *_9, *_91
# src/../include/Board.hpp:395:             for (width_t i = 0; i < BLOCKS_W - tetrimino_rotation.tet_cols.size() + 1 ; i++)
	cmpq	$10, %r14	#, ivtmp.228
	jne	.L62	#,
.L67:
# src/../include/constexpr_func_arr.hpp:239: 		};
	addq	$56, %rsp	#,
	.cfi_remember_state
	.cfi_def_cfa_offset 56
	popq	%rbx	#
	.cfi_def_cfa_offset 48
	popq	%rbp	#
	.cfi_def_cfa_offset 40
	popq	%r12	#
	.cfi_def_cfa_offset 32
	popq	%r13	#
	.cfi_def_cfa_offset 24
	popq	%r14	#
	.cfi_def_cfa_offset 16
	popq	%r15	#
	.cfi_def_cfa_offset 8
	ret	
	.p2align 4,,10
	.p2align 3
.L65:
	.cfi_restore_state
	movq	(%r12), %rdi	# MEM[(struct Board * &)_5(D)], prephitmp_155
# src/../include/Board.hpp:108:         board[board_col + i] &= ~(tetrimino_rotation.tet_cols[i] << height);
	movzwl	(%rbx), %edx	# MEM[(const value_type &)_2(D)], MEM[(const value_type &)_2(D)]
	addq	%rdi, %rbp	# prephitmp_155, _282
	shlx	%eax, %edx, %edx	# _59, MEM[(const value_type &)_2(D)], tmp300
# src/../include/Board.hpp:108:         board[board_col + i] &= ~(tetrimino_rotation.tet_cols[i] << height);
	notl	%edx	# tmp301
# src/../include/Board.hpp:108:         board[board_col + i] &= ~(tetrimino_rotation.tet_cols[i] << height);
	andw	%dx, -2(%rbp)	# tmp301, MEM[(value_type &)_282 + 18446744073709551614]
# src/../include/Board.hpp:108:         board[board_col + i] &= ~(tetrimino_rotation.tet_cols[i] << height);
	movzwl	2(%rbx), %edx	# MEM[(const value_type &)_2(D)], MEM[(const value_type &)_2(D)]
	shlx	%eax, %edx, %eax	# _59, MEM[(const value_type &)_2(D)], tmp303
# src/../include/Board.hpp:108:         board[board_col + i] &= ~(tetrimino_rotation.tet_cols[i] << height);
	notl	%eax	# tmp304
# src/../include/Board.hpp:108:         board[board_col + i] &= ~(tetrimino_rotation.tet_cols[i] << height);
	andw	%ax, 0(%rbp)	# tmp304, *_282
	jmp	.L61	#
	.cfi_endproc
	.section	.text.unlikely
	.cfi_startproc
	.type	_ZZN23gen_functor_array_innerI28find_best_board_tuple_switchvUlvE_7types_tIJPKSt5arrayItLm10EERPS4_S8_RdRKSt6vectorIdSaIdEEEES2_IJ9TetriminoIJ17TetriminoRotationIJtEEEESG_IJSI_SH_IJttEESI_SK_EESL_SG_IJSI_SK_EESM_SG_IJSK_SK_SI_SI_EESG_IJSH_IJEESH_IJtttEEEEEES2_IJSJ_SL_SM_SN_SQ_EESt16integer_sequenceImJLm0ELm1ELm2ELm3ELm4ELm5ELm6EEEEclES1_ENUlRKSt7variantIJSJ_SL_SM_SN_SQ_EEOS6_S8_S8_S9_SE_E_4_FUNESZ_S10_S8_S8_S9_SE_.cold.103, @function
_ZZN23gen_functor_array_innerI28find_best_board_tuple_switchvUlvE_7types_tIJPKSt5arrayItLm10EERPS4_S8_RdRKSt6vectorIdSaIdEEEES2_IJ9TetriminoIJ17TetriminoRotationIJtEEEESG_IJSI_SH_IJttEESI_SK_EESL_SG_IJSI_SK_EESM_SG_IJSK_SK_SI_SI_EESG_IJSH_IJEESH_IJtttEEEEEES2_IJSJ_SL_SM_SN_SQ_EESt16integer_sequenceImJLm0ELm1ELm2ELm3ELm4ELm5ELm6EEEEclES1_ENUlRKSt7variantIJSJ_SL_SM_SN_SQ_EEOS6_S8_S8_S9_SE_E_4_FUNESZ_S10_S8_S8_S9_SE_.cold.103:
.LFSB10281:
.L64:
	.cfi_def_cfa_offset 112
	.cfi_offset 3, -56
	.cfi_offset 6, -48
	.cfi_offset 12, -40
	.cfi_offset 13, -32
	.cfi_offset 14, -24
	.cfi_offset 15, -16
# /usr/include/c++/8/variant:1023:   { _GLIBCXX_THROW_OR_ABORT(bad_variant_access(__what)); }
	call	abort@PLT	#
	.cfi_endproc
.LFE10281:
	.text
	.size	_ZZN23gen_functor_array_innerI28find_best_board_tuple_switchvUlvE_7types_tIJPKSt5arrayItLm10EERPS4_S8_RdRKSt6vectorIdSaIdEEEES2_IJ9TetriminoIJ17TetriminoRotationIJtEEEESG_IJSI_SH_IJttEESI_SK_EESL_SG_IJSI_SK_EESM_SG_IJSK_SK_SI_SI_EESG_IJSH_IJEESH_IJtttEEEEEES2_IJSJ_SL_SM_SN_SQ_EESt16integer_sequenceImJLm0ELm1ELm2ELm3ELm4ELm5ELm6EEEEclES1_ENUlRKSt7variantIJSJ_SL_SM_SN_SQ_EEOS6_S8_S8_S9_SE_E_4_FUNESZ_S10_S8_S8_S9_SE_, .-_ZZN23gen_functor_array_innerI28find_best_board_tuple_switchvUlvE_7types_tIJPKSt5arrayItLm10EERPS4_S8_RdRKSt6vectorIdSaIdEEEES2_IJ9TetriminoIJ17TetriminoRotationIJtEEEESG_IJSI_SH_IJttEESI_SK_EESL_SG_IJSI_SK_EESM_SG_IJSK_SK_SI_SI_EESG_IJSH_IJEESH_IJtttEEEEEES2_IJSJ_SL_SM_SN_SQ_EESt16integer_sequenceImJLm0ELm1ELm2ELm3ELm4ELm5ELm6EEEEclES1_ENUlRKSt7variantIJSJ_SL_SM_SN_SQ_EEOS6_S8_S8_S9_SE_E_4_FUNESZ_S10_S8_S8_S9_SE_
	.section	.text.unlikely
	.size	_ZZN23gen_functor_array_innerI28find_best_board_tuple_switchvUlvE_7types_tIJPKSt5arrayItLm10EERPS4_S8_RdRKSt6vectorIdSaIdEEEES2_IJ9TetriminoIJ17TetriminoRotationIJtEEEESG_IJSI_SH_IJttEESI_SK_EESL_SG_IJSI_SK_EESM_SG_IJSK_SK_SI_SI_EESG_IJSH_IJEESH_IJtttEEEEEES2_IJSJ_SL_SM_SN_SQ_EESt16integer_sequenceImJLm0ELm1ELm2ELm3ELm4ELm5ELm6EEEEclES1_ENUlRKSt7variantIJSJ_SL_SM_SN_SQ_EEOS6_S8_S8_S9_SE_E_4_FUNESZ_S10_S8_S8_S9_SE_.cold.103, .-_ZZN23gen_functor_array_innerI28find_best_board_tuple_switchvUlvE_7types_tIJPKSt5arrayItLm10EERPS4_S8_RdRKSt6vectorIdSaIdEEEES2_IJ9TetriminoIJ17TetriminoRotationIJtEEEESG_IJSI_SH_IJttEESI_SK_EESL_SG_IJSI_SK_EESM_SG_IJSK_SK_SI_SI_EESG_IJSH_IJEESH_IJtttEEEEEES2_IJSJ_SL_SM_SN_SQ_EESt16integer_sequenceImJLm0ELm1ELm2ELm3ELm4ELm5ELm6EEEEclES1_ENUlRKSt7variantIJSJ_SL_SM_SN_SQ_EEOS6_S8_S8_S9_SE_E_4_FUNESZ_S10_S8_S8_S9_SE_.cold.103
.LCOLDE3:
	.text
.LHOTE3:
	.section	.text.unlikely
.LCOLDB4:
	.text
.LHOTB4:
	.p2align 4,,15
	.type	_ZZN23gen_functor_array_innerI28find_best_board_tuple_switchvUlvE_7types_tIJPKSt5arrayItLm10EERPS4_S8_RdRKSt6vectorIdSaIdEEEES2_IJ9TetriminoIJ17TetriminoRotationIJtEEEESG_IJSI_SH_IJttEESI_SK_EESL_SG_IJSI_SK_EESM_SG_IJSK_SK_SI_SI_EESG_IJSH_IJEESH_IJtttEEEEEES2_IJSJ_SL_SM_SN_SQ_EESt16integer_sequenceImJLm0ELm1ELm2ELm3ELm4ELm5ELm6EEEEclES1_ENUlRKSt7variantIJSJ_SL_SM_SN_SQ_EEOS6_S8_S8_S9_SE_E3_4_FUNESZ_S10_S8_S8_S9_SE_, @function
_ZZN23gen_functor_array_innerI28find_best_board_tuple_switchvUlvE_7types_tIJPKSt5arrayItLm10EERPS4_S8_RdRKSt6vectorIdSaIdEEEES2_IJ9TetriminoIJ17TetriminoRotationIJtEEEESG_IJSI_SH_IJttEESI_SK_EESL_SG_IJSI_SK_EESM_SG_IJSK_SK_SI_SI_EESG_IJSH_IJEESH_IJtttEEEEEES2_IJSJ_SL_SM_SN_SQ_EESt16integer_sequenceImJLm0ELm1ELm2ELm3ELm4ELm5ELm6EEEEclES1_ENUlRKSt7variantIJSJ_SL_SM_SN_SQ_EEOS6_S8_S8_S9_SE_E3_4_FUNESZ_S10_S8_S8_S9_SE_:
.LFB10356:
	.cfi_startproc
	pushq	%r15	#
	.cfi_def_cfa_offset 16
	.cfi_offset 15, -16
	pushq	%r14	#
	.cfi_def_cfa_offset 24
	.cfi_offset 14, -24
	pushq	%r13	#
	.cfi_def_cfa_offset 32
	.cfi_offset 13, -32
	pushq	%r12	#
	.cfi_def_cfa_offset 40
	.cfi_offset 12, -40
	pushq	%rbp	#
	.cfi_def_cfa_offset 48
	.cfi_offset 6, -48
	pushq	%rbx	#
	.cfi_def_cfa_offset 56
	.cfi_offset 3, -56
	subq	$56, %rsp	#,
	.cfi_def_cfa_offset 112
# /usr/include/c++/8/variant:1355:       if (__v.index() != _Np)
	cmpb	$2, 28(%rdi)	#, MEM[(unsigned char *)_2(D) + 28B]
# src/../include/constexpr_func_arr.hpp:239: 		};
	movq	(%rsi), %r13	# *_3(D), _9
# src/../include/constexpr_func_arr.hpp:233: 				[](variant_t const& vrnt, Args&&... args) noexcept-> Ret
	movq	%r8, (%rsp)	# D.153733, %sfp
# /usr/include/c++/8/variant:1355:       if (__v.index() != _Np)
	jne	.L86	#,
	movq	%rdi, %rbx	# D.153729, D.153729
# src/../include/Board.hpp:390:         best_score = -INFINITY;
	movq	.LC1(%rip), %rdi	#, tmp575
	movq	%rdx, %r14	# D.153731, D.153731
	movq	%rcx, %rbp	# D.153732, D.153732
# src/../include/Board.hpp:391:         *test_board = *input_board;
	movdqu	0(%r13), %xmm3	# *_9, tmp576
	movl	$1, %r15d	#, ivtmp.265
# src/../include/Board.hpp:390:         best_score = -INFINITY;
	movq	%rdi, (%r8)	# tmp575, *_6(D)
# src/../include/Board.hpp:391:         *test_board = *input_board;
	movq	(%rcx), %rdi	# MEM[(struct Board * &)_5(D)], prephitmp_767
	movups	%xmm3, (%rdi)	# tmp576, *_12
	movl	16(%r13), %eax	# *_9, *_9
	movl	%eax, 16(%rdi)	# *_9, *_12
# src/../include/Board.hpp:419:                 test_board_score = evaluate_board_GA_internet_no_params(*test_board, line_mask);
	leaq	46(%rsp), %rax	#, tmp560
	movq	%rax, 16(%rsp)	# tmp560, %sfp
	jmp	.L76	#
	.p2align 4,,10
	.p2align 3
.L71:
	addq	$1, %r15	#, ivtmp.265
# src/../include/Board.hpp:395:             for (width_t i = 0; i < BLOCKS_W - tetrimino_rotation.tet_cols.size() + 1 ; i++)
	cmpq	$10, %r15	#, ivtmp.265
	je	.L90	#,
.L76:
	leaq	(%r15,%r15), %r12	#, _113
# src/../include/Tetrimino.hpp:18:         return __builtin_ffsll(tet_cols[col]) - 1;
	movzwl	8(%rbx), %esi	# MEM[(const value_type &)_2(D) + 8],
	movq	$-1, %rdx	#, tmp578
	movzwl	10(%rbx), %ecx	# MEM[(const value_type &)_2(D) + 8], MEM[(const value_type &)_2(D) + 8]
	leaq	(%rdi,%r12), %r9	#, _116
# src/../include/Board.hpp:91:     return static_cast<int>(col_height(board[board_col])) - static_cast<int>(tetrimino_rotation.bottom_empty_spaces(tetrimino_col));
	movzwl	-2(%r9), %eax	# MEM[(const value_type &)_116 + 18446744073709551614],
# src/../include/Tetrimino.hpp:18:         return __builtin_ffsll(tet_cols[col]) - 1;
	movq	%rsi, %r8	#,
# src/../include/Board.hpp:91:     return static_cast<int>(col_height(board[board_col])) - static_cast<int>(tetrimino_rotation.bottom_empty_spaces(tetrimino_col));
	movl	%eax, %r11d	#,
# src/../include/Board.hpp:22:     return static_cast<height_t>(63 - __builtin_clzll(static_cast<unsigned long long>((col << 1) | 1)));
	leal	1(%rax,%rax), %eax	#, tmp364
# src/../include/Board.hpp:22:     return static_cast<height_t>(63 - __builtin_clzll(static_cast<unsigned long long>((col << 1) | 1)));
	cltq
	bsrq	%rax, %rax	# tmp365, tmp366
	xorq	$63, %rax	#, tmp366
# src/../include/Tetrimino.hpp:18:         return __builtin_ffsll(tet_cols[col]) - 1;
	bsfq	%rsi, %rsi	# _129, tmp368
	cmove	%rdx, %rsi	# tmp578,, tmp368
# src/../include/Board.hpp:22:     return static_cast<height_t>(63 - __builtin_clzll(static_cast<unsigned long long>((col << 1) | 1)));
	movq	%rax, 8(%rsp)	# tmp366, %sfp
# src/../include/Tetrimino.hpp:18:         return __builtin_ffsll(tet_cols[col]) - 1;
	movq	%rdx, %rax	# tmp578, tmp578
# src/../include/Board.hpp:91:     return static_cast<int>(col_height(board[board_col])) - static_cast<int>(tetrimino_rotation.bottom_empty_spaces(tetrimino_col));
	movzwl	(%r9), %edx	# *_116,
	movl	%edx, %r10d	#,
# src/../include/Board.hpp:22:     return static_cast<height_t>(63 - __builtin_clzll(static_cast<unsigned long long>((col << 1) | 1)));
	leal	1(%rdx,%rdx), %edx	#, tmp372
# src/../include/Board.hpp:91:     return static_cast<int>(col_height(board[board_col])) - static_cast<int>(tetrimino_rotation.bottom_empty_spaces(tetrimino_col));
	movzwl	%si, %esi	# tmp368, tmp382
# src/../include/Board.hpp:22:     return static_cast<height_t>(63 - __builtin_clzll(static_cast<unsigned long long>((col << 1) | 1)));
	movslq	%edx, %rdx	# tmp372, tmp373
	bsrq	%rdx, %rdx	# tmp373, tmp374
	xorq	$63, %rdx	#, tmp374
# src/../include/Tetrimino.hpp:18:         return __builtin_ffsll(tet_cols[col]) - 1;
	bsfq	%rcx, %rcx	# MEM[(const value_type &)_2(D) + 8], tmp376
	cmove	%rax, %rcx	# tmp579,, tmp376
# src/../include/Board.hpp:22:     return static_cast<height_t>(63 - __builtin_clzll(static_cast<unsigned long long>((col << 1) | 1)));
	movl	$63, %eax	#, tmp378
	subw	8(%rsp), %ax	# %sfp, tmp378
# src/../include/Board.hpp:91:     return static_cast<int>(col_height(board[board_col])) - static_cast<int>(tetrimino_rotation.bottom_empty_spaces(tetrimino_col));
	movzwl	%ax, %eax	# tmp378, tmp380
# src/../include/Board.hpp:91:     return static_cast<int>(col_height(board[board_col])) - static_cast<int>(tetrimino_rotation.bottom_empty_spaces(tetrimino_col));
	subl	%esi, %eax	# tmp382, tmp383
# src/../include/Board.hpp:22:     return static_cast<height_t>(63 - __builtin_clzll(static_cast<unsigned long long>((col << 1) | 1)));
	movl	$63, %esi	#, tmp384
# src/../include/Board.hpp:91:     return static_cast<int>(col_height(board[board_col])) - static_cast<int>(tetrimino_rotation.bottom_empty_spaces(tetrimino_col));
	movzwl	%cx, %ecx	# tmp376, tmp388
# src/../include/Board.hpp:22:     return static_cast<height_t>(63 - __builtin_clzll(static_cast<unsigned long long>((col << 1) | 1)));
	subl	%edx, %esi	# tmp374, tmp384
	movzwl	%si, %edx	# tmp384,
# src/../include/Board.hpp:91:     return static_cast<int>(col_height(board[board_col])) - static_cast<int>(tetrimino_rotation.bottom_empty_spaces(tetrimino_col));
	subl	%ecx, %edx	# tmp388, tmp389
	cmpl	%edx, %eax	# tmp389, tmp383
	cmovl	%edx, %eax	# tmp383,, tmp389, highest_drop_height
# src/../include/Board.hpp:410:                 if (highest_drop_height + tetrimino_rotation.height - 1 >= BLOCKS_H)
	movzwl	12(%rbx), %edx	# MEM[(const struct TetriminoRotation &)_2(D) + 8].height, MEM[(const struct TetriminoRotation &)_2(D) + 8].height
	addl	%eax, %edx	# highest_drop_height, tmp391
# src/../include/Board.hpp:410:                 if (highest_drop_height + tetrimino_rotation.height - 1 >= BLOCKS_H)
	cmpl	$16, %edx	#, tmp391
	jg	.L71	#,
	movzwl	%ax, %eax	# highest_drop_height, _160
# src/../include/Board.hpp:419:                 test_board_score = evaluate_board_GA_internet_no_params(*test_board, line_mask);
	movq	16(%rsp), %rsi	# %sfp,
# src/../include/Board.hpp:99:         board[board_col + i] |= static_cast<height_t>(tetrimino_rotation.tet_cols[i] << height);
	shlx	%eax, %r8d, %r8d	# _160, _129, tmp393
# src/../include/Board.hpp:99:         board[board_col + i] |= static_cast<height_t>(tetrimino_rotation.tet_cols[i] << height);
	orl	%r11d, %r8d	# _120, tmp394
# src/../include/Board.hpp:99:         board[board_col + i] |= static_cast<height_t>(tetrimino_rotation.tet_cols[i] << height);
	movl	%eax, 8(%rsp)	# _160, %sfp
# src/../include/Board.hpp:99:         board[board_col + i] |= static_cast<height_t>(tetrimino_rotation.tet_cols[i] << height);
	movw	%r8w, -2(%r9)	# tmp394, MEM[(value_type &)_116 + 18446744073709551614]
# src/../include/Board.hpp:99:         board[board_col + i] |= static_cast<height_t>(tetrimino_rotation.tet_cols[i] << height);
	movzwl	10(%rbx), %edx	# MEM[(const value_type &)_2(D) + 8], MEM[(const value_type &)_2(D) + 8]
	shlx	%eax, %edx, %edx	# _160, MEM[(const value_type &)_2(D) + 8], tmp396
# src/../include/Board.hpp:99:         board[board_col + i] |= static_cast<height_t>(tetrimino_rotation.tet_cols[i] << height);
	orl	%edx, %r10d	# tmp396, tmp397
	movw	%r10w, (%r9)	# tmp397, MEM[(value_type &)_116]
# src/../include/Board.hpp:419:                 test_board_score = evaluate_board_GA_internet_no_params(*test_board, line_mask);
	call	_Z36evaluate_board_GA_internet_no_paramsRKSt5arrayItLm10EERt	#
# src/../include/Board.hpp:421:                 if (test_board_score > best_score)
	movq	(%rsp), %rdi	# %sfp, D.153733
	movl	8(%rsp), %eax	# %sfp, _160
	comisd	(%rdi), %xmm0	# *_6(D), test_board_score
	jbe	.L87	#,
# src/../include/Board.hpp:424:                     destroy_lines_internet(*test_board, line_mask);
	movq	0(%rbp), %rax	# MEM[(struct Board * &)_5(D)], _178
# src/../include/Board.hpp:135:     mask =~ mask;
	movzwl	46(%rsp), %edx	# line_mask, mask
# src/../include/Board.hpp:423:                     best_score = test_board_score;
	movsd	%xmm0, (%rdi)	# test_board_score, *_6(D)
	addq	$1, %r15	#, ivtmp.265
# src/../include/Board.hpp:138:         board[i] = static_cast<height_t>(_pext_u32(board[i], mask));
	movzwl	(%rax), %ecx	# MEM[(value_type &)_178], MEM[(value_type &)_178]
# src/../include/Board.hpp:135:     mask =~ mask;
	notl	%edx	# mask
# src/../include/Board.hpp:138:         board[i] = static_cast<height_t>(_pext_u32(board[i], mask));
	movzwl	%dx, %edx	# mask, _495
# /usr/lib/gcc/x86_64-linux-gnu/8/include/bmi2intrin.h:55:   return __builtin_ia32_pext_si (__X, __Y);
	pext	%edx, %ecx, %ecx	# _495, MEM[(value_type &)_178], tmp401
# src/../include/Board.hpp:138:         board[i] = static_cast<height_t>(_pext_u32(board[i], mask));
	movw	%cx, (%rax)	# tmp401, MEM[(value_type &)_178]
# src/../include/Board.hpp:138:         board[i] = static_cast<height_t>(_pext_u32(board[i], mask));
	movzwl	2(%rax), %ecx	# MEM[(value_type &)_178], MEM[(value_type &)_178]
# /usr/lib/gcc/x86_64-linux-gnu/8/include/bmi2intrin.h:55:   return __builtin_ia32_pext_si (__X, __Y);
	pext	%edx, %ecx, %ecx	# _495, MEM[(value_type &)_178], tmp405
# src/../include/Board.hpp:138:         board[i] = static_cast<height_t>(_pext_u32(board[i], mask));
	movw	%cx, 2(%rax)	# tmp405, MEM[(value_type &)_178]
# src/../include/Board.hpp:138:         board[i] = static_cast<height_t>(_pext_u32(board[i], mask));
	movzwl	4(%rax), %ecx	# MEM[(value_type &)_178], MEM[(value_type &)_178]
# /usr/lib/gcc/x86_64-linux-gnu/8/include/bmi2intrin.h:55:   return __builtin_ia32_pext_si (__X, __Y);
	pext	%edx, %ecx, %ecx	# _495, MEM[(value_type &)_178], tmp409
# src/../include/Board.hpp:138:         board[i] = static_cast<height_t>(_pext_u32(board[i], mask));
	movw	%cx, 4(%rax)	# tmp409, MEM[(value_type &)_178]
# src/../include/Board.hpp:138:         board[i] = static_cast<height_t>(_pext_u32(board[i], mask));
	movzwl	6(%rax), %ecx	# MEM[(value_type &)_178], MEM[(value_type &)_178]
# /usr/lib/gcc/x86_64-linux-gnu/8/include/bmi2intrin.h:55:   return __builtin_ia32_pext_si (__X, __Y);
	pext	%edx, %ecx, %ecx	# _495, MEM[(value_type &)_178], tmp413
# src/../include/Board.hpp:138:         board[i] = static_cast<height_t>(_pext_u32(board[i], mask));
	movw	%cx, 6(%rax)	# tmp413, MEM[(value_type &)_178]
# src/../include/Board.hpp:138:         board[i] = static_cast<height_t>(_pext_u32(board[i], mask));
	movzwl	8(%rax), %ecx	# MEM[(value_type &)_178], MEM[(value_type &)_178]
# /usr/lib/gcc/x86_64-linux-gnu/8/include/bmi2intrin.h:55:   return __builtin_ia32_pext_si (__X, __Y);
	pext	%edx, %ecx, %ecx	# _495, MEM[(value_type &)_178], tmp417
# src/../include/Board.hpp:138:         board[i] = static_cast<height_t>(_pext_u32(board[i], mask));
	movw	%cx, 8(%rax)	# tmp417, MEM[(value_type &)_178]
# src/../include/Board.hpp:138:         board[i] = static_cast<height_t>(_pext_u32(board[i], mask));
	movzwl	10(%rax), %ecx	# MEM[(value_type &)_178], MEM[(value_type &)_178]
# /usr/lib/gcc/x86_64-linux-gnu/8/include/bmi2intrin.h:55:   return __builtin_ia32_pext_si (__X, __Y);
	pext	%edx, %ecx, %ecx	# _495, MEM[(value_type &)_178], tmp421
# src/../include/Board.hpp:138:         board[i] = static_cast<height_t>(_pext_u32(board[i], mask));
	movw	%cx, 10(%rax)	# tmp421, MEM[(value_type &)_178]
# src/../include/Board.hpp:138:         board[i] = static_cast<height_t>(_pext_u32(board[i], mask));
	movzwl	12(%rax), %ecx	# MEM[(value_type &)_178], MEM[(value_type &)_178]
# /usr/lib/gcc/x86_64-linux-gnu/8/include/bmi2intrin.h:55:   return __builtin_ia32_pext_si (__X, __Y);
	pext	%edx, %ecx, %ecx	# _495, MEM[(value_type &)_178], tmp425
# src/../include/Board.hpp:138:         board[i] = static_cast<height_t>(_pext_u32(board[i], mask));
	movw	%cx, 12(%rax)	# tmp425, MEM[(value_type &)_178]
# src/../include/Board.hpp:138:         board[i] = static_cast<height_t>(_pext_u32(board[i], mask));
	movzwl	14(%rax), %ecx	# MEM[(value_type &)_178], MEM[(value_type &)_178]
# /usr/lib/gcc/x86_64-linux-gnu/8/include/bmi2intrin.h:55:   return __builtin_ia32_pext_si (__X, __Y);
	pext	%edx, %ecx, %ecx	# _495, MEM[(value_type &)_178], tmp429
# src/../include/Board.hpp:138:         board[i] = static_cast<height_t>(_pext_u32(board[i], mask));
	movw	%cx, 14(%rax)	# tmp429, MEM[(value_type &)_178]
# src/../include/Board.hpp:138:         board[i] = static_cast<height_t>(_pext_u32(board[i], mask));
	movzwl	16(%rax), %ecx	# MEM[(value_type &)_178], MEM[(value_type &)_178]
# /usr/lib/gcc/x86_64-linux-gnu/8/include/bmi2intrin.h:55:   return __builtin_ia32_pext_si (__X, __Y);
	pext	%edx, %ecx, %ecx	# _495, MEM[(value_type &)_178], tmp433
# src/../include/Board.hpp:138:         board[i] = static_cast<height_t>(_pext_u32(board[i], mask));
	movw	%cx, 16(%rax)	# tmp433, MEM[(value_type &)_178]
# src/../include/Board.hpp:138:         board[i] = static_cast<height_t>(_pext_u32(board[i], mask));
	movzwl	18(%rax), %ecx	# MEM[(value_type &)_178], MEM[(value_type &)_178]
# /usr/lib/gcc/x86_64-linux-gnu/8/include/bmi2intrin.h:55:   return __builtin_ia32_pext_si (__X, __Y);
	pext	%edx, %ecx, %edx	# _495, MEM[(value_type &)_178], tmp437
# src/../include/Board.hpp:138:         board[i] = static_cast<height_t>(_pext_u32(board[i], mask));
	movw	%dx, 18(%rax)	# tmp437, MEM[(value_type &)_178]
# /usr/include/c++/8/bits/move.h:194:       __a = _GLIBCXX_MOVE(__b);
	movq	(%r14), %rdx	# MEM[(struct array * &)_4(D)], _189
# src/../include/Board.hpp:426:                     *test_board = *input_board;
	movdqu	0(%r13), %xmm1	# *_9, tmp585
# /usr/include/c++/8/bits/move.h:194:       __a = _GLIBCXX_MOVE(__b);
	movq	%rdx, 0(%rbp)	# _189, *_5(D)
# /usr/include/c++/8/bits/move.h:195:       __b = _GLIBCXX_MOVE(__tmp);
	movq	%rax, (%r14)	# _178, *_4(D)
# src/../include/Board.hpp:426:                     *test_board = *input_board;
	movq	0(%rbp), %rdi	# MEM[(struct Board * &)_5(D)], prephitmp_767
	movups	%xmm1, (%rdi)	# tmp585, *_192
	movl	16(%r13), %eax	# *_9, *_9
	movl	%eax, 16(%rdi)	# *_9, *_192
# src/../include/Board.hpp:395:             for (width_t i = 0; i < BLOCKS_W - tetrimino_rotation.tet_cols.size() + 1 ; i++)
	cmpq	$10, %r15	#, ivtmp.265
	jne	.L76	#,
.L90:
# src/../include/Board.hpp:419:                 test_board_score = evaluate_board_GA_internet_no_params(*test_board, line_mask);
	leaq	46(%rsp), %rax	#, tmp559
# src/../include/Board.hpp:395:             for (width_t i = 0; i < BLOCKS_W - tetrimino_rotation.tet_cols.size() + 1 ; i++)
	movl	$1, %r8d	#, ivtmp.252
# src/../include/Board.hpp:419:                 test_board_score = evaluate_board_GA_internet_no_params(*test_board, line_mask);
	movq	%r13, 24(%rsp)	# _9, %sfp
	movq	%rax, 16(%rsp)	# tmp559, %sfp
	movq	%rbp, %rax	# D.153732, D.153732
	movq	%r8, %rbp	# ivtmp.252, ivtmp.252
	movq	%r14, %r8	# D.153731, D.153731
	movq	%rax, %r13	# D.153732, D.153732
	jmp	.L75	#
	.p2align 4,,10
	.p2align 3
.L82:
# src/../include/Board.hpp:395:             for (width_t i = 0; i < BLOCKS_W - tetrimino_rotation.tet_cols.size() + 1 ; i++)
	cmpq	$9, %rbp	#, ivtmp.252
	je	.L91	#,
.L75:
	leaq	(%rbp,%rbp), %r15	#, _842
# src/../include/Tetrimino.hpp:18:         return __builtin_ffsll(tet_cols[col]) - 1;
	movzwl	(%rbx), %r12d	# MEM[(const value_type &)_2(D)],
	movzwl	2(%rbx), %r11d	# MEM[(const value_type &)_2(D)], MEM[(const value_type &)_2(D)]
	movq	$-1, %rsi	#, tmp587
	leaq	(%rdi,%r15), %rdx	#, _841
	movq	%rsi, %r14	# tmp587, tmp587
# src/../include/Board.hpp:91:     return static_cast<int>(col_height(board[board_col])) - static_cast<int>(tetrimino_rotation.bottom_empty_spaces(tetrimino_col));
	movzwl	-2(%rdx), %eax	# MEM[(const value_type &)_841 + 18446744073709551614],
# src/../include/Tetrimino.hpp:18:         return __builtin_ffsll(tet_cols[col]) - 1;
	movq	%r12, %rcx	#,
# src/../include/Board.hpp:91:     return static_cast<int>(col_height(board[board_col])) - static_cast<int>(tetrimino_rotation.bottom_empty_spaces(tetrimino_col));
	movl	%eax, %r10d	#,
# src/../include/Board.hpp:22:     return static_cast<height_t>(63 - __builtin_clzll(static_cast<unsigned long long>((col << 1) | 1)));
	leal	1(%rax,%rax), %eax	#, tmp451
# src/../include/Board.hpp:22:     return static_cast<height_t>(63 - __builtin_clzll(static_cast<unsigned long long>((col << 1) | 1)));
	cltq
	bsrq	%rax, %rax	# tmp452, tmp453
	xorq	$63, %rax	#, tmp453
# src/../include/Tetrimino.hpp:18:         return __builtin_ffsll(tet_cols[col]) - 1;
	bsfq	%r12, %r12	# _30, tmp455
	cmove	%rsi, %r12	# tmp587,, tmp455
# src/../include/Board.hpp:91:     return static_cast<int>(col_height(board[board_col])) - static_cast<int>(tetrimino_rotation.bottom_empty_spaces(tetrimino_col));
	movzwl	(%rdx), %esi	# *_841,
	movl	%esi, %r9d	#,
# src/../include/Board.hpp:22:     return static_cast<height_t>(63 - __builtin_clzll(static_cast<unsigned long long>((col << 1) | 1)));
	leal	1(%rsi,%rsi), %esi	#, tmp459
# src/../include/Board.hpp:91:     return static_cast<int>(col_height(board[board_col])) - static_cast<int>(tetrimino_rotation.bottom_empty_spaces(tetrimino_col));
	movzwl	%r12w, %r12d	# tmp455, tmp469
# src/../include/Board.hpp:22:     return static_cast<height_t>(63 - __builtin_clzll(static_cast<unsigned long long>((col << 1) | 1)));
	movslq	%esi, %rsi	# tmp459, tmp460
	bsrq	%rsi, %rsi	# tmp460, tmp461
	xorq	$63, %rsi	#, tmp461
# src/../include/Tetrimino.hpp:18:         return __builtin_ffsll(tet_cols[col]) - 1;
	bsfq	%r11, %r11	# MEM[(const value_type &)_2(D)], tmp463
	cmove	%r14, %r11	# tmp588,, tmp463
# src/../include/Board.hpp:22:     return static_cast<height_t>(63 - __builtin_clzll(static_cast<unsigned long long>((col << 1) | 1)));
	movl	$63, %r14d	#, tmp465
	subl	%eax, %r14d	# tmp453, tmp465
	movzwl	%r14w, %eax	# tmp465,
# src/../include/Board.hpp:91:     return static_cast<int>(col_height(board[board_col])) - static_cast<int>(tetrimino_rotation.bottom_empty_spaces(tetrimino_col));
	movzwl	%r11w, %r11d	# tmp463, tmp475
# src/../include/Tetrimino.hpp:18:         return __builtin_ffsll(tet_cols[col]) - 1;
	movq	$-1, %r14	#, tmp591
# src/../include/Board.hpp:91:     return static_cast<int>(col_height(board[board_col])) - static_cast<int>(tetrimino_rotation.bottom_empty_spaces(tetrimino_col));
	subl	%r12d, %eax	# tmp469, tmp470
# src/../include/Board.hpp:22:     return static_cast<height_t>(63 - __builtin_clzll(static_cast<unsigned long long>((col << 1) | 1)));
	movl	$63, %r12d	#, tmp471
	subl	%esi, %r12d	# tmp461, tmp471
# src/../include/Board.hpp:91:     return static_cast<int>(col_height(board[board_col])) - static_cast<int>(tetrimino_rotation.bottom_empty_spaces(tetrimino_col));
	movzwl	%r12w, %r12d	# tmp471, tmp473
# src/../include/Board.hpp:91:     return static_cast<int>(col_height(board[board_col])) - static_cast<int>(tetrimino_rotation.bottom_empty_spaces(tetrimino_col));
	subl	%r11d, %r12d	# tmp475, tmp476
# src/../include/Tetrimino.hpp:18:         return __builtin_ffsll(tet_cols[col]) - 1;
	movzwl	4(%rbx), %r11d	# MEM[(const value_type &)_2(D)], MEM[(const value_type &)_2(D)]
	cmpl	%r12d, %eax	# tmp476, tmp470
	cmovl	%r12d, %eax	# tmp470,, tmp476, highest_drop_height
# src/../include/Board.hpp:91:     return static_cast<int>(col_height(board[board_col])) - static_cast<int>(tetrimino_rotation.bottom_empty_spaces(tetrimino_col));
	movzwl	2(%rdx), %r12d	# MEM[(const value_type &)_841 + 2],
	addq	$1, %rbp	#, ivtmp.252
	movl	%r12d, %esi	#,
# src/../include/Board.hpp:22:     return static_cast<height_t>(63 - __builtin_clzll(static_cast<unsigned long long>((col << 1) | 1)));
	leal	1(%r12,%r12), %r12d	#, tmp479
# src/../include/Board.hpp:22:     return static_cast<height_t>(63 - __builtin_clzll(static_cast<unsigned long long>((col << 1) | 1)));
	movslq	%r12d, %r12	# tmp479, tmp480
	bsrq	%r12, %r12	# tmp480, tmp481
	xorq	$63, %r12	#, tmp481
# src/../include/Tetrimino.hpp:18:         return __builtin_ffsll(tet_cols[col]) - 1;
	bsfq	%r11, %r11	# MEM[(const value_type &)_2(D)], tmp483
	cmove	%r14, %r11	# tmp591,, tmp483
# src/../include/Board.hpp:22:     return static_cast<height_t>(63 - __builtin_clzll(static_cast<unsigned long long>((col << 1) | 1)));
	movl	$63, %r14d	#, tmp485
	subl	%r12d, %r14d	# tmp481, tmp485
	movzwl	%r14w, %r12d	# tmp485,
# src/../include/Board.hpp:91:     return static_cast<int>(col_height(board[board_col])) - static_cast<int>(tetrimino_rotation.bottom_empty_spaces(tetrimino_col));
	movzwl	%r11w, %r11d	# tmp483, tmp489
# src/../include/Board.hpp:91:     return static_cast<int>(col_height(board[board_col])) - static_cast<int>(tetrimino_rotation.bottom_empty_spaces(tetrimino_col));
	subl	%r11d, %r12d	# tmp489, tmp490
	cmpl	%eax, %r12d	# highest_drop_height, tmp490
	cmovl	%eax, %r12d	# tmp490,, highest_drop_height, highest_drop_height
# src/../include/Board.hpp:410:                 if (highest_drop_height + tetrimino_rotation.height - 1 >= BLOCKS_H)
	movzwl	6(%rbx), %eax	# MEM[(const struct TetriminoRotation &)_2(D)].height, MEM[(const struct TetriminoRotation &)_2(D)].height
	addl	%r12d, %eax	# highest_drop_height, tmp492
# src/../include/Board.hpp:410:                 if (highest_drop_height + tetrimino_rotation.height - 1 >= BLOCKS_H)
	cmpl	$16, %eax	#, tmp492
	jg	.L82	#,
	movzwl	%r12w, %r12d	# highest_drop_height, _63
	movq	%r8, 8(%rsp)	# D.153731, %sfp
# src/../include/Board.hpp:99:         board[board_col + i] |= static_cast<height_t>(tetrimino_rotation.tet_cols[i] << height);
	shlx	%r12d, %ecx, %ecx	# _63, _30, tmp494
# src/../include/Board.hpp:99:         board[board_col + i] |= static_cast<height_t>(tetrimino_rotation.tet_cols[i] << height);
	orl	%r10d, %ecx	# _21, tmp495
	movw	%cx, -2(%rdx)	# tmp495, MEM[(value_type &)_841 + 18446744073709551614]
# src/../include/Board.hpp:99:         board[board_col + i] |= static_cast<height_t>(tetrimino_rotation.tet_cols[i] << height);
	movzwl	2(%rbx), %eax	# MEM[(const value_type &)_2(D)], MEM[(const value_type &)_2(D)]
	shlx	%r12d, %eax, %eax	# _63, MEM[(const value_type &)_2(D)], tmp497
# src/../include/Board.hpp:99:         board[board_col + i] |= static_cast<height_t>(tetrimino_rotation.tet_cols[i] << height);
	orl	%eax, %r9d	# tmp497, tmp498
	movw	%r9w, (%rdx)	# tmp498, MEM[(value_type &)_841]
# src/../include/Board.hpp:99:         board[board_col + i] |= static_cast<height_t>(tetrimino_rotation.tet_cols[i] << height);
	movzwl	4(%rbx), %eax	# MEM[(const value_type &)_2(D)], MEM[(const value_type &)_2(D)]
	shlx	%r12d, %eax, %eax	# _63, MEM[(const value_type &)_2(D)], tmp500
# src/../include/Board.hpp:99:         board[board_col + i] |= static_cast<height_t>(tetrimino_rotation.tet_cols[i] << height);
	orl	%eax, %esi	# tmp500, tmp501
	movw	%si, 2(%rdx)	# tmp501, MEM[(value_type &)_841 + 2]
# src/../include/Board.hpp:419:                 test_board_score = evaluate_board_GA_internet_no_params(*test_board, line_mask);
	movq	16(%rsp), %rsi	# %sfp,
	call	_Z36evaluate_board_GA_internet_no_paramsRKSt5arrayItLm10EERt	#
# src/../include/Board.hpp:421:                 if (test_board_score > best_score)
	movq	(%rsp), %rax	# %sfp, D.153733
	movq	8(%rsp), %r8	# %sfp, D.153731
	comisd	(%rax), %xmm0	# *_6(D), test_board_score
	jbe	.L88	#,
# src/../include/Board.hpp:423:                     best_score = test_board_score;
	movsd	%xmm0, (%rax)	# test_board_score, *_6(D)
# src/../include/Board.hpp:135:     mask =~ mask;
	movzwl	46(%rsp), %edx	# line_mask, mask
# src/../include/Board.hpp:424:                     destroy_lines_internet(*test_board, line_mask);
	movq	0(%r13), %rax	# MEM[(struct Board * &)_5(D)], _81
# src/../include/Board.hpp:135:     mask =~ mask;
	notl	%edx	# mask
# src/../include/Board.hpp:138:         board[i] = static_cast<height_t>(_pext_u32(board[i], mask));
	movzwl	(%rax), %ecx	# MEM[(value_type &)_81], MEM[(value_type &)_81]
	movzwl	%dx, %edx	# mask, _8
# /usr/lib/gcc/x86_64-linux-gnu/8/include/bmi2intrin.h:55:   return __builtin_ia32_pext_si (__X, __Y);
	pext	%edx, %ecx, %ecx	# _8, MEM[(value_type &)_81], tmp505
# src/../include/Board.hpp:138:         board[i] = static_cast<height_t>(_pext_u32(board[i], mask));
	movw	%cx, (%rax)	# tmp505, MEM[(value_type &)_81]
# src/../include/Board.hpp:138:         board[i] = static_cast<height_t>(_pext_u32(board[i], mask));
	movzwl	2(%rax), %ecx	# MEM[(value_type &)_81], MEM[(value_type &)_81]
# /usr/lib/gcc/x86_64-linux-gnu/8/include/bmi2intrin.h:55:   return __builtin_ia32_pext_si (__X, __Y);
	pext	%edx, %ecx, %ecx	# _8, MEM[(value_type &)_81], tmp509
# src/../include/Board.hpp:138:         board[i] = static_cast<height_t>(_pext_u32(board[i], mask));
	movw	%cx, 2(%rax)	# tmp509, MEM[(value_type &)_81]
# src/../include/Board.hpp:138:         board[i] = static_cast<height_t>(_pext_u32(board[i], mask));
	movzwl	4(%rax), %ecx	# MEM[(value_type &)_81], MEM[(value_type &)_81]
# /usr/lib/gcc/x86_64-linux-gnu/8/include/bmi2intrin.h:55:   return __builtin_ia32_pext_si (__X, __Y);
	pext	%edx, %ecx, %ecx	# _8, MEM[(value_type &)_81], tmp513
# src/../include/Board.hpp:138:         board[i] = static_cast<height_t>(_pext_u32(board[i], mask));
	movw	%cx, 4(%rax)	# tmp513, MEM[(value_type &)_81]
# src/../include/Board.hpp:138:         board[i] = static_cast<height_t>(_pext_u32(board[i], mask));
	movzwl	6(%rax), %ecx	# MEM[(value_type &)_81], MEM[(value_type &)_81]
# /usr/lib/gcc/x86_64-linux-gnu/8/include/bmi2intrin.h:55:   return __builtin_ia32_pext_si (__X, __Y);
	pext	%edx, %ecx, %ecx	# _8, MEM[(value_type &)_81], tmp517
# src/../include/Board.hpp:138:         board[i] = static_cast<height_t>(_pext_u32(board[i], mask));
	movw	%cx, 6(%rax)	# tmp517, MEM[(value_type &)_81]
# src/../include/Board.hpp:138:         board[i] = static_cast<height_t>(_pext_u32(board[i], mask));
	movzwl	8(%rax), %ecx	# MEM[(value_type &)_81], MEM[(value_type &)_81]
# /usr/lib/gcc/x86_64-linux-gnu/8/include/bmi2intrin.h:55:   return __builtin_ia32_pext_si (__X, __Y);
	pext	%edx, %ecx, %ecx	# _8, MEM[(value_type &)_81], tmp521
# src/../include/Board.hpp:138:         board[i] = static_cast<height_t>(_pext_u32(board[i], mask));
	movw	%cx, 8(%rax)	# tmp521, MEM[(value_type &)_81]
# src/../include/Board.hpp:138:         board[i] = static_cast<height_t>(_pext_u32(board[i], mask));
	movzwl	10(%rax), %ecx	# MEM[(value_type &)_81], MEM[(value_type &)_81]
# /usr/lib/gcc/x86_64-linux-gnu/8/include/bmi2intrin.h:55:   return __builtin_ia32_pext_si (__X, __Y);
	pext	%edx, %ecx, %ecx	# _8, MEM[(value_type &)_81], tmp525
# src/../include/Board.hpp:138:         board[i] = static_cast<height_t>(_pext_u32(board[i], mask));
	movw	%cx, 10(%rax)	# tmp525, MEM[(value_type &)_81]
# src/../include/Board.hpp:138:         board[i] = static_cast<height_t>(_pext_u32(board[i], mask));
	movzwl	12(%rax), %ecx	# MEM[(value_type &)_81], MEM[(value_type &)_81]
# /usr/lib/gcc/x86_64-linux-gnu/8/include/bmi2intrin.h:55:   return __builtin_ia32_pext_si (__X, __Y);
	pext	%edx, %ecx, %ecx	# _8, MEM[(value_type &)_81], tmp529
# src/../include/Board.hpp:138:         board[i] = static_cast<height_t>(_pext_u32(board[i], mask));
	movw	%cx, 12(%rax)	# tmp529, MEM[(value_type &)_81]
# src/../include/Board.hpp:138:         board[i] = static_cast<height_t>(_pext_u32(board[i], mask));
	movzwl	14(%rax), %ecx	# MEM[(value_type &)_81], MEM[(value_type &)_81]
# /usr/lib/gcc/x86_64-linux-gnu/8/include/bmi2intrin.h:55:   return __builtin_ia32_pext_si (__X, __Y);
	pext	%edx, %ecx, %ecx	# _8, MEM[(value_type &)_81], tmp533
# src/../include/Board.hpp:138:         board[i] = static_cast<height_t>(_pext_u32(board[i], mask));
	movw	%cx, 14(%rax)	# tmp533, MEM[(value_type &)_81]
# src/../include/Board.hpp:138:         board[i] = static_cast<height_t>(_pext_u32(board[i], mask));
	movzwl	16(%rax), %ecx	# MEM[(value_type &)_81], MEM[(value_type &)_81]
# /usr/lib/gcc/x86_64-linux-gnu/8/include/bmi2intrin.h:55:   return __builtin_ia32_pext_si (__X, __Y);
	pext	%edx, %ecx, %ecx	# _8, MEM[(value_type &)_81], tmp537
# src/../include/Board.hpp:138:         board[i] = static_cast<height_t>(_pext_u32(board[i], mask));
	movw	%cx, 16(%rax)	# tmp537, MEM[(value_type &)_81]
# src/../include/Board.hpp:138:         board[i] = static_cast<height_t>(_pext_u32(board[i], mask));
	movzwl	18(%rax), %ecx	# MEM[(value_type &)_81], MEM[(value_type &)_81]
# /usr/lib/gcc/x86_64-linux-gnu/8/include/bmi2intrin.h:55:   return __builtin_ia32_pext_si (__X, __Y);
	pext	%edx, %ecx, %edx	# _8, MEM[(value_type &)_81], tmp541
# src/../include/Board.hpp:138:         board[i] = static_cast<height_t>(_pext_u32(board[i], mask));
	movw	%dx, 18(%rax)	# tmp541, MEM[(value_type &)_81]
# /usr/include/c++/8/bits/move.h:194:       __a = _GLIBCXX_MOVE(__b);
	movq	(%r8), %rdx	# MEM[(struct array * &)_4(D)], _92
	movq	%rdx, 0(%r13)	# _92, *_5(D)
# /usr/include/c++/8/bits/move.h:195:       __b = _GLIBCXX_MOVE(__tmp);
	movq	%rax, (%r8)	# _81, *_4(D)
# src/../include/Board.hpp:426:                     *test_board = *input_board;
	movq	24(%rsp), %rax	# %sfp, _9
	movq	0(%r13), %rdi	# MEM[(struct Board * &)_5(D)], prephitmp_767
	movdqu	(%rax), %xmm2	# *_9, tmp596
	movups	%xmm2, (%rdi)	# tmp596, *_95
	movl	16(%rax), %eax	# *_9, *_9
	movl	%eax, 16(%rdi)	# *_9, *_95
# src/../include/Board.hpp:395:             for (width_t i = 0; i < BLOCKS_W - tetrimino_rotation.tet_cols.size() + 1 ; i++)
	cmpq	$9, %rbp	#, ivtmp.252
	jne	.L75	#,
.L91:
# src/../include/constexpr_func_arr.hpp:239: 		};
	addq	$56, %rsp	#,
	.cfi_remember_state
	.cfi_def_cfa_offset 56
	popq	%rbx	#
	.cfi_def_cfa_offset 48
	popq	%rbp	#
	.cfi_def_cfa_offset 40
	popq	%r12	#
	.cfi_def_cfa_offset 32
	popq	%r13	#
	.cfi_def_cfa_offset 24
	popq	%r14	#
	.cfi_def_cfa_offset 16
	popq	%r15	#
	.cfi_def_cfa_offset 8
	ret	
	.p2align 4,,10
	.p2align 3
.L88:
	.cfi_restore_state
	movq	0(%r13), %rdi	# MEM[(struct Board * &)_5(D)], prephitmp_767
# src/../include/Board.hpp:108:         board[board_col + i] &= ~(tetrimino_rotation.tet_cols[i] << height);
	movzwl	(%rbx), %eax	# MEM[(const value_type &)_2(D)], MEM[(const value_type &)_2(D)]
	addq	%rdi, %r15	# prephitmp_767, _825
	shlx	%r12d, %eax, %eax	# _63, MEM[(const value_type &)_2(D)], tmp550
# src/../include/Board.hpp:108:         board[board_col + i] &= ~(tetrimino_rotation.tet_cols[i] << height);
	notl	%eax	# tmp551
# src/../include/Board.hpp:108:         board[board_col + i] &= ~(tetrimino_rotation.tet_cols[i] << height);
	andw	%ax, -2(%r15)	# tmp551, MEM[(value_type &)_825 + 18446744073709551614]
# src/../include/Board.hpp:108:         board[board_col + i] &= ~(tetrimino_rotation.tet_cols[i] << height);
	movzwl	2(%rbx), %eax	# MEM[(const value_type &)_2(D)], MEM[(const value_type &)_2(D)]
	shlx	%r12d, %eax, %eax	# _63, MEM[(const value_type &)_2(D)], tmp553
# src/../include/Board.hpp:108:         board[board_col + i] &= ~(tetrimino_rotation.tet_cols[i] << height);
	notl	%eax	# tmp554
# src/../include/Board.hpp:108:         board[board_col + i] &= ~(tetrimino_rotation.tet_cols[i] << height);
	andw	%ax, (%r15)	# tmp554, *_825
# src/../include/Board.hpp:108:         board[board_col + i] &= ~(tetrimino_rotation.tet_cols[i] << height);
	movzwl	4(%rbx), %eax	# MEM[(const value_type &)_2(D)], MEM[(const value_type &)_2(D)]
	shlx	%r12d, %eax, %r12d	# _63, MEM[(const value_type &)_2(D)], tmp556
# src/../include/Board.hpp:108:         board[board_col + i] &= ~(tetrimino_rotation.tet_cols[i] << height);
	notl	%r12d	# tmp557
# src/../include/Board.hpp:108:         board[board_col + i] &= ~(tetrimino_rotation.tet_cols[i] << height);
	andw	%r12w, 2(%r15)	# tmp557, MEM[(value_type &)_825 + 2]
	jmp	.L82	#
	.p2align 4,,10
	.p2align 3
.L87:
# src/../include/Board.hpp:430:                     unplace_tetrimino(*test_board, tetrimino_rotation, i, highest_drop_height);
	movq	0(%rbp), %rdi	# MEM[(struct Board * &)_5(D)], prephitmp_767
# src/../include/Board.hpp:108:         board[board_col + i] &= ~(tetrimino_rotation.tet_cols[i] << height);
	movzwl	8(%rbx), %edx	# MEM[(const value_type &)_2(D) + 8], MEM[(const value_type &)_2(D) + 8]
	addq	%rdi, %r12	# prephitmp_767, _448
	shlx	%eax, %edx, %edx	# _160, MEM[(const value_type &)_2(D) + 8], tmp444
# src/../include/Board.hpp:108:         board[board_col + i] &= ~(tetrimino_rotation.tet_cols[i] << height);
	notl	%edx	# tmp445
# src/../include/Board.hpp:108:         board[board_col + i] &= ~(tetrimino_rotation.tet_cols[i] << height);
	andw	%dx, -2(%r12)	# tmp445, MEM[(value_type &)_448 + 18446744073709551614]
# src/../include/Board.hpp:108:         board[board_col + i] &= ~(tetrimino_rotation.tet_cols[i] << height);
	movzwl	10(%rbx), %edx	# MEM[(const value_type &)_2(D) + 8], MEM[(const value_type &)_2(D) + 8]
	shlx	%eax, %edx, %eax	# _160, MEM[(const value_type &)_2(D) + 8], tmp447
# src/../include/Board.hpp:108:         board[board_col + i] &= ~(tetrimino_rotation.tet_cols[i] << height);
	notl	%eax	# tmp448
# src/../include/Board.hpp:108:         board[board_col + i] &= ~(tetrimino_rotation.tet_cols[i] << height);
	andw	%ax, (%r12)	# tmp448, *_448
	jmp	.L71	#
	.cfi_endproc
	.section	.text.unlikely
	.cfi_startproc
	.type	_ZZN23gen_functor_array_innerI28find_best_board_tuple_switchvUlvE_7types_tIJPKSt5arrayItLm10EERPS4_S8_RdRKSt6vectorIdSaIdEEEES2_IJ9TetriminoIJ17TetriminoRotationIJtEEEESG_IJSI_SH_IJttEESI_SK_EESL_SG_IJSI_SK_EESM_SG_IJSK_SK_SI_SI_EESG_IJSH_IJEESH_IJtttEEEEEES2_IJSJ_SL_SM_SN_SQ_EESt16integer_sequenceImJLm0ELm1ELm2ELm3ELm4ELm5ELm6EEEEclES1_ENUlRKSt7variantIJSJ_SL_SM_SN_SQ_EEOS6_S8_S8_S9_SE_E3_4_FUNESZ_S10_S8_S8_S9_SE_.cold.104, @function
_ZZN23gen_functor_array_innerI28find_best_board_tuple_switchvUlvE_7types_tIJPKSt5arrayItLm10EERPS4_S8_RdRKSt6vectorIdSaIdEEEES2_IJ9TetriminoIJ17TetriminoRotationIJtEEEESG_IJSI_SH_IJttEESI_SK_EESL_SG_IJSI_SK_EESM_SG_IJSK_SK_SI_SI_EESG_IJSH_IJEESH_IJtttEEEEEES2_IJSJ_SL_SM_SN_SQ_EESt16integer_sequenceImJLm0ELm1ELm2ELm3ELm4ELm5ELm6EEEEclES1_ENUlRKSt7variantIJSJ_SL_SM_SN_SQ_EEOS6_S8_S8_S9_SE_E3_4_FUNESZ_S10_S8_S8_S9_SE_.cold.104:
.LFSB10356:
.L86:
	.cfi_def_cfa_offset 112
	.cfi_offset 3, -56
	.cfi_offset 6, -48
	.cfi_offset 12, -40
	.cfi_offset 13, -32
	.cfi_offset 14, -24
	.cfi_offset 15, -16
# /usr/include/c++/8/variant:1023:   { _GLIBCXX_THROW_OR_ABORT(bad_variant_access(__what)); }
	call	abort@PLT	#
	.cfi_endproc
.LFE10356:
	.text
	.size	_ZZN23gen_functor_array_innerI28find_best_board_tuple_switchvUlvE_7types_tIJPKSt5arrayItLm10EERPS4_S8_RdRKSt6vectorIdSaIdEEEES2_IJ9TetriminoIJ17TetriminoRotationIJtEEEESG_IJSI_SH_IJttEESI_SK_EESL_SG_IJSI_SK_EESM_SG_IJSK_SK_SI_SI_EESG_IJSH_IJEESH_IJtttEEEEEES2_IJSJ_SL_SM_SN_SQ_EESt16integer_sequenceImJLm0ELm1ELm2ELm3ELm4ELm5ELm6EEEEclES1_ENUlRKSt7variantIJSJ_SL_SM_SN_SQ_EEOS6_S8_S8_S9_SE_E3_4_FUNESZ_S10_S8_S8_S9_SE_, .-_ZZN23gen_functor_array_innerI28find_best_board_tuple_switchvUlvE_7types_tIJPKSt5arrayItLm10EERPS4_S8_RdRKSt6vectorIdSaIdEEEES2_IJ9TetriminoIJ17TetriminoRotationIJtEEEESG_IJSI_SH_IJttEESI_SK_EESL_SG_IJSI_SK_EESM_SG_IJSK_SK_SI_SI_EESG_IJSH_IJEESH_IJtttEEEEEES2_IJSJ_SL_SM_SN_SQ_EESt16integer_sequenceImJLm0ELm1ELm2ELm3ELm4ELm5ELm6EEEEclES1_ENUlRKSt7variantIJSJ_SL_SM_SN_SQ_EEOS6_S8_S8_S9_SE_E3_4_FUNESZ_S10_S8_S8_S9_SE_
	.section	.text.unlikely
	.size	_ZZN23gen_functor_array_innerI28find_best_board_tuple_switchvUlvE_7types_tIJPKSt5arrayItLm10EERPS4_S8_RdRKSt6vectorIdSaIdEEEES2_IJ9TetriminoIJ17TetriminoRotationIJtEEEESG_IJSI_SH_IJttEESI_SK_EESL_SG_IJSI_SK_EESM_SG_IJSK_SK_SI_SI_EESG_IJSH_IJEESH_IJtttEEEEEES2_IJSJ_SL_SM_SN_SQ_EESt16integer_sequenceImJLm0ELm1ELm2ELm3ELm4ELm5ELm6EEEEclES1_ENUlRKSt7variantIJSJ_SL_SM_SN_SQ_EEOS6_S8_S8_S9_SE_E3_4_FUNESZ_S10_S8_S8_S9_SE_.cold.104, .-_ZZN23gen_functor_array_innerI28find_best_board_tuple_switchvUlvE_7types_tIJPKSt5arrayItLm10EERPS4_S8_RdRKSt6vectorIdSaIdEEEES2_IJ9TetriminoIJ17TetriminoRotationIJtEEEESG_IJSI_SH_IJttEESI_SK_EESL_SG_IJSI_SK_EESM_SG_IJSK_SK_SI_SI_EESG_IJSH_IJEESH_IJtttEEEEEES2_IJSJ_SL_SM_SN_SQ_EESt16integer_sequenceImJLm0ELm1ELm2ELm3ELm4ELm5ELm6EEEEclES1_ENUlRKSt7variantIJSJ_SL_SM_SN_SQ_EEOS6_S8_S8_S9_SE_E3_4_FUNESZ_S10_S8_S8_S9_SE_.cold.104
.LCOLDE4:
	.text
.LHOTE4:
	.section	.text.unlikely
.LCOLDB5:
	.text
.LHOTB5:
	.p2align 4,,15
	.type	_ZZN23gen_functor_array_innerI28find_best_board_tuple_switchvUlvE_7types_tIJPKSt5arrayItLm10EERPS4_S8_RdRKSt6vectorIdSaIdEEEES2_IJ9TetriminoIJ17TetriminoRotationIJtEEEESG_IJSI_SH_IJttEESI_SK_EESL_SG_IJSI_SK_EESM_SG_IJSK_SK_SI_SI_EESG_IJSH_IJEESH_IJtttEEEEEES2_IJSJ_SL_SM_SN_SQ_EESt16integer_sequenceImJLm0ELm1ELm2ELm3ELm4ELm5ELm6EEEEclES1_ENUlRKSt7variantIJSJ_SL_SM_SN_SQ_EEOS6_S8_S8_S9_SE_E2_4_FUNESZ_S10_S8_S8_S9_SE_, @function
_ZZN23gen_functor_array_innerI28find_best_board_tuple_switchvUlvE_7types_tIJPKSt5arrayItLm10EERPS4_S8_RdRKSt6vectorIdSaIdEEEES2_IJ9TetriminoIJ17TetriminoRotationIJtEEEESG_IJSI_SH_IJttEESI_SK_EESL_SG_IJSI_SK_EESM_SG_IJSK_SK_SI_SI_EESG_IJSH_IJEESH_IJtttEEEEEES2_IJSJ_SL_SM_SN_SQ_EESt16integer_sequenceImJLm0ELm1ELm2ELm3ELm4ELm5ELm6EEEEclES1_ENUlRKSt7variantIJSJ_SL_SM_SN_SQ_EEOS6_S8_S8_S9_SE_E2_4_FUNESZ_S10_S8_S8_S9_SE_:
.LFB10341:
	.cfi_startproc
	pushq	%r15	#
	.cfi_def_cfa_offset 16
	.cfi_offset 15, -16
	pushq	%r14	#
	.cfi_def_cfa_offset 24
	.cfi_offset 14, -24
	pushq	%r13	#
	.cfi_def_cfa_offset 32
	.cfi_offset 13, -32
	pushq	%r12	#
	.cfi_def_cfa_offset 40
	.cfi_offset 12, -40
	pushq	%rbp	#
	.cfi_def_cfa_offset 48
	.cfi_offset 6, -48
	pushq	%rbx	#
	.cfi_def_cfa_offset 56
	.cfi_offset 3, -56
	subq	$56, %rsp	#,
	.cfi_def_cfa_offset 112
# /usr/include/c++/8/variant:1355:       if (__v.index() != _Np)
	cmpb	$2, 28(%rdi)	#, MEM[(unsigned char *)_2(D) + 28B]
# src/../include/constexpr_func_arr.hpp:239: 		};
	movq	(%rsi), %r13	# *_3(D), _9
# src/../include/constexpr_func_arr.hpp:233: 				[](variant_t const& vrnt, Args&&... args) noexcept-> Ret
	movq	%r8, (%rsp)	# D.153627, %sfp
# /usr/include/c++/8/variant:1355:       if (__v.index() != _Np)
	jne	.L110	#,
	movq	%rdi, %rbx	# D.153623, D.153623
# src/../include/Board.hpp:390:         best_score = -INFINITY;
	movq	.LC1(%rip), %rdi	#, tmp575
	movq	%rdx, %r14	# D.153625, D.153625
	movq	%rcx, %rbp	# D.153626, D.153626
# src/../include/Board.hpp:391:         *test_board = *input_board;
	movdqu	0(%r13), %xmm3	# *_9, tmp576
	movl	$1, %r15d	#, ivtmp.296
# src/../include/Board.hpp:390:         best_score = -INFINITY;
	movq	%rdi, (%r8)	# tmp575, *_6(D)
# src/../include/Board.hpp:391:         *test_board = *input_board;
	movq	(%rcx), %rdi	# MEM[(struct Board * &)_5(D)], prephitmp_767
	movups	%xmm3, (%rdi)	# tmp576, *_12
	movl	16(%r13), %eax	# *_9, *_9
	movl	%eax, 16(%rdi)	# *_9, *_12
# src/../include/Board.hpp:419:                 test_board_score = evaluate_board_GA_internet_no_params(*test_board, line_mask);
	leaq	46(%rsp), %rax	#, tmp560
	movq	%rax, 16(%rsp)	# tmp560, %sfp
	jmp	.L100	#
	.p2align 4,,10
	.p2align 3
.L95:
	addq	$1, %r15	#, ivtmp.296
# src/../include/Board.hpp:395:             for (width_t i = 0; i < BLOCKS_W - tetrimino_rotation.tet_cols.size() + 1 ; i++)
	cmpq	$10, %r15	#, ivtmp.296
	je	.L114	#,
.L100:
	leaq	(%r15,%r15), %r12	#, _113
# src/../include/Tetrimino.hpp:18:         return __builtin_ffsll(tet_cols[col]) - 1;
	movzwl	8(%rbx), %esi	# MEM[(const value_type &)_2(D) + 8],
	movq	$-1, %rdx	#, tmp578
	movzwl	10(%rbx), %ecx	# MEM[(const value_type &)_2(D) + 8], MEM[(const value_type &)_2(D) + 8]
	leaq	(%rdi,%r12), %r9	#, _116
# src/../include/Board.hpp:91:     return static_cast<int>(col_height(board[board_col])) - static_cast<int>(tetrimino_rotation.bottom_empty_spaces(tetrimino_col));
	movzwl	-2(%r9), %eax	# MEM[(const value_type &)_116 + 18446744073709551614],
# src/../include/Tetrimino.hpp:18:         return __builtin_ffsll(tet_cols[col]) - 1;
	movq	%rsi, %r8	#,
# src/../include/Board.hpp:91:     return static_cast<int>(col_height(board[board_col])) - static_cast<int>(tetrimino_rotation.bottom_empty_spaces(tetrimino_col));
	movl	%eax, %r11d	#,
# src/../include/Board.hpp:22:     return static_cast<height_t>(63 - __builtin_clzll(static_cast<unsigned long long>((col << 1) | 1)));
	leal	1(%rax,%rax), %eax	#, tmp364
# src/../include/Board.hpp:22:     return static_cast<height_t>(63 - __builtin_clzll(static_cast<unsigned long long>((col << 1) | 1)));
	cltq
	bsrq	%rax, %rax	# tmp365, tmp366
	xorq	$63, %rax	#, tmp366
# src/../include/Tetrimino.hpp:18:         return __builtin_ffsll(tet_cols[col]) - 1;
	bsfq	%rsi, %rsi	# _129, tmp368
	cmove	%rdx, %rsi	# tmp578,, tmp368
# src/../include/Board.hpp:22:     return static_cast<height_t>(63 - __builtin_clzll(static_cast<unsigned long long>((col << 1) | 1)));
	movq	%rax, 8(%rsp)	# tmp366, %sfp
# src/../include/Tetrimino.hpp:18:         return __builtin_ffsll(tet_cols[col]) - 1;
	movq	%rdx, %rax	# tmp578, tmp578
# src/../include/Board.hpp:91:     return static_cast<int>(col_height(board[board_col])) - static_cast<int>(tetrimino_rotation.bottom_empty_spaces(tetrimino_col));
	movzwl	(%r9), %edx	# *_116,
	movl	%edx, %r10d	#,
# src/../include/Board.hpp:22:     return static_cast<height_t>(63 - __builtin_clzll(static_cast<unsigned long long>((col << 1) | 1)));
	leal	1(%rdx,%rdx), %edx	#, tmp372
# src/../include/Board.hpp:91:     return static_cast<int>(col_height(board[board_col])) - static_cast<int>(tetrimino_rotation.bottom_empty_spaces(tetrimino_col));
	movzwl	%si, %esi	# tmp368, tmp382
# src/../include/Board.hpp:22:     return static_cast<height_t>(63 - __builtin_clzll(static_cast<unsigned long long>((col << 1) | 1)));
	movslq	%edx, %rdx	# tmp372, tmp373
	bsrq	%rdx, %rdx	# tmp373, tmp374
	xorq	$63, %rdx	#, tmp374
# src/../include/Tetrimino.hpp:18:         return __builtin_ffsll(tet_cols[col]) - 1;
	bsfq	%rcx, %rcx	# MEM[(const value_type &)_2(D) + 8], tmp376
	cmove	%rax, %rcx	# tmp579,, tmp376
# src/../include/Board.hpp:22:     return static_cast<height_t>(63 - __builtin_clzll(static_cast<unsigned long long>((col << 1) | 1)));
	movl	$63, %eax	#, tmp378
	subw	8(%rsp), %ax	# %sfp, tmp378
# src/../include/Board.hpp:91:     return static_cast<int>(col_height(board[board_col])) - static_cast<int>(tetrimino_rotation.bottom_empty_spaces(tetrimino_col));
	movzwl	%ax, %eax	# tmp378, tmp380
# src/../include/Board.hpp:91:     return static_cast<int>(col_height(board[board_col])) - static_cast<int>(tetrimino_rotation.bottom_empty_spaces(tetrimino_col));
	subl	%esi, %eax	# tmp382, tmp383
# src/../include/Board.hpp:22:     return static_cast<height_t>(63 - __builtin_clzll(static_cast<unsigned long long>((col << 1) | 1)));
	movl	$63, %esi	#, tmp384
# src/../include/Board.hpp:91:     return static_cast<int>(col_height(board[board_col])) - static_cast<int>(tetrimino_rotation.bottom_empty_spaces(tetrimino_col));
	movzwl	%cx, %ecx	# tmp376, tmp388
# src/../include/Board.hpp:22:     return static_cast<height_t>(63 - __builtin_clzll(static_cast<unsigned long long>((col << 1) | 1)));
	subl	%edx, %esi	# tmp374, tmp384
	movzwl	%si, %edx	# tmp384,
# src/../include/Board.hpp:91:     return static_cast<int>(col_height(board[board_col])) - static_cast<int>(tetrimino_rotation.bottom_empty_spaces(tetrimino_col));
	subl	%ecx, %edx	# tmp388, tmp389
	cmpl	%edx, %eax	# tmp389, tmp383
	cmovl	%edx, %eax	# tmp383,, tmp389, highest_drop_height
# src/../include/Board.hpp:410:                 if (highest_drop_height + tetrimino_rotation.height - 1 >= BLOCKS_H)
	movzwl	12(%rbx), %edx	# MEM[(const struct TetriminoRotation &)_2(D) + 8].height, MEM[(const struct TetriminoRotation &)_2(D) + 8].height
	addl	%eax, %edx	# highest_drop_height, tmp391
# src/../include/Board.hpp:410:                 if (highest_drop_height + tetrimino_rotation.height - 1 >= BLOCKS_H)
	cmpl	$16, %edx	#, tmp391
	jg	.L95	#,
	movzwl	%ax, %eax	# highest_drop_height, _160
# src/../include/Board.hpp:419:                 test_board_score = evaluate_board_GA_internet_no_params(*test_board, line_mask);
	movq	16(%rsp), %rsi	# %sfp,
# src/../include/Board.hpp:99:         board[board_col + i] |= static_cast<height_t>(tetrimino_rotation.tet_cols[i] << height);
	shlx	%eax, %r8d, %r8d	# _160, _129, tmp393
# src/../include/Board.hpp:99:         board[board_col + i] |= static_cast<height_t>(tetrimino_rotation.tet_cols[i] << height);
	orl	%r11d, %r8d	# _120, tmp394
# src/../include/Board.hpp:99:         board[board_col + i] |= static_cast<height_t>(tetrimino_rotation.tet_cols[i] << height);
	movl	%eax, 8(%rsp)	# _160, %sfp
# src/../include/Board.hpp:99:         board[board_col + i] |= static_cast<height_t>(tetrimino_rotation.tet_cols[i] << height);
	movw	%r8w, -2(%r9)	# tmp394, MEM[(value_type &)_116 + 18446744073709551614]
# src/../include/Board.hpp:99:         board[board_col + i] |= static_cast<height_t>(tetrimino_rotation.tet_cols[i] << height);
	movzwl	10(%rbx), %edx	# MEM[(const value_type &)_2(D) + 8], MEM[(const value_type &)_2(D) + 8]
	shlx	%eax, %edx, %edx	# _160, MEM[(const value_type &)_2(D) + 8], tmp396
# src/../include/Board.hpp:99:         board[board_col + i] |= static_cast<height_t>(tetrimino_rotation.tet_cols[i] << height);
	orl	%edx, %r10d	# tmp396, tmp397
	movw	%r10w, (%r9)	# tmp397, MEM[(value_type &)_116]
# src/../include/Board.hpp:419:                 test_board_score = evaluate_board_GA_internet_no_params(*test_board, line_mask);
	call	_Z36evaluate_board_GA_internet_no_paramsRKSt5arrayItLm10EERt	#
# src/../include/Board.hpp:421:                 if (test_board_score > best_score)
	movq	(%rsp), %rdi	# %sfp, D.153627
	movl	8(%rsp), %eax	# %sfp, _160
	comisd	(%rdi), %xmm0	# *_6(D), test_board_score
	jbe	.L111	#,
# src/../include/Board.hpp:424:                     destroy_lines_internet(*test_board, line_mask);
	movq	0(%rbp), %rax	# MEM[(struct Board * &)_5(D)], _178
# src/../include/Board.hpp:135:     mask =~ mask;
	movzwl	46(%rsp), %edx	# line_mask, mask
# src/../include/Board.hpp:423:                     best_score = test_board_score;
	movsd	%xmm0, (%rdi)	# test_board_score, *_6(D)
	addq	$1, %r15	#, ivtmp.296
# src/../include/Board.hpp:138:         board[i] = static_cast<height_t>(_pext_u32(board[i], mask));
	movzwl	(%rax), %ecx	# MEM[(value_type &)_178], MEM[(value_type &)_178]
# src/../include/Board.hpp:135:     mask =~ mask;
	notl	%edx	# mask
# src/../include/Board.hpp:138:         board[i] = static_cast<height_t>(_pext_u32(board[i], mask));
	movzwl	%dx, %edx	# mask, _495
# /usr/lib/gcc/x86_64-linux-gnu/8/include/bmi2intrin.h:55:   return __builtin_ia32_pext_si (__X, __Y);
	pext	%edx, %ecx, %ecx	# _495, MEM[(value_type &)_178], tmp401
# src/../include/Board.hpp:138:         board[i] = static_cast<height_t>(_pext_u32(board[i], mask));
	movw	%cx, (%rax)	# tmp401, MEM[(value_type &)_178]
# src/../include/Board.hpp:138:         board[i] = static_cast<height_t>(_pext_u32(board[i], mask));
	movzwl	2(%rax), %ecx	# MEM[(value_type &)_178], MEM[(value_type &)_178]
# /usr/lib/gcc/x86_64-linux-gnu/8/include/bmi2intrin.h:55:   return __builtin_ia32_pext_si (__X, __Y);
	pext	%edx, %ecx, %ecx	# _495, MEM[(value_type &)_178], tmp405
# src/../include/Board.hpp:138:         board[i] = static_cast<height_t>(_pext_u32(board[i], mask));
	movw	%cx, 2(%rax)	# tmp405, MEM[(value_type &)_178]
# src/../include/Board.hpp:138:         board[i] = static_cast<height_t>(_pext_u32(board[i], mask));
	movzwl	4(%rax), %ecx	# MEM[(value_type &)_178], MEM[(value_type &)_178]
# /usr/lib/gcc/x86_64-linux-gnu/8/include/bmi2intrin.h:55:   return __builtin_ia32_pext_si (__X, __Y);
	pext	%edx, %ecx, %ecx	# _495, MEM[(value_type &)_178], tmp409
# src/../include/Board.hpp:138:         board[i] = static_cast<height_t>(_pext_u32(board[i], mask));
	movw	%cx, 4(%rax)	# tmp409, MEM[(value_type &)_178]
# src/../include/Board.hpp:138:         board[i] = static_cast<height_t>(_pext_u32(board[i], mask));
	movzwl	6(%rax), %ecx	# MEM[(value_type &)_178], MEM[(value_type &)_178]
# /usr/lib/gcc/x86_64-linux-gnu/8/include/bmi2intrin.h:55:   return __builtin_ia32_pext_si (__X, __Y);
	pext	%edx, %ecx, %ecx	# _495, MEM[(value_type &)_178], tmp413
# src/../include/Board.hpp:138:         board[i] = static_cast<height_t>(_pext_u32(board[i], mask));
	movw	%cx, 6(%rax)	# tmp413, MEM[(value_type &)_178]
# src/../include/Board.hpp:138:         board[i] = static_cast<height_t>(_pext_u32(board[i], mask));
	movzwl	8(%rax), %ecx	# MEM[(value_type &)_178], MEM[(value_type &)_178]
# /usr/lib/gcc/x86_64-linux-gnu/8/include/bmi2intrin.h:55:   return __builtin_ia32_pext_si (__X, __Y);
	pext	%edx, %ecx, %ecx	# _495, MEM[(value_type &)_178], tmp417
# src/../include/Board.hpp:138:         board[i] = static_cast<height_t>(_pext_u32(board[i], mask));
	movw	%cx, 8(%rax)	# tmp417, MEM[(value_type &)_178]
# src/../include/Board.hpp:138:         board[i] = static_cast<height_t>(_pext_u32(board[i], mask));
	movzwl	10(%rax), %ecx	# MEM[(value_type &)_178], MEM[(value_type &)_178]
# /usr/lib/gcc/x86_64-linux-gnu/8/include/bmi2intrin.h:55:   return __builtin_ia32_pext_si (__X, __Y);
	pext	%edx, %ecx, %ecx	# _495, MEM[(value_type &)_178], tmp421
# src/../include/Board.hpp:138:         board[i] = static_cast<height_t>(_pext_u32(board[i], mask));
	movw	%cx, 10(%rax)	# tmp421, MEM[(value_type &)_178]
# src/../include/Board.hpp:138:         board[i] = static_cast<height_t>(_pext_u32(board[i], mask));
	movzwl	12(%rax), %ecx	# MEM[(value_type &)_178], MEM[(value_type &)_178]
# /usr/lib/gcc/x86_64-linux-gnu/8/include/bmi2intrin.h:55:   return __builtin_ia32_pext_si (__X, __Y);
	pext	%edx, %ecx, %ecx	# _495, MEM[(value_type &)_178], tmp425
# src/../include/Board.hpp:138:         board[i] = static_cast<height_t>(_pext_u32(board[i], mask));
	movw	%cx, 12(%rax)	# tmp425, MEM[(value_type &)_178]
# src/../include/Board.hpp:138:         board[i] = static_cast<height_t>(_pext_u32(board[i], mask));
	movzwl	14(%rax), %ecx	# MEM[(value_type &)_178], MEM[(value_type &)_178]
# /usr/lib/gcc/x86_64-linux-gnu/8/include/bmi2intrin.h:55:   return __builtin_ia32_pext_si (__X, __Y);
	pext	%edx, %ecx, %ecx	# _495, MEM[(value_type &)_178], tmp429
# src/../include/Board.hpp:138:         board[i] = static_cast<height_t>(_pext_u32(board[i], mask));
	movw	%cx, 14(%rax)	# tmp429, MEM[(value_type &)_178]
# src/../include/Board.hpp:138:         board[i] = static_cast<height_t>(_pext_u32(board[i], mask));
	movzwl	16(%rax), %ecx	# MEM[(value_type &)_178], MEM[(value_type &)_178]
# /usr/lib/gcc/x86_64-linux-gnu/8/include/bmi2intrin.h:55:   return __builtin_ia32_pext_si (__X, __Y);
	pext	%edx, %ecx, %ecx	# _495, MEM[(value_type &)_178], tmp433
# src/../include/Board.hpp:138:         board[i] = static_cast<height_t>(_pext_u32(board[i], mask));
	movw	%cx, 16(%rax)	# tmp433, MEM[(value_type &)_178]
# src/../include/Board.hpp:138:         board[i] = static_cast<height_t>(_pext_u32(board[i], mask));
	movzwl	18(%rax), %ecx	# MEM[(value_type &)_178], MEM[(value_type &)_178]
# /usr/lib/gcc/x86_64-linux-gnu/8/include/bmi2intrin.h:55:   return __builtin_ia32_pext_si (__X, __Y);
	pext	%edx, %ecx, %edx	# _495, MEM[(value_type &)_178], tmp437
# src/../include/Board.hpp:138:         board[i] = static_cast<height_t>(_pext_u32(board[i], mask));
	movw	%dx, 18(%rax)	# tmp437, MEM[(value_type &)_178]
# /usr/include/c++/8/bits/move.h:194:       __a = _GLIBCXX_MOVE(__b);
	movq	(%r14), %rdx	# MEM[(struct array * &)_4(D)], _189
# src/../include/Board.hpp:426:                     *test_board = *input_board;
	movdqu	0(%r13), %xmm1	# *_9, tmp585
# /usr/include/c++/8/bits/move.h:194:       __a = _GLIBCXX_MOVE(__b);
	movq	%rdx, 0(%rbp)	# _189, *_5(D)
# /usr/include/c++/8/bits/move.h:195:       __b = _GLIBCXX_MOVE(__tmp);
	movq	%rax, (%r14)	# _178, *_4(D)
# src/../include/Board.hpp:426:                     *test_board = *input_board;
	movq	0(%rbp), %rdi	# MEM[(struct Board * &)_5(D)], prephitmp_767
	movups	%xmm1, (%rdi)	# tmp585, *_192
	movl	16(%r13), %eax	# *_9, *_9
	movl	%eax, 16(%rdi)	# *_9, *_192
# src/../include/Board.hpp:395:             for (width_t i = 0; i < BLOCKS_W - tetrimino_rotation.tet_cols.size() + 1 ; i++)
	cmpq	$10, %r15	#, ivtmp.296
	jne	.L100	#,
.L114:
# src/../include/Board.hpp:419:                 test_board_score = evaluate_board_GA_internet_no_params(*test_board, line_mask);
	leaq	46(%rsp), %rax	#, tmp559
# src/../include/Board.hpp:395:             for (width_t i = 0; i < BLOCKS_W - tetrimino_rotation.tet_cols.size() + 1 ; i++)
	movl	$1, %r8d	#, ivtmp.283
# src/../include/Board.hpp:419:                 test_board_score = evaluate_board_GA_internet_no_params(*test_board, line_mask);
	movq	%r13, 24(%rsp)	# _9, %sfp
	movq	%rax, 16(%rsp)	# tmp559, %sfp
	movq	%rbp, %rax	# D.153626, D.153626
	movq	%r8, %rbp	# ivtmp.283, ivtmp.283
	movq	%r14, %r8	# D.153625, D.153625
	movq	%rax, %r13	# D.153626, D.153626
	jmp	.L99	#
	.p2align 4,,10
	.p2align 3
.L106:
# src/../include/Board.hpp:395:             for (width_t i = 0; i < BLOCKS_W - tetrimino_rotation.tet_cols.size() + 1 ; i++)
	cmpq	$9, %rbp	#, ivtmp.283
	je	.L115	#,
.L99:
	leaq	(%rbp,%rbp), %r15	#, _842
# src/../include/Tetrimino.hpp:18:         return __builtin_ffsll(tet_cols[col]) - 1;
	movzwl	(%rbx), %r12d	# MEM[(const value_type &)_2(D)],
	movzwl	2(%rbx), %r11d	# MEM[(const value_type &)_2(D)], MEM[(const value_type &)_2(D)]
	movq	$-1, %rsi	#, tmp587
	leaq	(%rdi,%r15), %rdx	#, _841
	movq	%rsi, %r14	# tmp587, tmp587
# src/../include/Board.hpp:91:     return static_cast<int>(col_height(board[board_col])) - static_cast<int>(tetrimino_rotation.bottom_empty_spaces(tetrimino_col));
	movzwl	-2(%rdx), %eax	# MEM[(const value_type &)_841 + 18446744073709551614],
# src/../include/Tetrimino.hpp:18:         return __builtin_ffsll(tet_cols[col]) - 1;
	movq	%r12, %rcx	#,
# src/../include/Board.hpp:91:     return static_cast<int>(col_height(board[board_col])) - static_cast<int>(tetrimino_rotation.bottom_empty_spaces(tetrimino_col));
	movl	%eax, %r10d	#,
# src/../include/Board.hpp:22:     return static_cast<height_t>(63 - __builtin_clzll(static_cast<unsigned long long>((col << 1) | 1)));
	leal	1(%rax,%rax), %eax	#, tmp451
# src/../include/Board.hpp:22:     return static_cast<height_t>(63 - __builtin_clzll(static_cast<unsigned long long>((col << 1) | 1)));
	cltq
	bsrq	%rax, %rax	# tmp452, tmp453
	xorq	$63, %rax	#, tmp453
# src/../include/Tetrimino.hpp:18:         return __builtin_ffsll(tet_cols[col]) - 1;
	bsfq	%r12, %r12	# _30, tmp455
	cmove	%rsi, %r12	# tmp587,, tmp455
# src/../include/Board.hpp:91:     return static_cast<int>(col_height(board[board_col])) - static_cast<int>(tetrimino_rotation.bottom_empty_spaces(tetrimino_col));
	movzwl	(%rdx), %esi	# *_841,
	movl	%esi, %r9d	#,
# src/../include/Board.hpp:22:     return static_cast<height_t>(63 - __builtin_clzll(static_cast<unsigned long long>((col << 1) | 1)));
	leal	1(%rsi,%rsi), %esi	#, tmp459
# src/../include/Board.hpp:91:     return static_cast<int>(col_height(board[board_col])) - static_cast<int>(tetrimino_rotation.bottom_empty_spaces(tetrimino_col));
	movzwl	%r12w, %r12d	# tmp455, tmp469
# src/../include/Board.hpp:22:     return static_cast<height_t>(63 - __builtin_clzll(static_cast<unsigned long long>((col << 1) | 1)));
	movslq	%esi, %rsi	# tmp459, tmp460
	bsrq	%rsi, %rsi	# tmp460, tmp461
	xorq	$63, %rsi	#, tmp461
# src/../include/Tetrimino.hpp:18:         return __builtin_ffsll(tet_cols[col]) - 1;
	bsfq	%r11, %r11	# MEM[(const value_type &)_2(D)], tmp463
	cmove	%r14, %r11	# tmp588,, tmp463
# src/../include/Board.hpp:22:     return static_cast<height_t>(63 - __builtin_clzll(static_cast<unsigned long long>((col << 1) | 1)));
	movl	$63, %r14d	#, tmp465
	subl	%eax, %r14d	# tmp453, tmp465
	movzwl	%r14w, %eax	# tmp465,
# src/../include/Board.hpp:91:     return static_cast<int>(col_height(board[board_col])) - static_cast<int>(tetrimino_rotation.bottom_empty_spaces(tetrimino_col));
	movzwl	%r11w, %r11d	# tmp463, tmp475
# src/../include/Tetrimino.hpp:18:         return __builtin_ffsll(tet_cols[col]) - 1;
	movq	$-1, %r14	#, tmp591
